
/home/rishi-patil/Desktop/FYP/picoprobe/build-pico2/debugprobe_on_pico2.elf:     file format elf32-littlearm

Sections:
Idx Name          Size      VMA       LMA       File off  Algn
  0 .flashtext    000001f0  10000000  10000000  00001000  2**2
                  CONTENTS, ALLOC, LOAD, READONLY, CODE
  1 .rodata       00000000  100001f0  100001f0  0000b928  2**0
                  CONTENTS, ALLOC, LOAD, DATA
  2 .ARM.exidx    00000008  100001f0  100001f0  000011f0  2**2
                  CONTENTS, ALLOC, LOAD, READONLY, DATA
  3 .binary_info  00000048  100001f8  100001f8  000011f8  2**2
                  CONTENTS, ALLOC, LOAD, READONLY, DATA
  4 .ram_vector_table 00000110  20000000  20000000  0000c000  2**2
                  ALLOC
  5 .uninitialized_data 00000000  20000110  20000110  0000b928  2**0
                  CONTENTS
  6 .text         000083b0  20000110  10000240  00002110  2**3
                  CONTENTS, ALLOC, LOAD, READONLY, CODE
  7 .data         00001324  200084c0  100085f0  0000a4c0  2**2
                  CONTENTS, ALLOC, LOAD, CODE
  8 .tdata        00000000  200097e4  200097e4  0000b928  2**0
                  CONTENTS, ALLOC, LOAD, DATA, THREAD_LOCAL
  9 .tbss         00000000  200097e4  200097e4  00000000  2**0
                  ALLOC, THREAD_LOCAL
 10 .bss          00016284  200097e8  10009914  0000c7e8  2**3
                  ALLOC
 11 .heap         00000800  2001fa6c  10009914  0000ba6c  2**2
                  ALLOC, READONLY
 12 .scratch_x    00000000  20080000  20080000  0000b928  2**0
                  CONTENTS
 13 .scratch_y    00000000  20081000  20081000  0000b928  2**0
                  CONTENTS
 14 .stack1_dummy 00000800  20080000  20080000  0000c000  2**2
                  ALLOC
 15 .stack_dummy  00000800  20081000  20081000  0000c000  2**5
                  ALLOC, READONLY
 16 .flash_end    00000014  10009914  10009914  0000b914  2**2
                  CONTENTS, ALLOC, LOAD, READONLY, DATA
 17 .ARM.attributes 00000034  00000000  00000000  0000b928  2**0
                  CONTENTS, READONLY
 18 .comment      00000026  00000000  00000000  0000b95c  2**0
                  CONTENTS, READONLY
 19 .debug_info   000507de  00000000  00000000  0000b982  2**0
                  CONTENTS, READONLY, DEBUGGING, OCTETS
 20 .debug_abbrev 0000de4c  00000000  00000000  0005c160  2**0
                  CONTENTS, READONLY, DEBUGGING, OCTETS
 21 .debug_aranges 00001e20  00000000  00000000  00069fb0  2**3
                  CONTENTS, READONLY, DEBUGGING, OCTETS
 22 .debug_rnglists 00006a4d  00000000  00000000  0006bdd0  2**0
                  CONTENTS, READONLY, DEBUGGING, OCTETS
 23 .debug_line   000376fb  00000000  00000000  0007281d  2**0
                  CONTENTS, READONLY, DEBUGGING, OCTETS
 24 .debug_str    0000fb51  00000000  00000000  000a9f18  2**0
                  CONTENTS, READONLY, DEBUGGING, OCTETS
 25 .debug_frame  000054ac  00000000  00000000  000b9a6c  2**2
                  CONTENTS, READONLY, DEBUGGING, OCTETS
 26 .debug_loclists 00029b24  00000000  00000000  000bef18  2**0
                  CONTENTS, READONLY, DEBUGGING, OCTETS
 27 .debug_line_str 00000135  00000000  00000000  000e8a3c  2**0
                  CONTENTS, READONLY, DEBUGGING, OCTETS

/home/rishi-patil/Desktop/FYP/picoprobe/build-pico2/debugprobe_on_pico2.elf:     file format elf32-littlearm


Disassembly of section .flashtext:

10000000 <__VECTOR_TABLE>:
10000000:	20082000 	.word	0x20082000
10000004:	1000015d 	.word	0x1000015d
10000008:	1000011b 	.word	0x1000011b
1000000c:	1000011d 	.word	0x1000011d
10000010:	10000111 	.word	0x10000111
10000014:	10000111 	.word	0x10000111
10000018:	10000111 	.word	0x10000111
1000001c:	10000111 	.word	0x10000111
10000020:	10000119 	.word	0x10000119
10000024:	10000119 	.word	0x10000119
10000028:	10000119 	.word	0x10000119
1000002c:	1000011f 	.word	0x1000011f
10000030:	10000111 	.word	0x10000111
10000034:	10000119 	.word	0x10000119
10000038:	10000121 	.word	0x10000121
1000003c:	10000123 	.word	0x10000123
10000040:	10000111 	.word	0x10000111
10000044:	10000111 	.word	0x10000111
10000048:	10000111 	.word	0x10000111
1000004c:	10000111 	.word	0x10000111
10000050:	10000111 	.word	0x10000111
10000054:	10000111 	.word	0x10000111
10000058:	10000111 	.word	0x10000111
1000005c:	10000111 	.word	0x10000111
10000060:	10000111 	.word	0x10000111
10000064:	10000111 	.word	0x10000111
10000068:	10000111 	.word	0x10000111
1000006c:	10000111 	.word	0x10000111
10000070:	10000111 	.word	0x10000111
10000074:	10000111 	.word	0x10000111
10000078:	10000111 	.word	0x10000111
1000007c:	10000111 	.word	0x10000111
10000080:	10000111 	.word	0x10000111
10000084:	10000111 	.word	0x10000111
10000088:	10000111 	.word	0x10000111
1000008c:	10000111 	.word	0x10000111
10000090:	10000111 	.word	0x10000111
10000094:	10000111 	.word	0x10000111
10000098:	10000111 	.word	0x10000111
1000009c:	10000111 	.word	0x10000111
100000a0:	10000111 	.word	0x10000111
100000a4:	10000111 	.word	0x10000111
100000a8:	10000111 	.word	0x10000111
100000ac:	10000111 	.word	0x10000111
100000b0:	10000111 	.word	0x10000111
100000b4:	10000111 	.word	0x10000111
100000b8:	10000111 	.word	0x10000111
100000bc:	10000111 	.word	0x10000111
100000c0:	10000111 	.word	0x10000111
100000c4:	10000111 	.word	0x10000111
100000c8:	10000111 	.word	0x10000111
100000cc:	10000111 	.word	0x10000111
100000d0:	10000111 	.word	0x10000111
100000d4:	10000111 	.word	0x10000111
100000d8:	10000111 	.word	0x10000111
100000dc:	10000111 	.word	0x10000111
100000e0:	10000111 	.word	0x10000111
100000e4:	10000111 	.word	0x10000111
100000e8:	10000111 	.word	0x10000111
100000ec:	10000111 	.word	0x10000111
100000f0:	10000111 	.word	0x10000111
100000f4:	10000111 	.word	0x10000111
100000f8:	10000111 	.word	0x10000111
100000fc:	10000111 	.word	0x10000111
10000100:	10000111 	.word	0x10000111
10000104:	10000111 	.word	0x10000111
10000108:	10000111 	.word	0x10000111
1000010c:	10000111 	.word	0x10000111

10000110 <__unhandled_user_irq>:
10000110:	f3ef 8005 	mrs	r0, IPSR
10000114:	3810      	subs	r0, #16

10000116 <unhandled_user_irq_num_in_r0>:
10000116:	be00      	bkpt	0x0000

10000118 <isr_invalid>:
10000118:	be00      	bkpt	0x0000

1000011a <isr_nmi>:
1000011a:	be00      	bkpt	0x0000

1000011c <isr_hardfault>:
1000011c:	be00      	bkpt	0x0000

1000011e <isr_svcall>:
1000011e:	be00      	bkpt	0x0000

10000120 <isr_pendsv>:
10000120:	be00      	bkpt	0x0000

10000122 <isr_systick>:
10000122:	be00      	bkpt	0x0000

10000124 <__default_isrs_end>:
10000124:	7188ebf2 	.word	0x7188ebf2
10000128:	100001f8 	.word	0x100001f8
1000012c:	10000240 	.word	0x10000240
10000130:	100001a0 	.word	0x100001a0
10000134:	e71aa390 	.word	0xe71aa390

10000138 <__binary_info_header_end>:
10000138:	ffffded3 	.word	0xffffded3
1000013c:	10210142 	.word	0x10210142
10000140:	000001ff 	.word	0x000001ff
10000144:	000097dc 	.word	0x000097dc
10000148:	ab123579 	.word	0xab123579

1000014c <_entry_point>:
1000014c:	f04f 0000 	mov.w	r0, #0

10000150 <_enter_vtable_in_r0>:
10000150:	4921      	ldr	r1, [pc, #132]	@ (100001d8 <data_cpy_table+0x38>)
10000152:	6008      	str	r0, [r1, #0]
10000154:	c806      	ldmia	r0!, {r1, r2}
10000156:	f381 8808 	msr	MSP, r1
1000015a:	4710      	bx	r2

1000015c <_reset_handler>:
1000015c:	f04f 4050 	mov.w	r0, #3489660928	@ 0xd0000000
10000160:	6800      	ldr	r0, [r0, #0]
10000162:	b110      	cbz	r0, 1000016a <hold_non_core0_in_bootrom+0x6>

10000164 <hold_non_core0_in_bootrom>:
10000164:	f04f 0000 	mov.w	r0, #0
10000168:	e7f2      	b.n	10000150 <_enter_vtable_in_r0>
1000016a:	a40d      	add	r4, pc, #52	@ (adr r4, 100001a0 <data_cpy_table>)
1000016c:	cc0e      	ldmia	r4!, {r1, r2, r3}
1000016e:	2900      	cmp	r1, #0
10000170:	d002      	beq.n	10000178 <hold_non_core0_in_bootrom+0x14>
10000172:	f000 f812 	bl	1000019a <data_cpy>
10000176:	e7f9      	b.n	1000016c <hold_non_core0_in_bootrom+0x8>
10000178:	4918      	ldr	r1, [pc, #96]	@ (100001dc <data_cpy_table+0x3c>)
1000017a:	4a19      	ldr	r2, [pc, #100]	@ (100001e0 <data_cpy_table+0x40>)
1000017c:	2000      	movs	r0, #0
1000017e:	e000      	b.n	10000182 <bss_fill_test>

10000180 <bss_fill_loop>:
10000180:	c101      	stmia	r1!, {r0}

10000182 <bss_fill_test>:
10000182:	4291      	cmp	r1, r2
10000184:	d1fc      	bne.n	10000180 <bss_fill_loop>

10000186 <platform_entry>:
10000186:	4917      	ldr	r1, [pc, #92]	@ (100001e4 <data_cpy_table+0x44>)
10000188:	4788      	blx	r1
1000018a:	4917      	ldr	r1, [pc, #92]	@ (100001e8 <data_cpy_table+0x48>)
1000018c:	4788      	blx	r1
1000018e:	4917      	ldr	r1, [pc, #92]	@ (100001ec <data_cpy_table+0x4c>)
10000190:	4788      	blx	r1
10000192:	be00      	bkpt	0x0000
10000194:	e7fd      	b.n	10000192 <platform_entry+0xc>

10000196 <data_cpy_loop>:
10000196:	c901      	ldmia	r1!, {r0}
10000198:	c201      	stmia	r2!, {r0}

1000019a <data_cpy>:
1000019a:	429a      	cmp	r2, r3
1000019c:	d3fb      	bcc.n	10000196 <data_cpy_loop>
1000019e:	4770      	bx	lr

100001a0 <data_cpy_table>:
100001a0:	10000240 	.word	0x10000240
100001a4:	20000110 	.word	0x20000110
100001a8:	200084c0 	.word	0x200084c0
100001ac:	100085f0 	.word	0x100085f0
100001b0:	200084c0 	.word	0x200084c0
100001b4:	200097e4 	.word	0x200097e4
100001b8:	10009914 	.word	0x10009914
100001bc:	20080000 	.word	0x20080000
100001c0:	20080000 	.word	0x20080000
100001c4:	10009914 	.word	0x10009914
100001c8:	20081000 	.word	0x20081000
100001cc:	20081000 	.word	0x20081000
100001d0:	00000000 	.word	0x00000000
100001d4:	4770      	bx	lr
100001d6:	0000      	.short	0x0000
100001d8:	e000ed08 	.word	0xe000ed08
100001dc:	200097e4 	.word	0x200097e4
100001e0:	2001fa6c 	.word	0x2001fa6c
100001e4:	200031fd 	.word	0x200031fd
100001e8:	20000225 	.word	0x20000225
100001ec:	200031f5 	.word	0x200031f5

Disassembly of section .text:

20000110 <_init>:
20000110:	b5f8      	push	{r3, r4, r5, r6, r7, lr}
20000112:	bf00      	nop

20000114 <deregister_tm_clones>:
20000114:	4803      	ldr	r0, [pc, #12]	@ (20000124 <deregister_tm_clones+0x10>)
20000116:	4b04      	ldr	r3, [pc, #16]	@ (20000128 <deregister_tm_clones+0x14>)
20000118:	4283      	cmp	r3, r0
2000011a:	d002      	beq.n	20000122 <deregister_tm_clones+0xe>
2000011c:	4b03      	ldr	r3, [pc, #12]	@ (2000012c <deregister_tm_clones+0x18>)
2000011e:	b103      	cbz	r3, 20000122 <deregister_tm_clones+0xe>
20000120:	4718      	bx	r3
20000122:	4770      	bx	lr
20000124:	200097e4 	.word	0x200097e4
20000128:	200097e4 	.word	0x200097e4
2000012c:	00000000 	.word	0x00000000

20000130 <register_tm_clones>:
20000130:	4b06      	ldr	r3, [pc, #24]	@ (2000014c <register_tm_clones+0x1c>)
20000132:	4907      	ldr	r1, [pc, #28]	@ (20000150 <register_tm_clones+0x20>)
20000134:	1ac9      	subs	r1, r1, r3
20000136:	1089      	asrs	r1, r1, #2
20000138:	bf48      	it	mi
2000013a:	3101      	addmi	r1, #1
2000013c:	1049      	asrs	r1, r1, #1
2000013e:	d003      	beq.n	20000148 <register_tm_clones+0x18>
20000140:	4b04      	ldr	r3, [pc, #16]	@ (20000154 <register_tm_clones+0x24>)
20000142:	b10b      	cbz	r3, 20000148 <register_tm_clones+0x18>
20000144:	4801      	ldr	r0, [pc, #4]	@ (2000014c <register_tm_clones+0x1c>)
20000146:	4718      	bx	r3
20000148:	4770      	bx	lr
2000014a:	bf00      	nop
2000014c:	200097e4 	.word	0x200097e4
20000150:	200097e4 	.word	0x200097e4
20000154:	00000000 	.word	0x00000000

20000158 <__do_global_dtors_aux>:
20000158:	b510      	push	{r4, lr}
2000015a:	4c06      	ldr	r4, [pc, #24]	@ (20000174 <__do_global_dtors_aux+0x1c>)
2000015c:	7823      	ldrb	r3, [r4, #0]
2000015e:	b943      	cbnz	r3, 20000172 <__do_global_dtors_aux+0x1a>
20000160:	f7ff ffd8 	bl	20000114 <deregister_tm_clones>
20000164:	4b04      	ldr	r3, [pc, #16]	@ (20000178 <__do_global_dtors_aux+0x20>)
20000166:	b113      	cbz	r3, 2000016e <__do_global_dtors_aux+0x16>
20000168:	4804      	ldr	r0, [pc, #16]	@ (2000017c <__do_global_dtors_aux+0x24>)
2000016a:	f3af 8000 	nop.w
2000016e:	2301      	movs	r3, #1
20000170:	7023      	strb	r3, [r4, #0]
20000172:	bd10      	pop	{r4, pc}
20000174:	2000aa30 	.word	0x2000aa30
20000178:	00000000 	.word	0x00000000
2000017c:	200084c0 	.word	0x200084c0

20000180 <frame_dummy>:
20000180:	b508      	push	{r3, lr}
20000182:	4b04      	ldr	r3, [pc, #16]	@ (20000194 <frame_dummy+0x14>)
20000184:	b11b      	cbz	r3, 2000018e <frame_dummy+0xe>
20000186:	4904      	ldr	r1, [pc, #16]	@ (20000198 <frame_dummy+0x18>)
20000188:	4804      	ldr	r0, [pc, #16]	@ (2000019c <frame_dummy+0x1c>)
2000018a:	f3af 8000 	nop.w
2000018e:	e8bd 4008 	ldmia.w	sp!, {r3, lr}
20000192:	e7cd      	b.n	20000130 <register_tm_clones>
20000194:	00000000 	.word	0x00000000
20000198:	2000aa34 	.word	0x2000aa34
2000019c:	200084c0 	.word	0x200084c0

200001a0 <bi_decl_config>:
200001a0:	4770      	bx	lr
200001a2:	bf00      	nop

200001a4 <usb_thread>:
200001a4:	b500      	push	{lr}
200001a6:	2019      	movs	r0, #25
200001a8:	b083      	sub	sp, #12
200001aa:	f002 fcbd 	bl	20002b28 <gpio_init>
200001ae:	f04f 0501 	mov.w	r5, #1
200001b2:	2319      	movs	r3, #25
200001b4:	ec45 3044 	gpioc_bit_oe_put r3, r5
200001b8:	f007 f8b8 	bl	2000732c <xTaskGetTickCount>
200001bc:	f04f 0400 	mov.w	r4, #0
200001c0:	9001      	str	r0, [sp, #4]
200001c2:	e009      	b.n	200001d8 <usb_thread+0x34>
200001c4:	2319      	movs	r3, #25
200001c6:	ec44 3040 	gpioc_bit_out_put r3, r4
200001ca:	f003 fc89 	bl	20003ae0 <tud_suspended>
200001ce:	b1e0      	cbz	r0, 2000020a <usb_thread+0x66>
200001d0:	2114      	movs	r1, #20
200001d2:	a801      	add	r0, sp, #4
200001d4:	f007 fa42 	bl	2000765c <xTaskDelayUntil>
200001d8:	2100      	movs	r1, #0
200001da:	f04f 30ff 	mov.w	r0, #4294967295	@ 0xffffffff
200001de:	f003 fd17 	bl	20003c10 <tud_task_ext>
200001e2:	f04f 4350 	mov.w	r3, #3489660928	@ 0xd0000000
200001e6:	685b      	ldr	r3, [r3, #4]
200001e8:	019b      	lsls	r3, r3, #6
200001ea:	d4eb      	bmi.n	200001c4 <usb_thread+0x20>
200001ec:	f003 fc70 	bl	20003ad0 <tud_mounted>
200001f0:	2800      	cmp	r0, #0
200001f2:	d0e7      	beq.n	200001c4 <usb_thread+0x20>
200001f4:	f003 fc74 	bl	20003ae0 <tud_suspended>
200001f8:	2800      	cmp	r0, #0
200001fa:	d1e3      	bne.n	200001c4 <usb_thread+0x20>
200001fc:	2319      	movs	r3, #25
200001fe:	ec45 3040 	gpioc_bit_out_put r3, r5
20000202:	f003 fc6d 	bl	20003ae0 <tud_suspended>
20000206:	2800      	cmp	r0, #0
20000208:	d1e2      	bne.n	200001d0 <usb_thread+0x2c>
2000020a:	f003 fc59 	bl	20003ac0 <tud_connected>
2000020e:	2800      	cmp	r0, #0
20000210:	d0de      	beq.n	200001d0 <usb_thread+0x2c>
20000212:	f003 fce9 	bl	20003be8 <tud_task_event_ready>
20000216:	2800      	cmp	r0, #0
20000218:	d1de      	bne.n	200001d8 <usb_thread+0x34>
2000021a:	2101      	movs	r1, #1
2000021c:	a801      	add	r0, sp, #4
2000021e:	f007 fa1d 	bl	2000765c <xTaskDelayUntil>
20000222:	e7d9      	b.n	200001d8 <usb_thread+0x34>

20000224 <main>:
20000224:	b530      	push	{r4, r5, lr}
20000226:	b083      	sub	sp, #12
20000228:	f7ff ffba 	bl	200001a0 <bi_decl_config>
2000022c:	f005 fcc2 	bl	20005bb4 <board_init>
20000230:	f000 fbba 	bl	200009a8 <usb_serial_init>
20000234:	f000 fa58 	bl	200006e8 <cdc_uart_init>
20000238:	2100      	movs	r1, #0
2000023a:	2402      	movs	r4, #2
2000023c:	4d0a      	ldr	r5, [pc, #40]	@ (20000268 <main+0x44>)
2000023e:	4608      	mov	r0, r1
20000240:	f005 f898 	bl	20005374 <tusb_rhport_init>
20000244:	f003 fa06 	bl	20003654 <stdio_uart_init>
20000248:	f001 fc44 	bl	20001ad4 <DAP_Setup>
2000024c:	2300      	movs	r3, #0
2000024e:	f44f 7280 	mov.w	r2, #256	@ 0x100
20000252:	4906      	ldr	r1, [pc, #24]	@ (2000026c <main+0x48>)
20000254:	e9cd 4500 	strd	r4, r5, [sp]
20000258:	4805      	ldr	r0, [pc, #20]	@ (20000270 <main+0x4c>)
2000025a:	f006 ff23 	bl	200070a4 <xTaskCreate>
2000025e:	f007 f825 	bl	200072ac <vTaskStartScheduler>
20000262:	2000      	movs	r0, #0
20000264:	b003      	add	sp, #12
20000266:	bd30      	pop	{r4, r5, pc}
20000268:	2000f934 	.word	0x2000f934
2000026c:	200091b8 	.word	0x200091b8
20000270:	200001a5 	.word	0x200001a5

20000274 <tud_hid_get_report_cb>:
20000274:	2000      	movs	r0, #0
20000276:	4770      	bx	lr

20000278 <tud_hid_set_report_cb>:
20000278:	b570      	push	{r4, r5, r6, lr}
2000027a:	4c09      	ldr	r4, [pc, #36]	@ (200002a0 <tud_hid_set_report_cb+0x28>)
2000027c:	4618      	mov	r0, r3
2000027e:	4621      	mov	r1, r4
20000280:	f8bd 5010 	ldrh.w	r5, [sp, #16]
20000284:	f000 fefc 	bl	20001080 <DAP_ProcessCommand>
20000288:	2100      	movs	r1, #0
2000028a:	2d40      	cmp	r5, #64	@ 0x40
2000028c:	462b      	mov	r3, r5
2000028e:	4622      	mov	r2, r4
20000290:	e8bd 4070 	ldmia.w	sp!, {r4, r5, r6, lr}
20000294:	bf28      	it	cs
20000296:	2340      	movcs	r3, #64	@ 0x40
20000298:	4608      	mov	r0, r1
2000029a:	f004 bd75 	b.w	20004d88 <tud_hid_n_report>
2000029e:	bf00      	nop
200002a0:	2000ac7c 	.word	0x2000ac7c

200002a4 <tud_vendor_control_xfer_cb>:
200002a4:	2901      	cmp	r1, #1
200002a6:	d106      	bne.n	200002b6 <tud_vendor_control_xfer_cb+0x12>
200002a8:	7813      	ldrb	r3, [r2, #0]
200002aa:	f3c3 1341 	ubfx	r3, r3, #5, #2
200002ae:	2b02      	cmp	r3, #2
200002b0:	d003      	beq.n	200002ba <tud_vendor_control_xfer_cb+0x16>
200002b2:	2000      	movs	r0, #0
200002b4:	4770      	bx	lr
200002b6:	2001      	movs	r0, #1
200002b8:	4770      	bx	lr
200002ba:	7853      	ldrb	r3, [r2, #1]
200002bc:	2b01      	cmp	r3, #1
200002be:	d1f8      	bne.n	200002b2 <tud_vendor_control_xfer_cb+0xe>
200002c0:	8893      	ldrh	r3, [r2, #4]
200002c2:	2b07      	cmp	r3, #7
200002c4:	d1f5      	bne.n	200002b2 <tud_vendor_control_xfer_cb+0xe>
200002c6:	4b03      	ldr	r3, [pc, #12]	@ (200002d4 <tud_vendor_control_xfer_cb+0x30>)
200002c8:	4611      	mov	r1, r2
200002ca:	461a      	mov	r2, r3
200002cc:	891b      	ldrh	r3, [r3, #8]
200002ce:	f004 b947 	b.w	20004560 <tud_control_xfer>
200002d2:	bf00      	nop
200002d4:	20009420 	.word	0x20009420

200002d8 <tud_suspend_cb>:
200002d8:	b508      	push	{r3, lr}
200002da:	4b07      	ldr	r3, [pc, #28]	@ (200002f8 <tud_suspend_cb+0x20>)
200002dc:	681b      	ldr	r3, [r3, #0]
200002de:	b903      	cbnz	r3, 200002e2 <tud_suspend_cb+0xa>
200002e0:	bd08      	pop	{r3, pc}
200002e2:	4b06      	ldr	r3, [pc, #24]	@ (200002fc <tud_suspend_cb+0x24>)
200002e4:	6818      	ldr	r0, [r3, #0]
200002e6:	f006 feef 	bl	200070c8 <vTaskSuspend>
200002ea:	4b05      	ldr	r3, [pc, #20]	@ (20000300 <tud_suspend_cb+0x28>)
200002ec:	6818      	ldr	r0, [r3, #0]
200002ee:	e8bd 4008 	ldmia.w	sp!, {r3, lr}
200002f2:	f006 bee9 	b.w	200070c8 <vTaskSuspend>
200002f6:	bf00      	nop
200002f8:	2001f9a0 	.word	0x2001f9a0
200002fc:	2000f96c 	.word	0x2000f96c
20000300:	2000f224 	.word	0x2000f224

20000304 <tud_resume_cb>:
20000304:	b508      	push	{r3, lr}
20000306:	4b07      	ldr	r3, [pc, #28]	@ (20000324 <tud_resume_cb+0x20>)
20000308:	681b      	ldr	r3, [r3, #0]
2000030a:	b903      	cbnz	r3, 2000030e <tud_resume_cb+0xa>
2000030c:	bd08      	pop	{r3, pc}
2000030e:	4b06      	ldr	r3, [pc, #24]	@ (20000328 <tud_resume_cb+0x24>)
20000310:	6818      	ldr	r0, [r3, #0]
20000312:	f006 ff7f 	bl	20007214 <vTaskResume>
20000316:	4b05      	ldr	r3, [pc, #20]	@ (2000032c <tud_resume_cb+0x28>)
20000318:	6818      	ldr	r0, [r3, #0]
2000031a:	e8bd 4008 	ldmia.w	sp!, {r3, lr}
2000031e:	f006 bf79 	b.w	20007214 <vTaskResume>
20000322:	bf00      	nop
20000324:	2001f9a0 	.word	0x2001f9a0
20000328:	2000f96c 	.word	0x2000f96c
2000032c:	2000f224 	.word	0x2000f224

20000330 <tud_mount_cb>:
20000330:	b5f0      	push	{r4, r5, r6, r7, lr}
20000332:	4d0f      	ldr	r5, [pc, #60]	@ (20000370 <tud_mount_cb+0x40>)
20000334:	b083      	sub	sp, #12
20000336:	682c      	ldr	r4, [r5, #0]
20000338:	b10c      	cbz	r4, 2000033e <tud_mount_cb+0xe>
2000033a:	b003      	add	sp, #12
2000033c:	bdf0      	pop	{r4, r5, r6, r7, pc}
2000033e:	2603      	movs	r6, #3
20000340:	9600      	str	r6, [sp, #0]
20000342:	2601      	movs	r6, #1
20000344:	4a0b      	ldr	r2, [pc, #44]	@ (20000374 <tud_mount_cb+0x44>)
20000346:	4f0c      	ldr	r7, [pc, #48]	@ (20000378 <tud_mount_cb+0x48>)
20000348:	4623      	mov	r3, r4
2000034a:	9201      	str	r2, [sp, #4]
2000034c:	490b      	ldr	r1, [pc, #44]	@ (2000037c <tud_mount_cb+0x4c>)
2000034e:	f44f 7280 	mov.w	r2, #256	@ 0x100
20000352:	480b      	ldr	r0, [pc, #44]	@ (20000380 <tud_mount_cb+0x50>)
20000354:	f006 fea6 	bl	200070a4 <xTaskCreate>
20000358:	f44f 7280 	mov.w	r2, #256	@ 0x100
2000035c:	4623      	mov	r3, r4
2000035e:	e9cd 6700 	strd	r6, r7, [sp]
20000362:	4908      	ldr	r1, [pc, #32]	@ (20000384 <tud_mount_cb+0x54>)
20000364:	4808      	ldr	r0, [pc, #32]	@ (20000388 <tud_mount_cb+0x58>)
20000366:	f006 fe9d 	bl	200070a4 <xTaskCreate>
2000036a:	602e      	str	r6, [r5, #0]
2000036c:	b003      	add	sp, #12
2000036e:	bdf0      	pop	{r4, r5, r6, r7, pc}
20000370:	2001f9a0 	.word	0x2001f9a0
20000374:	2000f96c 	.word	0x2000f96c
20000378:	2000f224 	.word	0x2000f224
2000037c:	200091bc 	.word	0x200091bc
20000380:	20000859 	.word	0x20000859
20000384:	200091c4 	.word	0x200091c4
20000388:	20000ee1 	.word	0x20000ee1

2000038c <vApplicationTickHook>:
2000038c:	4770      	bx	lr
2000038e:	bf00      	nop

20000390 <vApplicationStackOverflowHook>:
20000390:	b508      	push	{r3, lr}
20000392:	4802      	ldr	r0, [pc, #8]	@ (2000039c <vApplicationStackOverflowHook+0xc>)
20000394:	7809      	ldrb	r1, [r1, #0]
20000396:	f001 ffed 	bl	20002374 <panic>
2000039a:	bf00      	nop
2000039c:	200091c8 	.word	0x200091c8

200003a0 <vApplicationMallocFailedHook>:
200003a0:	b508      	push	{r3, lr}
200003a2:	4801      	ldr	r0, [pc, #4]	@ (200003a8 <vApplicationMallocFailedHook+0x8>)
200003a4:	f001 ffe6 	bl	20002374 <panic>
200003a8:	200091f8 	.word	0x200091f8

200003ac <tud_descriptor_device_cb>:
200003ac:	4800      	ldr	r0, [pc, #0]	@ (200003b0 <tud_descriptor_device_cb+0x4>)
200003ae:	4770      	bx	lr
200003b0:	20009520 	.word	0x20009520

200003b4 <tud_hid_descriptor_report_cb>:
200003b4:	4800      	ldr	r0, [pc, #0]	@ (200003b8 <tud_hid_descriptor_report_cb+0x4>)
200003b6:	4770      	bx	lr
200003b8:	200094fc 	.word	0x200094fc

200003bc <tud_descriptor_configuration_cb>:
200003bc:	2306      	movs	r3, #6
200003be:	4802      	ldr	r0, [pc, #8]	@ (200003c8 <tud_descriptor_configuration_cb+0xc>)
200003c0:	f880 303e 	strb.w	r3, [r0, #62]	@ 0x3e
200003c4:	4770      	bx	lr
200003c6:	bf00      	nop
200003c8:	2000967c 	.word	0x2000967c

200003cc <tud_descriptor_string_cb>:
200003cc:	b538      	push	{r3, r4, r5, lr}
200003ce:	b950      	cbnz	r0, 200003e6 <tud_descriptor_string_cb+0x1a>
200003d0:	f44f 7c41 	mov.w	ip, #772	@ 0x304
200003d4:	4b19      	ldr	r3, [pc, #100]	@ (2000043c <tud_descriptor_string_cb+0x70>)
200003d6:	4d1a      	ldr	r5, [pc, #104]	@ (20000440 <tud_descriptor_string_cb+0x74>)
200003d8:	681b      	ldr	r3, [r3, #0]
200003da:	881b      	ldrh	r3, [r3, #0]
200003dc:	806b      	strh	r3, [r5, #2]
200003de:	4818      	ldr	r0, [pc, #96]	@ (20000440 <tud_descriptor_string_cb+0x74>)
200003e0:	f8a5 c000 	strh.w	ip, [r5]
200003e4:	bd38      	pop	{r3, r4, r5, pc}
200003e6:	2806      	cmp	r0, #6
200003e8:	d825      	bhi.n	20000436 <tud_descriptor_string_cb+0x6a>
200003ea:	4b14      	ldr	r3, [pc, #80]	@ (2000043c <tud_descriptor_string_cb+0x70>)
200003ec:	4d14      	ldr	r5, [pc, #80]	@ (20000440 <tud_descriptor_string_cb+0x74>)
200003ee:	f853 4020 	ldr.w	r4, [r3, r0, lsl #2]
200003f2:	4620      	mov	r0, r4
200003f4:	f007 ffe4 	bl	200083c0 <strlen>
200003f8:	b2c0      	uxtb	r0, r0
200003fa:	281f      	cmp	r0, #31
200003fc:	4686      	mov	lr, r0
200003fe:	bf28      	it	cs
20000400:	f04f 0e1f 	movcs.w	lr, #31
20000404:	f10e 0c01 	add.w	ip, lr, #1
20000408:	fa5f fc8c 	uxtb.w	ip, ip
2000040c:	ea4f 0c4c 	mov.w	ip, ip, lsl #1
20000410:	f44c 7c40 	orr.w	ip, ip, #768	@ 0x300
20000414:	2800      	cmp	r0, #0
20000416:	d0e2      	beq.n	200003de <tud_descriptor_string_cb+0x12>
20000418:	462a      	mov	r2, r5
2000041a:	2300      	movs	r3, #0
2000041c:	1e60      	subs	r0, r4, #1
2000041e:	3301      	adds	r3, #1
20000420:	f810 1f01 	ldrb.w	r1, [r0, #1]!
20000424:	b2db      	uxtb	r3, r3
20000426:	459e      	cmp	lr, r3
20000428:	f822 1f02 	strh.w	r1, [r2, #2]!
2000042c:	d8f7      	bhi.n	2000041e <tud_descriptor_string_cb+0x52>
2000042e:	4804      	ldr	r0, [pc, #16]	@ (20000440 <tud_descriptor_string_cb+0x74>)
20000430:	f8a5 c000 	strh.w	ip, [r5]
20000434:	e7d6      	b.n	200003e4 <tud_descriptor_string_cb+0x18>
20000436:	2000      	movs	r0, #0
20000438:	bd38      	pop	{r3, r4, r5, pc}
2000043a:	bf00      	nop
2000043c:	20009660 	.word	0x20009660
20000440:	2000aeb0 	.word	0x2000aeb0

20000444 <tud_descriptor_bos_cb>:
20000444:	4800      	ldr	r0, [pc, #0]	@ (20000448 <tud_descriptor_bos_cb+0x4>)
20000446:	4770      	bx	lr
20000448:	200094d4 	.word	0x200094d4

2000044c <probe_set_swclk_freq>:
2000044c:	b510      	push	{r4, lr}
2000044e:	4604      	mov	r4, r0
20000450:	2005      	movs	r0, #5
20000452:	f002 fd07 	bl	20002e64 <clock_get_hz>
20000456:	4a0f      	ldr	r2, [pc, #60]	@ (20000494 <probe_set_swclk_freq+0x48>)
20000458:	1e63      	subs	r3, r4, #1
2000045a:	fba2 1200 	umull	r1, r2, r2, r0
2000045e:	eb03 1392 	add.w	r3, r3, r2, lsr #6
20000462:	fbb3 f0f4 	udiv	r0, r3, r4
20000466:	3003      	adds	r0, #3
20000468:	2803      	cmp	r0, #3
2000046a:	d907      	bls.n	2000047c <probe_set_swclk_freq+0x30>
2000046c:	f5b0 2f80 	cmp.w	r0, #262144	@ 0x40000
20000470:	d30a      	bcc.n	20000488 <probe_set_swclk_freq+0x3c>
20000472:	4809      	ldr	r0, [pc, #36]	@ (20000498 <probe_set_swclk_freq+0x4c>)
20000474:	4b09      	ldr	r3, [pc, #36]	@ (2000049c <probe_set_swclk_freq+0x50>)
20000476:	f8c3 00c8 	str.w	r0, [r3, #200]	@ 0xc8
2000047a:	bd10      	pop	{r4, pc}
2000047c:	f44f 3080 	mov.w	r0, #65536	@ 0x10000
20000480:	4b06      	ldr	r3, [pc, #24]	@ (2000049c <probe_set_swclk_freq+0x50>)
20000482:	f8c3 00c8 	str.w	r0, [r3, #200]	@ 0xc8
20000486:	bd10      	pop	{r4, pc}
20000488:	4b04      	ldr	r3, [pc, #16]	@ (2000049c <probe_set_swclk_freq+0x50>)
2000048a:	0880      	lsrs	r0, r0, #2
2000048c:	0400      	lsls	r0, r0, #16
2000048e:	f8c3 00c8 	str.w	r0, [r3, #200]	@ 0xc8
20000492:	bd10      	pop	{r4, pc}
20000494:	10624dd3 	.word	0x10624dd3
20000498:	ffff0000 	.word	0xffff0000
2000049c:	50200000 	.word	0x50200000

200004a0 <probe_write_bits>:
200004a0:	4b0a      	ldr	r3, [pc, #40]	@ (200004cc <probe_write_bits+0x2c>)
200004a2:	3801      	subs	r0, #1
200004a4:	681b      	ldr	r3, [r3, #0]
200004a6:	b2c0      	uxtb	r0, r0
200004a8:	b410      	push	{r4}
200004aa:	ea40 2043 	orr.w	r0, r0, r3, lsl #9
200004ae:	4c08      	ldr	r4, [pc, #32]	@ (200004d0 <probe_write_bits+0x30>)
200004b0:	f440 7080 	orr.w	r0, r0, #256	@ 0x100
200004b4:	6863      	ldr	r3, [r4, #4]
200004b6:	03da      	lsls	r2, r3, #15
200004b8:	d4fc      	bmi.n	200004b4 <probe_write_bits+0x14>
200004ba:	4a05      	ldr	r2, [pc, #20]	@ (200004d0 <probe_write_bits+0x30>)
200004bc:	6120      	str	r0, [r4, #16]
200004be:	6853      	ldr	r3, [r2, #4]
200004c0:	03db      	lsls	r3, r3, #15
200004c2:	d4fc      	bmi.n	200004be <probe_write_bits+0x1e>
200004c4:	f85d 4b04 	ldr.w	r4, [sp], #4
200004c8:	6111      	str	r1, [r2, #16]
200004ca:	4770      	bx	lr
200004cc:	2000f664 	.word	0x2000f664
200004d0:	50200000 	.word	0x50200000

200004d4 <probe_hiz_clocks>:
200004d4:	4b08      	ldr	r3, [pc, #32]	@ (200004f8 <probe_hiz_clocks+0x24>)
200004d6:	3801      	subs	r0, #1
200004d8:	681b      	ldr	r3, [r3, #0]
200004da:	b2c0      	uxtb	r0, r0
200004dc:	4907      	ldr	r1, [pc, #28]	@ (200004fc <probe_hiz_clocks+0x28>)
200004de:	ea40 2043 	orr.w	r0, r0, r3, lsl #9
200004e2:	684b      	ldr	r3, [r1, #4]
200004e4:	03db      	lsls	r3, r3, #15
200004e6:	d4fc      	bmi.n	200004e2 <probe_hiz_clocks+0xe>
200004e8:	4a04      	ldr	r2, [pc, #16]	@ (200004fc <probe_hiz_clocks+0x28>)
200004ea:	6108      	str	r0, [r1, #16]
200004ec:	6853      	ldr	r3, [r2, #4]
200004ee:	f413 3380 	ands.w	r3, r3, #65536	@ 0x10000
200004f2:	d1fb      	bne.n	200004ec <probe_hiz_clocks+0x18>
200004f4:	6113      	str	r3, [r2, #16]
200004f6:	4770      	bx	lr
200004f8:	2000f664 	.word	0x2000f664
200004fc:	50200000 	.word	0x50200000

20000500 <probe_read_bits>:
20000500:	4b0c      	ldr	r3, [pc, #48]	@ (20000534 <probe_read_bits+0x34>)
20000502:	4684      	mov	ip, r0
20000504:	681b      	ldr	r3, [r3, #0]
20000506:	3801      	subs	r0, #1
20000508:	3308      	adds	r3, #8
2000050a:	b2c0      	uxtb	r0, r0
2000050c:	490a      	ldr	r1, [pc, #40]	@ (20000538 <probe_read_bits+0x38>)
2000050e:	ea40 2043 	orr.w	r0, r0, r3, lsl #9
20000512:	684b      	ldr	r3, [r1, #4]
20000514:	03da      	lsls	r2, r3, #15
20000516:	d4fc      	bmi.n	20000512 <probe_read_bits+0x12>
20000518:	4a07      	ldr	r2, [pc, #28]	@ (20000538 <probe_read_bits+0x38>)
2000051a:	6108      	str	r0, [r1, #16]
2000051c:	6853      	ldr	r3, [r2, #4]
2000051e:	05db      	lsls	r3, r3, #23
20000520:	d4fc      	bmi.n	2000051c <probe_read_bits+0x1c>
20000522:	f1bc 0f1f 	cmp.w	ip, #31
20000526:	6a10      	ldr	r0, [r2, #32]
20000528:	bf9c      	itt	ls
2000052a:	f1cc 0c20 	rsbls	ip, ip, #32
2000052e:	fa20 f00c 	lsrls.w	r0, r0, ip
20000532:	4770      	bx	lr
20000534:	2000f664 	.word	0x2000f664
20000538:	50200000 	.word	0x50200000

2000053c <probe_read_mode>:
2000053c:	4b09      	ldr	r3, [pc, #36]	@ (20000564 <probe_read_mode+0x28>)
2000053e:	4a0a      	ldr	r2, [pc, #40]	@ (20000568 <probe_read_mode+0x2c>)
20000540:	6818      	ldr	r0, [r3, #0]
20000542:	3003      	adds	r0, #3
20000544:	0240      	lsls	r0, r0, #9
20000546:	f040 00ff 	orr.w	r0, r0, #255	@ 0xff
2000054a:	6853      	ldr	r3, [r2, #4]
2000054c:	03d9      	lsls	r1, r3, #15
2000054e:	d4fc      	bmi.n	2000054a <probe_read_mode+0xe>
20000550:	f04f 7380 	mov.w	r3, #16777216	@ 0x1000000
20000554:	4904      	ldr	r1, [pc, #16]	@ (20000568 <probe_read_mode+0x2c>)
20000556:	6110      	str	r0, [r2, #16]
20000558:	6093      	str	r3, [r2, #8]
2000055a:	688b      	ldr	r3, [r1, #8]
2000055c:	01db      	lsls	r3, r3, #7
2000055e:	d5fc      	bpl.n	2000055a <probe_read_mode+0x1e>
20000560:	4770      	bx	lr
20000562:	bf00      	nop
20000564:	2000f664 	.word	0x2000f664
20000568:	50200000 	.word	0x50200000

2000056c <probe_write_mode>:
2000056c:	f240 10ff 	movw	r0, #511	@ 0x1ff
20000570:	4b08      	ldr	r3, [pc, #32]	@ (20000594 <probe_write_mode+0x28>)
20000572:	4a09      	ldr	r2, [pc, #36]	@ (20000598 <probe_write_mode+0x2c>)
20000574:	681b      	ldr	r3, [r3, #0]
20000576:	3303      	adds	r3, #3
20000578:	ea40 2043 	orr.w	r0, r0, r3, lsl #9
2000057c:	6853      	ldr	r3, [r2, #4]
2000057e:	03d9      	lsls	r1, r3, #15
20000580:	d4fc      	bmi.n	2000057c <probe_write_mode+0x10>
20000582:	f04f 7380 	mov.w	r3, #16777216	@ 0x1000000
20000586:	4904      	ldr	r1, [pc, #16]	@ (20000598 <probe_write_mode+0x2c>)
20000588:	6110      	str	r0, [r2, #16]
2000058a:	6093      	str	r3, [r2, #8]
2000058c:	688b      	ldr	r3, [r1, #8]
2000058e:	01db      	lsls	r3, r3, #7
20000590:	d5fc      	bpl.n	2000058c <probe_write_mode+0x20>
20000592:	4770      	bx	lr
20000594:	2000f664 	.word	0x2000f664
20000598:	50200000 	.word	0x50200000

2000059c <probe_init>:
2000059c:	e92d 41f0 	stmdb	sp!, {r4, r5, r6, r7, r8, lr}
200005a0:	4c31      	ldr	r4, [pc, #196]	@ (20000668 <probe_init+0xcc>)
200005a2:	b086      	sub	sp, #24
200005a4:	6867      	ldr	r7, [r4, #4]
200005a6:	b117      	cbz	r7, 200005ae <probe_init+0x12>
200005a8:	b006      	add	sp, #24
200005aa:	e8bd 81f0 	ldmia.w	sp!, {r4, r5, r6, r7, r8, pc}
200005ae:	2106      	movs	r1, #6
200005b0:	2002      	movs	r0, #2
200005b2:	f002 fa87 	bl	20002ac4 <gpio_set_function>
200005b6:	2106      	movs	r1, #6
200005b8:	2003      	movs	r0, #3
200005ba:	f002 fa83 	bl	20002ac4 <gpio_set_function>
200005be:	463a      	mov	r2, r7
200005c0:	2101      	movs	r1, #1
200005c2:	2003      	movs	r0, #3
200005c4:	f002 fa9c 	bl	20002b00 <gpio_set_pulls>
200005c8:	4928      	ldr	r1, [pc, #160]	@ (2000066c <probe_init+0xd0>)
200005ca:	4829      	ldr	r0, [pc, #164]	@ (20000670 <probe_init+0xd4>)
200005cc:	f005 fb08 	bl	20005be0 <pio_add_program>
200005d0:	4680      	mov	r8, r0
200005d2:	f44f 2240 	mov.w	r2, #786432	@ 0xc0000
200005d6:	2302      	movs	r3, #2
200005d8:	2101      	movs	r1, #1
200005da:	f44f 3580 	mov.w	r5, #65536	@ 0x10000
200005de:	f108 0603 	add.w	r6, r8, #3
200005e2:	f108 0e0a 	add.w	lr, r8, #10
200005e6:	ea4f 1cc6 	mov.w	ip, r6, lsl #7
200005ea:	ea4c 3c0e 	orr.w	ip, ip, lr, lsl #12
200005ee:	9204      	str	r2, [sp, #16]
200005f0:	4a20      	ldr	r2, [pc, #128]	@ (20000674 <probe_init+0xd8>)
200005f2:	f02c 4cc0 	bic.w	ip, ip, #1610612736	@ 0x60000000
200005f6:	f04c 4c80 	orr.w	ip, ip, #1073741824	@ 0x40000000
200005fa:	9100      	str	r1, [sp, #0]
200005fc:	9205      	str	r2, [sp, #20]
200005fe:	4639      	mov	r1, r7
20000600:	461a      	mov	r2, r3
20000602:	481b      	ldr	r0, [pc, #108]	@ (20000670 <probe_init+0xd4>)
20000604:	f8c4 8000 	str.w	r8, [r4]
20000608:	f8cd c00c 	str.w	ip, [sp, #12]
2000060c:	9502      	str	r5, [sp, #8]
2000060e:	f005 fb7f 	bl	20005d10 <pio_sm_set_consecutive_pindirs>
20000612:	9b04      	ldr	r3, [sp, #16]
20000614:	4642      	mov	r2, r8
20000616:	f36f 431d 	bfc	r3, #16, #14
2000061a:	f443 2340 	orr.w	r3, r3, #786432	@ 0xc0000
2000061e:	4639      	mov	r1, r7
20000620:	9304      	str	r3, [sp, #16]
20000622:	4813      	ldr	r0, [pc, #76]	@ (20000670 <probe_init+0xd4>)
20000624:	ab02      	add	r3, sp, #8
20000626:	f005 fbb9 	bl	20005d9c <pio_sm_init>
2000062a:	2005      	movs	r0, #5
2000062c:	f002 fc1a 	bl	20002e64 <clock_get_hz>
20000630:	4a11      	ldr	r2, [pc, #68]	@ (20000678 <probe_init+0xdc>)
20000632:	fba2 1300 	umull	r1, r3, r2, r0
20000636:	099b      	lsrs	r3, r3, #6
20000638:	f203 33e7 	addw	r3, r3, #999	@ 0x3e7
2000063c:	fba2 2303 	umull	r2, r3, r2, r3
20000640:	099b      	lsrs	r3, r3, #6
20000642:	1cda      	adds	r2, r3, #3
20000644:	b963      	cbnz	r3, 20000660 <probe_init+0xc4>
20000646:	2101      	movs	r1, #1
20000648:	4b09      	ldr	r3, [pc, #36]	@ (20000670 <probe_init+0xd4>)
2000064a:	f8c3 50c8 	str.w	r5, [r3, #200]	@ 0xc8
2000064e:	f8c3 60d8 	str.w	r6, [r3, #216]	@ 0xd8
20000652:	681a      	ldr	r2, [r3, #0]
20000654:	430a      	orrs	r2, r1
20000656:	601a      	str	r2, [r3, #0]
20000658:	6061      	str	r1, [r4, #4]
2000065a:	b006      	add	sp, #24
2000065c:	e8bd 81f0 	ldmia.w	sp!, {r4, r5, r6, r7, r8, pc}
20000660:	0892      	lsrs	r2, r2, #2
20000662:	0415      	lsls	r5, r2, #16
20000664:	e7ef      	b.n	20000646 <probe_init+0xaa>
20000666:	bf00      	nop
20000668:	2000f664 	.word	0x2000f664
2000066c:	20009534 	.word	0x20009534
20000670:	50200000 	.word	0x50200000
20000674:	44118863 	.word	0x44118863
20000678:	10624dd3 	.word	0x10624dd3

2000067c <probe_deinit>:
2000067c:	b510      	push	{r4, lr}
2000067e:	4c17      	ldr	r4, [pc, #92]	@ (200006dc <probe_deinit+0x60>)
20000680:	6863      	ldr	r3, [r4, #4]
20000682:	b353      	cbz	r3, 200006da <probe_deinit+0x5e>
20000684:	6822      	ldr	r2, [r4, #0]
20000686:	4916      	ldr	r1, [pc, #88]	@ (200006e0 <probe_deinit+0x64>)
20000688:	1cd0      	adds	r0, r2, #3
2000068a:	0240      	lsls	r0, r0, #9
2000068c:	f040 00ff 	orr.w	r0, r0, #255	@ 0xff
20000690:	684b      	ldr	r3, [r1, #4]
20000692:	03db      	lsls	r3, r3, #15
20000694:	d4fc      	bmi.n	20000690 <probe_deinit+0x14>
20000696:	f04f 7380 	mov.w	r3, #16777216	@ 0x1000000
2000069a:	6108      	str	r0, [r1, #16]
2000069c:	4810      	ldr	r0, [pc, #64]	@ (200006e0 <probe_deinit+0x64>)
2000069e:	608b      	str	r3, [r1, #8]
200006a0:	6883      	ldr	r3, [r0, #8]
200006a2:	01db      	lsls	r3, r3, #7
200006a4:	d5fc      	bpl.n	200006a0 <probe_deinit+0x24>
200006a6:	6803      	ldr	r3, [r0, #0]
200006a8:	490e      	ldr	r1, [pc, #56]	@ (200006e4 <probe_deinit+0x68>)
200006aa:	f023 0301 	bic.w	r3, r3, #1
200006ae:	6003      	str	r3, [r0, #0]
200006b0:	480b      	ldr	r0, [pc, #44]	@ (200006e0 <probe_deinit+0x64>)
200006b2:	f005 fb11 	bl	20005cd8 <pio_remove_program>
200006b6:	2002      	movs	r0, #2
200006b8:	f002 fa5a 	bl	20002b70 <gpio_deinit>
200006bc:	2200      	movs	r2, #0
200006be:	2002      	movs	r0, #2
200006c0:	4611      	mov	r1, r2
200006c2:	f002 fa1d 	bl	20002b00 <gpio_set_pulls>
200006c6:	2003      	movs	r0, #3
200006c8:	f002 fa52 	bl	20002b70 <gpio_deinit>
200006cc:	2200      	movs	r2, #0
200006ce:	2003      	movs	r0, #3
200006d0:	4611      	mov	r1, r2
200006d2:	f002 fa15 	bl	20002b00 <gpio_set_pulls>
200006d6:	2300      	movs	r3, #0
200006d8:	6063      	str	r3, [r4, #4]
200006da:	bd10      	pop	{r4, pc}
200006dc:	2000f664 	.word	0x2000f664
200006e0:	50200000 	.word	0x50200000
200006e4:	20009534 	.word	0x20009534

200006e8 <cdc_uart_init>:
200006e8:	b508      	push	{r3, lr}
200006ea:	2102      	movs	r1, #2
200006ec:	2004      	movs	r0, #4
200006ee:	f002 f9e9 	bl	20002ac4 <gpio_set_function>
200006f2:	2102      	movs	r1, #2
200006f4:	2005      	movs	r0, #5
200006f6:	f002 f9e5 	bl	20002ac4 <gpio_set_function>
200006fa:	2200      	movs	r2, #0
200006fc:	2101      	movs	r1, #1
200006fe:	2004      	movs	r0, #4
20000700:	f002 f9fe 	bl	20002b00 <gpio_set_pulls>
20000704:	2101      	movs	r1, #1
20000706:	2005      	movs	r0, #5
20000708:	2200      	movs	r2, #0
2000070a:	f002 f9f9 	bl	20002b00 <gpio_set_pulls>
2000070e:	e8bd 4008 	ldmia.w	sp!, {r3, lr}
20000712:	f44f 31e1 	mov.w	r1, #115200	@ 0x1c200
20000716:	4801      	ldr	r0, [pc, #4]	@ (2000071c <cdc_uart_init+0x34>)
20000718:	f002 ba4a 	b.w	20002bb0 <uart_init>
2000071c:	40078000 	.word	0x40078000

20000720 <cdc_task>:
20000720:	4946      	ldr	r1, [pc, #280]	@ (2000083c <cdc_task+0x11c>)
20000722:	b570      	push	{r4, r5, r6, lr}
20000724:	698c      	ldr	r4, [r1, #24]
20000726:	f014 0410 	ands.w	r4, r4, #16
2000072a:	d134      	bne.n	20000796 <cdc_task+0x76>
2000072c:	4a44      	ldr	r2, [pc, #272]	@ (20000840 <cdc_task+0x120>)
2000072e:	3401      	adds	r4, #1
20000730:	698b      	ldr	r3, [r1, #24]
20000732:	06dd      	lsls	r5, r3, #27
20000734:	d4fc      	bmi.n	20000730 <cdc_task+0x10>
20000736:	680b      	ldr	r3, [r1, #0]
20000738:	f802 3b01 	strb.w	r3, [r2], #1
2000073c:	698b      	ldr	r3, [r1, #24]
2000073e:	06d8      	lsls	r0, r3, #27
20000740:	d401      	bmi.n	20000746 <cdc_task+0x26>
20000742:	2c20      	cmp	r4, #32
20000744:	d1f3      	bne.n	2000072e <cdc_task+0xe>
20000746:	2000      	movs	r0, #0
20000748:	f004 f838 	bl	200047bc <tud_cdc_n_connected>
2000074c:	b340      	cbz	r0, 200007a0 <cdc_task+0x80>
2000074e:	2201      	movs	r2, #1
20000750:	4b3c      	ldr	r3, [pc, #240]	@ (20000844 <cdc_task+0x124>)
20000752:	2000      	movs	r0, #0
20000754:	601a      	str	r2, [r3, #0]
20000756:	f004 f945 	bl	200049e4 <tud_cdc_n_write_available>
2000075a:	4284      	cmp	r4, r0
2000075c:	d85b      	bhi.n	20000816 <cdc_task+0xf6>
2000075e:	4622      	mov	r2, r4
20000760:	2000      	movs	r0, #0
20000762:	4937      	ldr	r1, [pc, #220]	@ (20000840 <cdc_task+0x120>)
20000764:	f004 f91e 	bl	200049a4 <tud_cdc_n_write>
20000768:	2000      	movs	r0, #0
2000076a:	f004 f8d1 	bl	20004910 <tud_cdc_n_write_flush>
2000076e:	2000      	movs	r0, #0
20000770:	f004 f83a 	bl	200047e8 <tud_cdc_n_available>
20000774:	281f      	cmp	r0, #31
20000776:	d825      	bhi.n	200007c4 <cdc_task+0xa4>
20000778:	2000      	movs	r0, #0
2000077a:	f004 f835 	bl	200047e8 <tud_cdc_n_available>
2000077e:	4602      	mov	r2, r0
20000780:	2800      	cmp	r0, #0
20000782:	d144      	bne.n	2000080e <cdc_task+0xee>
20000784:	4d30      	ldr	r5, [pc, #192]	@ (20000848 <cdc_task+0x128>)
20000786:	782b      	ldrb	r3, [r5, #0]
20000788:	f003 04ff 	and.w	r4, r3, #255	@ 0xff
2000078c:	2b00      	cmp	r3, #0
2000078e:	d132      	bne.n	200007f6 <cdc_task+0xd6>
20000790:	2400      	movs	r4, #0
20000792:	4620      	mov	r0, r4
20000794:	bd70      	pop	{r4, r5, r6, pc}
20000796:	2000      	movs	r0, #0
20000798:	f004 f810 	bl	200047bc <tud_cdc_n_connected>
2000079c:	2800      	cmp	r0, #0
2000079e:	d148      	bne.n	20000832 <cdc_task+0x112>
200007a0:	4c28      	ldr	r4, [pc, #160]	@ (20000844 <cdc_task+0x124>)
200007a2:	6823      	ldr	r3, [r4, #0]
200007a4:	2b00      	cmp	r3, #0
200007a6:	d0f3      	beq.n	20000790 <cdc_task+0x70>
200007a8:	2000      	movs	r0, #0
200007aa:	f004 f927 	bl	200049fc <tud_cdc_n_write_clear>
200007ae:	2100      	movs	r1, #0
200007b0:	4822      	ldr	r0, [pc, #136]	@ (2000083c <cdc_task+0x11c>)
200007b2:	f002 fac5 	bl	20002d40 <uart_set_break>
200007b6:	2300      	movs	r3, #0
200007b8:	4923      	ldr	r1, [pc, #140]	@ (20000848 <cdc_task+0x128>)
200007ba:	4a24      	ldr	r2, [pc, #144]	@ (2000084c <cdc_task+0x12c>)
200007bc:	700b      	strb	r3, [r1, #0]
200007be:	6023      	str	r3, [r4, #0]
200007c0:	6013      	str	r3, [r2, #0]
200007c2:	e7e5      	b.n	20000790 <cdc_task+0x70>
200007c4:	2210      	movs	r2, #16
200007c6:	4d22      	ldr	r5, [pc, #136]	@ (20000850 <cdc_task+0x130>)
200007c8:	2000      	movs	r0, #0
200007ca:	4629      	mov	r1, r5
200007cc:	f004 f818 	bl	20004800 <tud_cdc_n_read>
200007d0:	2800      	cmp	r0, #0
200007d2:	d0d7      	beq.n	20000784 <cdc_task+0x64>
200007d4:	462c      	mov	r4, r5
200007d6:	4a19      	ldr	r2, [pc, #100]	@ (2000083c <cdc_task+0x11c>)
200007d8:	1829      	adds	r1, r5, r0
200007da:	6993      	ldr	r3, [r2, #24]
200007dc:	069b      	lsls	r3, r3, #26
200007de:	d4fc      	bmi.n	200007da <cdc_task+0xba>
200007e0:	f814 3b01 	ldrb.w	r3, [r4], #1
200007e4:	428c      	cmp	r4, r1
200007e6:	6013      	str	r3, [r2, #0]
200007e8:	d1f7      	bne.n	200007da <cdc_task+0xba>
200007ea:	4d17      	ldr	r5, [pc, #92]	@ (20000848 <cdc_task+0x128>)
200007ec:	782b      	ldrb	r3, [r5, #0]
200007ee:	f003 04ff 	and.w	r4, r3, #255	@ 0xff
200007f2:	2b00      	cmp	r3, #0
200007f4:	d0cc      	beq.n	20000790 <cdc_task+0x70>
200007f6:	4b17      	ldr	r3, [pc, #92]	@ (20000854 <cdc_task+0x134>)
200007f8:	681e      	ldr	r6, [r3, #0]
200007fa:	f006 fd97 	bl	2000732c <xTaskGetTickCount>
200007fe:	4286      	cmp	r6, r0
20000800:	dac7      	bge.n	20000792 <cdc_task+0x72>
20000802:	2100      	movs	r1, #0
20000804:	480d      	ldr	r0, [pc, #52]	@ (2000083c <cdc_task+0x11c>)
20000806:	7029      	strb	r1, [r5, #0]
20000808:	f002 fa9a 	bl	20002d40 <uart_set_break>
2000080c:	e7c0      	b.n	20000790 <cdc_task+0x70>
2000080e:	2810      	cmp	r0, #16
20000810:	bf28      	it	cs
20000812:	2210      	movcs	r2, #16
20000814:	e7d7      	b.n	200007c6 <cdc_task+0xa6>
20000816:	2000      	movs	r0, #0
20000818:	f004 f8e4 	bl	200049e4 <tud_cdc_n_write_available>
2000081c:	4284      	cmp	r4, r0
2000081e:	4603      	mov	r3, r0
20000820:	d903      	bls.n	2000082a <cdc_task+0x10a>
20000822:	490a      	ldr	r1, [pc, #40]	@ (2000084c <cdc_task+0x12c>)
20000824:	680a      	ldr	r2, [r1, #0]
20000826:	3201      	adds	r2, #1
20000828:	600a      	str	r2, [r1, #0]
2000082a:	2b00      	cmp	r3, #0
2000082c:	dd9f      	ble.n	2000076e <cdc_task+0x4e>
2000082e:	461c      	mov	r4, r3
20000830:	e795      	b.n	2000075e <cdc_task+0x3e>
20000832:	2201      	movs	r2, #1
20000834:	4b03      	ldr	r3, [pc, #12]	@ (20000844 <cdc_task+0x124>)
20000836:	601a      	str	r2, [r3, #0]
20000838:	e799      	b.n	2000076e <cdc_task+0x4e>
2000083a:	bf00      	nop
2000083c:	40078000 	.word	0x40078000
20000840:	2000f910 	.word	0x2000f910
20000844:	2001f9a4 	.word	0x2001f9a4
20000848:	2001fa6b 	.word	0x2001fa6b
2000084c:	2000f1e8 	.word	0x2000f1e8
20000850:	2000f938 	.word	0x2000f938
20000854:	2000f1e0 	.word	0x2000f1e0

20000858 <cdc_thread>:
20000858:	b538      	push	{r3, r4, r5, lr}
2000085a:	f006 fd67 	bl	2000732c <xTaskGetTickCount>
2000085e:	4c08      	ldr	r4, [pc, #32]	@ (20000880 <cdc_thread+0x28>)
20000860:	4d08      	ldr	r5, [pc, #32]	@ (20000884 <cdc_thread+0x2c>)
20000862:	6020      	str	r0, [r4, #0]
20000864:	f7ff ff5c 	bl	20000720 <cdc_task>
20000868:	2800      	cmp	r0, #0
2000086a:	d1fb      	bne.n	20000864 <cdc_thread+0xc>
2000086c:	4620      	mov	r0, r4
2000086e:	6829      	ldr	r1, [r5, #0]
20000870:	f006 fef4 	bl	2000765c <xTaskDelayUntil>
20000874:	2800      	cmp	r0, #0
20000876:	d1f5      	bne.n	20000864 <cdc_thread+0xc>
20000878:	f006 fd58 	bl	2000732c <xTaskGetTickCount>
2000087c:	e7f1      	b.n	20000862 <cdc_thread+0xa>
2000087e:	bf00      	nop
20000880:	2000f638 	.word	0x2000f638
20000884:	200096e0 	.word	0x200096e0

20000888 <tud_cdc_line_coding_cb>:
20000888:	b538      	push	{r3, r4, r5, lr}
2000088a:	680b      	ldr	r3, [r1, #0]
2000088c:	4d26      	ldr	r5, [pc, #152]	@ (20000928 <tud_cdc_line_coding_cb+0xa0>)
2000088e:	2b01      	cmp	r3, #1
20000890:	bf38      	it	cc
20000892:	2301      	movcc	r3, #1
20000894:	2000      	movs	r0, #0
20000896:	460c      	mov	r4, r1
20000898:	fbb5 f5f3 	udiv	r5, r5, r3
2000089c:	f003 ff8e 	bl	200047bc <tud_cdc_n_connected>
200008a0:	2800      	cmp	r0, #0
200008a2:	d135      	bne.n	20000910 <tud_cdc_line_coding_cb+0x88>
200008a4:	2d31      	cmp	r5, #49	@ 0x31
200008a6:	bf94      	ite	ls
200008a8:	2501      	movls	r5, #1
200008aa:	4b20      	ldrhi	r3, [pc, #128]	@ (2000092c <tud_cdc_line_coding_cb+0xa4>)
200008ac:	4820      	ldr	r0, [pc, #128]	@ (20000930 <tud_cdc_line_coding_cb+0xa8>)
200008ae:	bf88      	it	hi
200008b0:	fba3 3505 	umullhi	r3, r5, r3, r5
200008b4:	4b1f      	ldr	r3, [pc, #124]	@ (20000934 <tud_cdc_line_coding_cb+0xac>)
200008b6:	bf88      	it	hi
200008b8:	092d      	lsrhi	r5, r5, #4
200008ba:	601d      	str	r5, [r3, #0]
200008bc:	f002 f9fa 	bl	20002cb4 <uart_deinit>
200008c0:	2000      	movs	r0, #0
200008c2:	f004 f89b 	bl	200049fc <tud_cdc_n_write_clear>
200008c6:	2000      	movs	r0, #0
200008c8:	f003 ffe2 	bl	20004890 <tud_cdc_n_read_flush>
200008cc:	6821      	ldr	r1, [r4, #0]
200008ce:	4818      	ldr	r0, [pc, #96]	@ (20000930 <tud_cdc_line_coding_cb+0xa8>)
200008d0:	f002 f96e 	bl	20002bb0 <uart_init>
200008d4:	7963      	ldrb	r3, [r4, #5]
200008d6:	79a1      	ldrb	r1, [r4, #6]
200008d8:	2b01      	cmp	r3, #1
200008da:	bf1c      	itt	ne
200008dc:	3b02      	subne	r3, #2
200008de:	fab3 f383 	clzne	r3, r3
200008e2:	7922      	ldrb	r2, [r4, #4]
200008e4:	f1a1 0005 	sub.w	r0, r1, #5
200008e8:	f102 32ff 	add.w	r2, r2, #4294967295	@ 0xffffffff
200008ec:	bf0c      	ite	eq
200008ee:	2302      	moveq	r3, #2
200008f0:	095b      	lsrne	r3, r3, #5
200008f2:	2804      	cmp	r0, #4
200008f4:	bf28      	it	cs
200008f6:	2108      	movcs	r1, #8
200008f8:	2a01      	cmp	r2, #1
200008fa:	bf8c      	ite	hi
200008fc:	2201      	movhi	r2, #1
200008fe:	2202      	movls	r2, #2
20000900:	480b      	ldr	r0, [pc, #44]	@ (20000930 <tud_cdc_line_coding_cb+0xa8>)
20000902:	f002 f9e5 	bl	20002cd0 <uart_set_format>
20000906:	2000      	movs	r0, #0
20000908:	f003 ff58 	bl	200047bc <tud_cdc_n_connected>
2000090c:	b928      	cbnz	r0, 2000091a <tud_cdc_line_coding_cb+0x92>
2000090e:	bd38      	pop	{r3, r4, r5, pc}
20000910:	4b09      	ldr	r3, [pc, #36]	@ (20000938 <tud_cdc_line_coding_cb+0xb0>)
20000912:	6818      	ldr	r0, [r3, #0]
20000914:	f006 fbd8 	bl	200070c8 <vTaskSuspend>
20000918:	e7c4      	b.n	200008a4 <tud_cdc_line_coding_cb+0x1c>
2000091a:	4b07      	ldr	r3, [pc, #28]	@ (20000938 <tud_cdc_line_coding_cb+0xb0>)
2000091c:	6818      	ldr	r0, [r3, #0]
2000091e:	e8bd 4038 	ldmia.w	sp!, {r3, r4, r5, lr}
20000922:	f006 bc77 	b.w	20007214 <vTaskResume>
20000926:	bf00      	nop
20000928:	09896800 	.word	0x09896800
2000092c:	51eb851f 	.word	0x51eb851f
20000930:	40078000 	.word	0x40078000
20000934:	200096e0 	.word	0x200096e0
20000938:	2000f96c 	.word	0x2000f96c

2000093c <tud_cdc_line_state_cb>:
2000093c:	4b03      	ldr	r3, [pc, #12]	@ (2000094c <tud_cdc_line_state_cb+0x10>)
2000093e:	6818      	ldr	r0, [r3, #0]
20000940:	b909      	cbnz	r1, 20000946 <tud_cdc_line_state_cb+0xa>
20000942:	f006 bbc1 	b.w	200070c8 <vTaskSuspend>
20000946:	f006 bc65 	b.w	20007214 <vTaskResume>
2000094a:	bf00      	nop
2000094c:	2000f96c 	.word	0x2000f96c

20000950 <tud_cdc_send_break_cb>:
20000950:	b510      	push	{r4, lr}
20000952:	460c      	mov	r4, r1
20000954:	b1d9      	cbz	r1, 2000098e <tud_cdc_send_break_cb+0x3e>
20000956:	f64f 73ff 	movw	r3, #65535	@ 0xffff
2000095a:	4299      	cmp	r1, r3
2000095c:	d00f      	beq.n	2000097e <tud_cdc_send_break_cb+0x2e>
2000095e:	2101      	movs	r1, #1
20000960:	480e      	ldr	r0, [pc, #56]	@ (2000099c <tud_cdc_send_break_cb+0x4c>)
20000962:	f002 f9ed 	bl	20002d40 <uart_set_break>
20000966:	2201      	movs	r2, #1
20000968:	4b0d      	ldr	r3, [pc, #52]	@ (200009a0 <tud_cdc_send_break_cb+0x50>)
2000096a:	eb04 0484 	add.w	r4, r4, r4, lsl #2
2000096e:	701a      	strb	r2, [r3, #0]
20000970:	f006 fcdc 	bl	2000732c <xTaskGetTickCount>
20000974:	4b0b      	ldr	r3, [pc, #44]	@ (200009a4 <tud_cdc_send_break_cb+0x54>)
20000976:	eb00 0084 	add.w	r0, r0, r4, lsl #2
2000097a:	6018      	str	r0, [r3, #0]
2000097c:	bd10      	pop	{r4, pc}
2000097e:	2101      	movs	r1, #1
20000980:	4806      	ldr	r0, [pc, #24]	@ (2000099c <tud_cdc_send_break_cb+0x4c>)
20000982:	f002 f9dd 	bl	20002d40 <uart_set_break>
20000986:	2200      	movs	r2, #0
20000988:	4b05      	ldr	r3, [pc, #20]	@ (200009a0 <tud_cdc_send_break_cb+0x50>)
2000098a:	701a      	strb	r2, [r3, #0]
2000098c:	bd10      	pop	{r4, pc}
2000098e:	4803      	ldr	r0, [pc, #12]	@ (2000099c <tud_cdc_send_break_cb+0x4c>)
20000990:	f002 f9d6 	bl	20002d40 <uart_set_break>
20000994:	4b02      	ldr	r3, [pc, #8]	@ (200009a0 <tud_cdc_send_break_cb+0x50>)
20000996:	701c      	strb	r4, [r3, #0]
20000998:	bd10      	pop	{r4, pc}
2000099a:	bf00      	nop
2000099c:	40078000 	.word	0x40078000
200009a0:	2001fa6b 	.word	0x2001fa6b
200009a4:	2000f1e0 	.word	0x2000f1e0

200009a8 <usb_serial_init>:
200009a8:	b510      	push	{r4, lr}
200009aa:	4c59      	ldr	r4, [pc, #356]	@ (20000b10 <usb_serial_init+0x168>)
200009ac:	4620      	mov	r0, r4
200009ae:	f002 feb9 	bl	20003724 <pico_get_unique_board_id>
200009b2:	2000      	movs	r0, #0
200009b4:	7823      	ldrb	r3, [r4, #0]
200009b6:	7020      	strb	r0, [r4, #0]
200009b8:	0919      	lsrs	r1, r3, #4
200009ba:	2b9f      	cmp	r3, #159	@ 0x9f
200009bc:	ea4f 1203 	mov.w	r2, r3, lsl #4
200009c0:	4b54      	ldr	r3, [pc, #336]	@ (20000b14 <usb_serial_init+0x16c>)
200009c2:	b2d2      	uxtb	r2, r2
200009c4:	bf8c      	ite	hi
200009c6:	3137      	addhi	r1, #55	@ 0x37
200009c8:	3130      	addls	r1, #48	@ 0x30
200009ca:	7860      	ldrb	r0, [r4, #1]
200009cc:	2a9f      	cmp	r2, #159	@ 0x9f
200009ce:	7019      	strb	r1, [r3, #0]
200009d0:	ea4f 1112 	mov.w	r1, r2, lsr #4
200009d4:	bf8c      	ite	hi
200009d6:	f101 0237 	addhi.w	r2, r1, #55	@ 0x37
200009da:	f101 0230 	addls.w	r2, r1, #48	@ 0x30
200009de:	705a      	strb	r2, [r3, #1]
200009e0:	0901      	lsrs	r1, r0, #4
200009e2:	289f      	cmp	r0, #159	@ 0x9f
200009e4:	ea4f 1200 	mov.w	r2, r0, lsl #4
200009e8:	f04f 0000 	mov.w	r0, #0
200009ec:	b2d2      	uxtb	r2, r2
200009ee:	bf8c      	ite	hi
200009f0:	3137      	addhi	r1, #55	@ 0x37
200009f2:	3130      	addls	r1, #48	@ 0x30
200009f4:	7099      	strb	r1, [r3, #2]
200009f6:	2a9f      	cmp	r2, #159	@ 0x9f
200009f8:	ea4f 1112 	mov.w	r1, r2, lsr #4
200009fc:	7060      	strb	r0, [r4, #1]
200009fe:	78a0      	ldrb	r0, [r4, #2]
20000a00:	bf8c      	ite	hi
20000a02:	f101 0237 	addhi.w	r2, r1, #55	@ 0x37
20000a06:	f101 0230 	addls.w	r2, r1, #48	@ 0x30
20000a0a:	70da      	strb	r2, [r3, #3]
20000a0c:	0901      	lsrs	r1, r0, #4
20000a0e:	289f      	cmp	r0, #159	@ 0x9f
20000a10:	ea4f 1200 	mov.w	r2, r0, lsl #4
20000a14:	f04f 0000 	mov.w	r0, #0
20000a18:	b2d2      	uxtb	r2, r2
20000a1a:	bf8c      	ite	hi
20000a1c:	3137      	addhi	r1, #55	@ 0x37
20000a1e:	3130      	addls	r1, #48	@ 0x30
20000a20:	7119      	strb	r1, [r3, #4]
20000a22:	2a9f      	cmp	r2, #159	@ 0x9f
20000a24:	ea4f 1112 	mov.w	r1, r2, lsr #4
20000a28:	70a0      	strb	r0, [r4, #2]
20000a2a:	78e0      	ldrb	r0, [r4, #3]
20000a2c:	bf8c      	ite	hi
20000a2e:	f101 0237 	addhi.w	r2, r1, #55	@ 0x37
20000a32:	f101 0230 	addls.w	r2, r1, #48	@ 0x30
20000a36:	715a      	strb	r2, [r3, #5]
20000a38:	0901      	lsrs	r1, r0, #4
20000a3a:	289f      	cmp	r0, #159	@ 0x9f
20000a3c:	ea4f 1200 	mov.w	r2, r0, lsl #4
20000a40:	f04f 0000 	mov.w	r0, #0
20000a44:	b2d2      	uxtb	r2, r2
20000a46:	bf8c      	ite	hi
20000a48:	3137      	addhi	r1, #55	@ 0x37
20000a4a:	3130      	addls	r1, #48	@ 0x30
20000a4c:	7199      	strb	r1, [r3, #6]
20000a4e:	2a9f      	cmp	r2, #159	@ 0x9f
20000a50:	ea4f 1112 	mov.w	r1, r2, lsr #4
20000a54:	70e0      	strb	r0, [r4, #3]
20000a56:	7920      	ldrb	r0, [r4, #4]
20000a58:	bf8c      	ite	hi
20000a5a:	f101 0237 	addhi.w	r2, r1, #55	@ 0x37
20000a5e:	f101 0230 	addls.w	r2, r1, #48	@ 0x30
20000a62:	71da      	strb	r2, [r3, #7]
20000a64:	0901      	lsrs	r1, r0, #4
20000a66:	289f      	cmp	r0, #159	@ 0x9f
20000a68:	ea4f 1200 	mov.w	r2, r0, lsl #4
20000a6c:	f04f 0000 	mov.w	r0, #0
20000a70:	b2d2      	uxtb	r2, r2
20000a72:	bf8c      	ite	hi
20000a74:	3137      	addhi	r1, #55	@ 0x37
20000a76:	3130      	addls	r1, #48	@ 0x30
20000a78:	7219      	strb	r1, [r3, #8]
20000a7a:	2a9f      	cmp	r2, #159	@ 0x9f
20000a7c:	ea4f 1112 	mov.w	r1, r2, lsr #4
20000a80:	7120      	strb	r0, [r4, #4]
20000a82:	7960      	ldrb	r0, [r4, #5]
20000a84:	bf8c      	ite	hi
20000a86:	f101 0237 	addhi.w	r2, r1, #55	@ 0x37
20000a8a:	f101 0230 	addls.w	r2, r1, #48	@ 0x30
20000a8e:	725a      	strb	r2, [r3, #9]
20000a90:	0901      	lsrs	r1, r0, #4
20000a92:	289f      	cmp	r0, #159	@ 0x9f
20000a94:	ea4f 1200 	mov.w	r2, r0, lsl #4
20000a98:	f04f 0000 	mov.w	r0, #0
20000a9c:	b2d2      	uxtb	r2, r2
20000a9e:	bf8c      	ite	hi
20000aa0:	3137      	addhi	r1, #55	@ 0x37
20000aa2:	3130      	addls	r1, #48	@ 0x30
20000aa4:	7299      	strb	r1, [r3, #10]
20000aa6:	2a9f      	cmp	r2, #159	@ 0x9f
20000aa8:	ea4f 1112 	mov.w	r1, r2, lsr #4
20000aac:	7160      	strb	r0, [r4, #5]
20000aae:	79a0      	ldrb	r0, [r4, #6]
20000ab0:	bf8c      	ite	hi
20000ab2:	f101 0237 	addhi.w	r2, r1, #55	@ 0x37
20000ab6:	f101 0230 	addls.w	r2, r1, #48	@ 0x30
20000aba:	72da      	strb	r2, [r3, #11]
20000abc:	0901      	lsrs	r1, r0, #4
20000abe:	289f      	cmp	r0, #159	@ 0x9f
20000ac0:	ea4f 1200 	mov.w	r2, r0, lsl #4
20000ac4:	f04f 0000 	mov.w	r0, #0
20000ac8:	b2d2      	uxtb	r2, r2
20000aca:	bf8c      	ite	hi
20000acc:	3137      	addhi	r1, #55	@ 0x37
20000ace:	3130      	addls	r1, #48	@ 0x30
20000ad0:	7319      	strb	r1, [r3, #12]
20000ad2:	2a9f      	cmp	r2, #159	@ 0x9f
20000ad4:	ea4f 1112 	mov.w	r1, r2, lsr #4
20000ad8:	71a0      	strb	r0, [r4, #6]
20000ada:	79e0      	ldrb	r0, [r4, #7]
20000adc:	bf8c      	ite	hi
20000ade:	f101 0237 	addhi.w	r2, r1, #55	@ 0x37
20000ae2:	f101 0230 	addls.w	r2, r1, #48	@ 0x30
20000ae6:	735a      	strb	r2, [r3, #13]
20000ae8:	0901      	lsrs	r1, r0, #4
20000aea:	289f      	cmp	r0, #159	@ 0x9f
20000aec:	ea4f 1200 	mov.w	r2, r0, lsl #4
20000af0:	f04f 0000 	mov.w	r0, #0
20000af4:	bf8c      	ite	hi
20000af6:	3137      	addhi	r1, #55	@ 0x37
20000af8:	3130      	addls	r1, #48	@ 0x30
20000afa:	b2d2      	uxtb	r2, r2
20000afc:	2a9f      	cmp	r2, #159	@ 0x9f
20000afe:	7399      	strb	r1, [r3, #14]
20000b00:	ea4f 1112 	mov.w	r1, r2, lsr #4
20000b04:	bf94      	ite	ls
20000b06:	3130      	addls	r1, #48	@ 0x30
20000b08:	3137      	addhi	r1, #55	@ 0x37
20000b0a:	71e0      	strb	r0, [r4, #7]
20000b0c:	73d9      	strb	r1, [r3, #15]
20000b0e:	bd10      	pop	{r4, pc}
20000b10:	2000f958 	.word	0x2000f958
20000b14:	2001f974 	.word	0x2001f974

20000b18 <SWJ_Sequence>:
20000b18:	b5f8      	push	{r3, r4, r5, r6, r7, lr}
20000b1a:	4f12      	ldr	r7, [pc, #72]	@ (20000b64 <SWJ_Sequence+0x4c>)
20000b1c:	4d12      	ldr	r5, [pc, #72]	@ (20000b68 <SWJ_Sequence+0x50>)
20000b1e:	683b      	ldr	r3, [r7, #0]
20000b20:	686a      	ldr	r2, [r5, #4]
20000b22:	4604      	mov	r4, r0
20000b24:	429a      	cmp	r2, r3
20000b26:	460e      	mov	r6, r1
20000b28:	d10c      	bne.n	20000b44 <SWJ_Sequence+0x2c>
20000b2a:	b154      	cbz	r4, 20000b42 <SWJ_Sequence+0x2a>
20000b2c:	2c08      	cmp	r4, #8
20000b2e:	4625      	mov	r5, r4
20000b30:	bf28      	it	cs
20000b32:	2508      	movcs	r5, #8
20000b34:	f816 1b01 	ldrb.w	r1, [r6], #1
20000b38:	4628      	mov	r0, r5
20000b3a:	f7ff fcb1 	bl	200004a0 <probe_write_bits>
20000b3e:	1b64      	subs	r4, r4, r5
20000b40:	d1f4      	bne.n	20000b2c <SWJ_Sequence+0x14>
20000b42:	bdf8      	pop	{r3, r4, r5, r6, r7, pc}
20000b44:	2005      	movs	r0, #5
20000b46:	f002 f98d 	bl	20002e64 <clock_get_hz>
20000b4a:	f44f 63fa 	mov.w	r3, #2000	@ 0x7d0
20000b4e:	686a      	ldr	r2, [r5, #4]
20000b50:	fb02 3303 	mla	r3, r2, r3, r3
20000b54:	fbb0 f0f3 	udiv	r0, r0, r3
20000b58:	f7ff fc78 	bl	2000044c <probe_set_swclk_freq>
20000b5c:	686b      	ldr	r3, [r5, #4]
20000b5e:	603b      	str	r3, [r7, #0]
20000b60:	e7e3      	b.n	20000b2a <SWJ_Sequence+0x12>
20000b62:	bf00      	nop
20000b64:	2000f1e4 	.word	0x2000f1e4
20000b68:	2000ac60 	.word	0x2000ac60

20000b6c <SWD_Sequence>:
20000b6c:	e92d 41f0 	stmdb	sp!, {r4, r5, r6, r7, r8, lr}
20000b70:	f8df 8074 	ldr.w	r8, [pc, #116]	@ 20000be8 <SWD_Sequence+0x7c>
20000b74:	4d1b      	ldr	r5, [pc, #108]	@ (20000be4 <SWD_Sequence+0x78>)
20000b76:	4617      	mov	r7, r2
20000b78:	f8d8 3000 	ldr.w	r3, [r8]
20000b7c:	686a      	ldr	r2, [r5, #4]
20000b7e:	4604      	mov	r4, r0
20000b80:	429a      	cmp	r2, r3
20000b82:	460e      	mov	r6, r1
20000b84:	d00e      	beq.n	20000ba4 <SWD_Sequence+0x38>
20000b86:	2005      	movs	r0, #5
20000b88:	f002 f96c 	bl	20002e64 <clock_get_hz>
20000b8c:	f44f 63fa 	mov.w	r3, #2000	@ 0x7d0
20000b90:	686a      	ldr	r2, [r5, #4]
20000b92:	fb02 3303 	mla	r3, r2, r3, r3
20000b96:	fbb0 f0f3 	udiv	r0, r0, r3
20000b9a:	f7ff fc57 	bl	2000044c <probe_set_swclk_freq>
20000b9e:	686b      	ldr	r3, [r5, #4]
20000ba0:	f8c8 3000 	str.w	r3, [r8]
20000ba4:	f004 0380 	and.w	r3, r4, #128	@ 0x80
20000ba8:	f014 043f 	ands.w	r4, r4, #63	@ 0x3f
20000bac:	bf08      	it	eq
20000bae:	2440      	moveq	r4, #64	@ 0x40
20000bb0:	b163      	cbz	r3, 20000bcc <SWD_Sequence+0x60>
20000bb2:	2c08      	cmp	r4, #8
20000bb4:	4625      	mov	r5, r4
20000bb6:	bf28      	it	cs
20000bb8:	2508      	movcs	r5, #8
20000bba:	4628      	mov	r0, r5
20000bbc:	f7ff fca0 	bl	20000500 <probe_read_bits>
20000bc0:	1b64      	subs	r4, r4, r5
20000bc2:	f807 0b01 	strb.w	r0, [r7], #1
20000bc6:	d1f4      	bne.n	20000bb2 <SWD_Sequence+0x46>
20000bc8:	e8bd 81f0 	ldmia.w	sp!, {r4, r5, r6, r7, r8, pc}
20000bcc:	2c08      	cmp	r4, #8
20000bce:	4625      	mov	r5, r4
20000bd0:	bf28      	it	cs
20000bd2:	2508      	movcs	r5, #8
20000bd4:	f816 1b01 	ldrb.w	r1, [r6], #1
20000bd8:	4628      	mov	r0, r5
20000bda:	f7ff fc61 	bl	200004a0 <probe_write_bits>
20000bde:	1b64      	subs	r4, r4, r5
20000be0:	d1f4      	bne.n	20000bcc <SWD_Sequence+0x60>
20000be2:	e7f1      	b.n	20000bc8 <SWD_Sequence+0x5c>
20000be4:	2000ac60 	.word	0x2000ac60
20000be8:	2000f1e4 	.word	0x2000f1e4

20000bec <SWD_Transfer>:
20000bec:	e92d 41f0 	stmdb	sp!, {r4, r5, r6, r7, r8, lr}
20000bf0:	4f4e      	ldr	r7, [pc, #312]	@ (20000d2c <SWD_Transfer+0x140>)
20000bf2:	4e4f      	ldr	r6, [pc, #316]	@ (20000d30 <SWD_Transfer+0x144>)
20000bf4:	683b      	ldr	r3, [r7, #0]
20000bf6:	6872      	ldr	r2, [r6, #4]
20000bf8:	4605      	mov	r5, r0
20000bfa:	429a      	cmp	r2, r3
20000bfc:	460c      	mov	r4, r1
20000bfe:	d00d      	beq.n	20000c1c <SWD_Transfer+0x30>
20000c00:	2005      	movs	r0, #5
20000c02:	f002 f92f 	bl	20002e64 <clock_get_hz>
20000c06:	f44f 63fa 	mov.w	r3, #2000	@ 0x7d0
20000c0a:	6872      	ldr	r2, [r6, #4]
20000c0c:	fb02 3303 	mla	r3, r2, r3, r3
20000c10:	fbb0 f0f3 	udiv	r0, r0, r3
20000c14:	f7ff fc1a 	bl	2000044c <probe_set_swclk_freq>
20000c18:	6873      	ldr	r3, [r6, #4]
20000c1a:	603b      	str	r3, [r7, #0]
20000c1c:	f3c5 0040 	ubfx	r0, r5, #1, #1
20000c20:	f3c5 0180 	ubfx	r1, r5, #2, #1
20000c24:	f005 0201 	and.w	r2, r5, #1
20000c28:	1843      	adds	r3, r0, r1
20000c2a:	4413      	add	r3, r2
20000c2c:	f3c5 07c0 	ubfx	r7, r5, #3, #1
20000c30:	443b      	add	r3, r7
20000c32:	015b      	lsls	r3, r3, #5
20000c34:	f003 0320 	and.w	r3, r3, #32
20000c38:	ea43 0342 	orr.w	r3, r3, r2, lsl #1
20000c3c:	ea43 0380 	orr.w	r3, r3, r0, lsl #2
20000c40:	ea43 03c1 	orr.w	r3, r3, r1, lsl #3
20000c44:	ea43 1307 	orr.w	r3, r3, r7, lsl #4
20000c48:	f043 0181 	orr.w	r1, r3, #129	@ 0x81
20000c4c:	2008      	movs	r0, #8
20000c4e:	f7ff fc27 	bl	200004a0 <probe_write_bits>
20000c52:	7e30      	ldrb	r0, [r6, #24]
20000c54:	3003      	adds	r0, #3
20000c56:	f7ff fc53 	bl	20000500 <probe_read_bits>
20000c5a:	7e33      	ldrb	r3, [r6, #24]
20000c5c:	b2c7      	uxtb	r7, r0
20000c5e:	411f      	asrs	r7, r3
20000c60:	2f01      	cmp	r7, #1
20000c62:	d01e      	beq.n	20000ca2 <SWD_Transfer+0xb6>
20000c64:	2f02      	cmp	r7, #2
20000c66:	d009      	beq.n	20000c7c <SWD_Transfer+0x90>
20000c68:	2f04      	cmp	r7, #4
20000c6a:	d007      	beq.n	20000c7c <SWD_Transfer+0x90>
20000c6c:	f103 0021 	add.w	r0, r3, #33	@ 0x21
20000c70:	f7ff fc46 	bl	20000500 <probe_read_bits>
20000c74:	b2ff      	uxtb	r7, r7
20000c76:	4638      	mov	r0, r7
20000c78:	e8bd 81f0 	ldmia.w	sp!, {r4, r5, r6, r7, r8, pc}
20000c7c:	7e72      	ldrb	r2, [r6, #25]
20000c7e:	b36a      	cbz	r2, 20000cdc <SWD_Transfer+0xf0>
20000c80:	07aa      	lsls	r2, r5, #30
20000c82:	d44c      	bmi.n	20000d1e <SWD_Transfer+0x132>
20000c84:	4618      	mov	r0, r3
20000c86:	f7ff fc25 	bl	200004d4 <probe_hiz_clocks>
20000c8a:	7e73      	ldrb	r3, [r6, #25]
20000c8c:	2b00      	cmp	r3, #0
20000c8e:	d0f1      	beq.n	20000c74 <SWD_Transfer+0x88>
20000c90:	2100      	movs	r1, #0
20000c92:	2020      	movs	r0, #32
20000c94:	f7ff fc04 	bl	200004a0 <probe_write_bits>
20000c98:	2100      	movs	r1, #0
20000c9a:	2001      	movs	r0, #1
20000c9c:	f7ff fc00 	bl	200004a0 <probe_write_bits>
20000ca0:	e7e8      	b.n	20000c74 <SWD_Transfer+0x88>
20000ca2:	07a8      	lsls	r0, r5, #30
20000ca4:	d423      	bmi.n	20000cee <SWD_Transfer+0x102>
20000ca6:	4618      	mov	r0, r3
20000ca8:	f7ff fc14 	bl	200004d4 <probe_hiz_clocks>
20000cac:	6824      	ldr	r4, [r4, #0]
20000cae:	2020      	movs	r0, #32
20000cb0:	4621      	mov	r1, r4
20000cb2:	f7ff fbf5 	bl	200004a0 <probe_write_bits>
20000cb6:	4620      	mov	r0, r4
20000cb8:	f007 faa4 	bl	20008204 <__paritysi2>
20000cbc:	4601      	mov	r1, r0
20000cbe:	4638      	mov	r0, r7
20000cc0:	f7ff fbee 	bl	200004a0 <probe_write_bits>
20000cc4:	0629      	lsls	r1, r5, #24
20000cc6:	d502      	bpl.n	20000cce <SWD_Transfer+0xe2>
20000cc8:	4b1a      	ldr	r3, [pc, #104]	@ (20000d34 <SWD_Transfer+0x148>)
20000cca:	6a9b      	ldr	r3, [r3, #40]	@ 0x28
20000ccc:	60b3      	str	r3, [r6, #8]
20000cce:	7b30      	ldrb	r0, [r6, #12]
20000cd0:	2800      	cmp	r0, #0
20000cd2:	d0d0      	beq.n	20000c76 <SWD_Transfer+0x8a>
20000cd4:	2100      	movs	r1, #0
20000cd6:	f7ff fbe3 	bl	200004a0 <probe_write_bits>
20000cda:	e7cc      	b.n	20000c76 <SWD_Transfer+0x8a>
20000cdc:	4618      	mov	r0, r3
20000cde:	f7ff fbf9 	bl	200004d4 <probe_hiz_clocks>
20000ce2:	7e73      	ldrb	r3, [r6, #25]
20000ce4:	2b00      	cmp	r3, #0
20000ce6:	d0c5      	beq.n	20000c74 <SWD_Transfer+0x88>
20000ce8:	07ab      	lsls	r3, r5, #30
20000cea:	d4c3      	bmi.n	20000c74 <SWD_Transfer+0x88>
20000cec:	e7d0      	b.n	20000c90 <SWD_Transfer+0xa4>
20000cee:	2020      	movs	r0, #32
20000cf0:	f7ff fc06 	bl	20000500 <probe_read_bits>
20000cf4:	4680      	mov	r8, r0
20000cf6:	4638      	mov	r0, r7
20000cf8:	f7ff fc02 	bl	20000500 <probe_read_bits>
20000cfc:	4607      	mov	r7, r0
20000cfe:	4640      	mov	r0, r8
20000d00:	f007 fa6c 	bl	200081dc <__popcountsi2>
20000d04:	4047      	eors	r7, r0
20000d06:	f017 0f01 	tst.w	r7, #1
20000d0a:	bf14      	ite	ne
20000d0c:	2708      	movne	r7, #8
20000d0e:	2701      	moveq	r7, #1
20000d10:	b10c      	cbz	r4, 20000d16 <SWD_Transfer+0x12a>
20000d12:	f8c4 8000 	str.w	r8, [r4]
20000d16:	7e30      	ldrb	r0, [r6, #24]
20000d18:	f7ff fbdc 	bl	200004d4 <probe_hiz_clocks>
20000d1c:	e7d2      	b.n	20000cc4 <SWD_Transfer+0xd8>
20000d1e:	2021      	movs	r0, #33	@ 0x21
20000d20:	f7ff fbee 	bl	20000500 <probe_read_bits>
20000d24:	7e30      	ldrb	r0, [r6, #24]
20000d26:	f7ff fbd5 	bl	200004d4 <probe_hiz_clocks>
20000d2a:	e7a3      	b.n	20000c74 <SWD_Transfer+0x88>
20000d2c:	2000f1e4 	.word	0x2000f1e4
20000d30:	2000ac60 	.word	0x2000ac60
20000d34:	400b0000 	.word	0x400b0000

20000d38 <dap_edpt_init>:
20000d38:	4770      	bx	lr
20000d3a:	bf00      	nop

20000d3c <dap_edpt_reset>:
20000d3c:	4770      	bx	lr
20000d3e:	bf00      	nop

20000d40 <dap_edpt_control_xfer_cb>:
20000d40:	2000      	movs	r0, #0
20000d42:	4770      	bx	lr

20000d44 <dap_edpt_deinit>:
20000d44:	b510      	push	{r4, lr}
20000d46:	2440      	movs	r4, #64	@ 0x40
20000d48:	2100      	movs	r1, #0
20000d4a:	4622      	mov	r2, r4
20000d4c:	480a      	ldr	r0, [pc, #40]	@ (20000d78 <dap_edpt_deinit+0x34>)
20000d4e:	f007 fa69 	bl	20008224 <memset>
20000d52:	4622      	mov	r2, r4
20000d54:	2100      	movs	r1, #0
20000d56:	4809      	ldr	r0, [pc, #36]	@ (20000d7c <dap_edpt_deinit+0x38>)
20000d58:	f007 fa64 	bl	20008224 <memset>
20000d5c:	2300      	movs	r3, #0
20000d5e:	4908      	ldr	r1, [pc, #32]	@ (20000d80 <dap_edpt_deinit+0x3c>)
20000d60:	4a08      	ldr	r2, [pc, #32]	@ (20000d84 <dap_edpt_deinit+0x40>)
20000d62:	f8c1 3084 	str.w	r3, [r1, #132]	@ 0x84
20000d66:	2001      	movs	r0, #1
20000d68:	f8c1 3080 	str.w	r3, [r1, #128]	@ 0x80
20000d6c:	f8c2 3084 	str.w	r3, [r2, #132]	@ 0x84
20000d70:	f8c2 3080 	str.w	r3, [r2, #128]	@ 0x80
20000d74:	bd10      	pop	{r4, pc}
20000d76:	bf00      	nop
20000d78:	2000abe0 	.word	0x2000abe0
20000d7c:	2000ac20 	.word	0x2000ac20
20000d80:	2000acbc 	.word	0x2000acbc
20000d84:	2000ad48 	.word	0x2000ad48

20000d88 <dap_edpt_open>:
20000d88:	e92d 41f0 	stmdb	sp!, {r4, r5, r6, r7, r8, lr}
20000d8c:	794b      	ldrb	r3, [r1, #5]
20000d8e:	2bff      	cmp	r3, #255	@ 0xff
20000d90:	d11e      	bne.n	20000dd0 <dap_edpt_open+0x48>
20000d92:	798b      	ldrb	r3, [r1, #6]
20000d94:	460c      	mov	r4, r1
20000d96:	b9db      	cbnz	r3, 20000dd0 <dap_edpt_open+0x48>
20000d98:	79cb      	ldrb	r3, [r1, #7]
20000d9a:	b9cb      	cbnz	r3, 20000dd0 <dap_edpt_open+0x48>
20000d9c:	2501      	movs	r5, #1
20000d9e:	491e      	ldr	r1, [pc, #120]	@ (20000e18 <dap_edpt_open+0x90>)
20000da0:	4f1e      	ldr	r7, [pc, #120]	@ (20000e1c <dap_edpt_open+0x94>)
20000da2:	f8c1 3080 	str.w	r3, [r1, #128]	@ 0x80
20000da6:	f8c1 3084 	str.w	r3, [r1, #132]	@ 0x84
20000daa:	f8c7 3080 	str.w	r3, [r7, #128]	@ 0x80
20000dae:	f8c7 3084 	str.w	r3, [r7, #132]	@ 0x84
20000db2:	f881 3089 	strb.w	r3, [r1, #137]	@ 0x89
20000db6:	f881 5088 	strb.w	r5, [r1, #136]	@ 0x88
20000dba:	f887 3089 	strb.w	r3, [r7, #137]	@ 0x89
20000dbe:	f887 5088 	strb.w	r5, [r7, #136]	@ 0x88
20000dc2:	7925      	ldrb	r5, [r4, #4]
20000dc4:	ebc5 05c5 	rsb	r5, r5, r5, lsl #3
20000dc8:	3509      	adds	r5, #9
20000dca:	b2ad      	uxth	r5, r5
20000dcc:	4295      	cmp	r5, r2
20000dce:	d903      	bls.n	20000dd8 <dap_edpt_open+0x50>
20000dd0:	2500      	movs	r5, #0
20000dd2:	4628      	mov	r0, r5
20000dd4:	e8bd 81f0 	ldmia.w	sp!, {r4, r5, r6, r7, r8, pc}
20000dd8:	4606      	mov	r6, r0
20000dda:	f894 800b 	ldrb.w	r8, [r4, #11]
20000dde:	4b10      	ldr	r3, [pc, #64]	@ (20000e20 <dap_edpt_open+0x98>)
20000de0:	f104 0109 	add.w	r1, r4, #9
20000de4:	f883 8000 	strb.w	r8, [r3]
20000de8:	f003 fb22 	bl	20004430 <usbd_edpt_open>
20000dec:	f8d7 2080 	ldr.w	r2, [r7, #128]	@ 0x80
20000df0:	4641      	mov	r1, r8
20000df2:	f002 0201 	and.w	r2, r2, #1
20000df6:	eb07 1282 	add.w	r2, r7, r2, lsl #6
20000dfa:	2340      	movs	r3, #64	@ 0x40
20000dfc:	4630      	mov	r0, r6
20000dfe:	f003 fb5d 	bl	200044bc <usbd_edpt_xfer>
20000e02:	4b08      	ldr	r3, [pc, #32]	@ (20000e24 <dap_edpt_open+0x9c>)
20000e04:	7ca2      	ldrb	r2, [r4, #18]
20000e06:	4630      	mov	r0, r6
20000e08:	f104 0110 	add.w	r1, r4, #16
20000e0c:	701a      	strb	r2, [r3, #0]
20000e0e:	f003 fb0f 	bl	20004430 <usbd_edpt_open>
20000e12:	4628      	mov	r0, r5
20000e14:	e8bd 81f0 	ldmia.w	sp!, {r4, r5, r6, r7, r8, pc}
20000e18:	2000ad48 	.word	0x2000ad48
20000e1c:	2000acbc 	.word	0x2000acbc
20000e20:	2001fa67 	.word	0x2001fa67
20000e24:	2001fa66 	.word	0x2001fa66

20000e28 <dap_edpt_xfer_cb>:
20000e28:	09ca      	lsrs	r2, r1, #7
20000e2a:	b510      	push	{r4, lr}
20000e2c:	d114      	bne.n	20000e58 <dap_edpt_xfer_cb+0x30>
20000e2e:	2b40      	cmp	r3, #64	@ 0x40
20000e30:	d814      	bhi.n	20000e5c <dap_edpt_xfer_cb+0x34>
20000e32:	4c27      	ldr	r4, [pc, #156]	@ (20000ed0 <dap_edpt_xfer_cb+0xa8>)
20000e34:	f8d4 3080 	ldr.w	r3, [r4, #128]	@ 0x80
20000e38:	f8d4 2084 	ldr.w	r2, [r4, #132]	@ 0x84
20000e3c:	3301      	adds	r3, #1
20000e3e:	f003 0301 	and.w	r3, r3, #1
20000e42:	4293      	cmp	r3, r2
20000e44:	d11b      	bne.n	20000e7e <dap_edpt_xfer_cb+0x56>
20000e46:	2301      	movs	r3, #1
20000e48:	f884 3089 	strb.w	r3, [r4, #137]	@ 0x89
20000e4c:	4b21      	ldr	r3, [pc, #132]	@ (20000ed4 <dap_edpt_xfer_cb+0xac>)
20000e4e:	6818      	ldr	r0, [r3, #0]
20000e50:	f006 f9e0 	bl	20007214 <vTaskResume>
20000e54:	2001      	movs	r0, #1
20000e56:	bd10      	pop	{r4, pc}
20000e58:	2b40      	cmp	r3, #64	@ 0x40
20000e5a:	d901      	bls.n	20000e60 <dap_edpt_xfer_cb+0x38>
20000e5c:	2000      	movs	r0, #0
20000e5e:	bd10      	pop	{r4, pc}
20000e60:	4c1d      	ldr	r4, [pc, #116]	@ (20000ed8 <dap_edpt_xfer_cb+0xb0>)
20000e62:	f8d4 3084 	ldr.w	r3, [r4, #132]	@ 0x84
20000e66:	3301      	adds	r3, #1
20000e68:	f8c4 3084 	str.w	r3, [r4, #132]	@ 0x84
20000e6c:	f894 3088 	ldrb.w	r3, [r4, #136]	@ 0x88
20000e70:	b1bb      	cbz	r3, 20000ea2 <dap_edpt_xfer_cb+0x7a>
20000e72:	4b18      	ldr	r3, [pc, #96]	@ (20000ed4 <dap_edpt_xfer_cb+0xac>)
20000e74:	6818      	ldr	r0, [r3, #0]
20000e76:	f006 f9cd 	bl	20007214 <vTaskResume>
20000e7a:	2001      	movs	r0, #1
20000e7c:	bd10      	pop	{r4, pc}
20000e7e:	f8d4 2080 	ldr.w	r2, [r4, #128]	@ 0x80
20000e82:	2340      	movs	r3, #64	@ 0x40
20000e84:	3201      	adds	r2, #1
20000e86:	f8c4 2080 	str.w	r2, [r4, #128]	@ 0x80
20000e8a:	f8d4 2080 	ldr.w	r2, [r4, #128]	@ 0x80
20000e8e:	f002 0201 	and.w	r2, r2, #1
20000e92:	eb04 1282 	add.w	r2, r4, r2, lsl #6
20000e96:	f003 fb11 	bl	200044bc <usbd_edpt_xfer>
20000e9a:	2300      	movs	r3, #0
20000e9c:	f884 3089 	strb.w	r3, [r4, #137]	@ 0x89
20000ea0:	e7e7      	b.n	20000e72 <dap_edpt_xfer_cb+0x4a>
20000ea2:	4b0e      	ldr	r3, [pc, #56]	@ (20000edc <dap_edpt_xfer_cb+0xb4>)
20000ea4:	f8d4 2084 	ldr.w	r2, [r4, #132]	@ 0x84
20000ea8:	681b      	ldr	r3, [r3, #0]
20000eaa:	f002 0201 	and.w	r2, r2, #1
20000eae:	b29b      	uxth	r3, r3
20000eb0:	eb04 1282 	add.w	r2, r4, r2, lsl #6
20000eb4:	f003 fb02 	bl	200044bc <usbd_edpt_xfer>
20000eb8:	f8d4 3084 	ldr.w	r3, [r4, #132]	@ 0x84
20000ebc:	f8d4 2080 	ldr.w	r2, [r4, #128]	@ 0x80
20000ec0:	3301      	adds	r3, #1
20000ec2:	1a9b      	subs	r3, r3, r2
20000ec4:	fab3 f383 	clz	r3, r3
20000ec8:	095b      	lsrs	r3, r3, #5
20000eca:	f884 3088 	strb.w	r3, [r4, #136]	@ 0x88
20000ece:	e7d0      	b.n	20000e72 <dap_edpt_xfer_cb+0x4a>
20000ed0:	2000acbc 	.word	0x2000acbc
20000ed4:	2000f224 	.word	0x2000f224
20000ed8:	2000ad48 	.word	0x2000ad48
20000edc:	2000afbc 	.word	0x2000afbc

20000ee0 <dap_thread>:
20000ee0:	e92d 4ff8 	stmdb	sp!, {r3, r4, r5, r6, r7, r8, r9, sl, fp, lr}
20000ee4:	267f      	movs	r6, #127	@ 0x7f
20000ee6:	4c5a      	ldr	r4, [pc, #360]	@ (20001050 <dap_thread+0x170>)
20000ee8:	4d5a      	ldr	r5, [pc, #360]	@ (20001054 <dap_thread+0x174>)
20000eea:	f8df 8178 	ldr.w	r8, [pc, #376]	@ 20001064 <dap_thread+0x184>
20000eee:	4f5a      	ldr	r7, [pc, #360]	@ (20001058 <dap_thread+0x178>)
20000ef0:	f8df 9174 	ldr.w	r9, [pc, #372]	@ 20001068 <dap_thread+0x188>
20000ef4:	f8df a174 	ldr.w	sl, [pc, #372]	@ 2000106c <dap_thread+0x18c>
20000ef8:	f8d4 2084 	ldr.w	r2, [r4, #132]	@ 0x84
20000efc:	f8d4 3080 	ldr.w	r3, [r4, #128]	@ 0x80
20000f00:	429a      	cmp	r2, r3
20000f02:	d066      	beq.n	20000fd2 <dap_thread+0xf2>
20000f04:	f8d4 b084 	ldr.w	fp, [r4, #132]	@ 0x84
20000f08:	f00b 0301 	and.w	r3, fp, #1
20000f0c:	019b      	lsls	r3, r3, #6
20000f0e:	5ce2      	ldrb	r2, [r4, r3]
20000f10:	2a7e      	cmp	r2, #126	@ 0x7e
20000f12:	d113      	bne.n	20000f3c <dap_thread+0x5c>
20000f14:	f8d4 2080 	ldr.w	r2, [r4, #128]	@ 0x80
20000f18:	f10b 0b01 	add.w	fp, fp, #1
20000f1c:	4593      	cmp	fp, r2
20000f1e:	54e6      	strb	r6, [r4, r3]
20000f20:	d1f2      	bne.n	20000f08 <dap_thread+0x28>
20000f22:	6828      	ldr	r0, [r5, #0]
20000f24:	f006 f8d0 	bl	200070c8 <vTaskSuspend>
20000f28:	f8d4 3080 	ldr.w	r3, [r4, #128]	@ 0x80
20000f2c:	455b      	cmp	r3, fp
20000f2e:	d0f8      	beq.n	20000f22 <dap_thread+0x42>
20000f30:	f00b 0301 	and.w	r3, fp, #1
20000f34:	019b      	lsls	r3, r3, #6
20000f36:	5ce2      	ldrb	r2, [r4, r3]
20000f38:	2a7e      	cmp	r2, #126	@ 0x7e
20000f3a:	d0eb      	beq.n	20000f14 <dap_thread+0x34>
20000f3c:	f8d4 3084 	ldr.w	r3, [r4, #132]	@ 0x84
20000f40:	f8df e128 	ldr.w	lr, [pc, #296]	@ 2000106c <dap_thread+0x18c>
20000f44:	f003 0c01 	and.w	ip, r3, #1
20000f48:	eb04 1c8c 	add.w	ip, r4, ip, lsl #6
20000f4c:	e8bc 000f 	ldmia.w	ip!, {r0, r1, r2, r3}
20000f50:	e8ae 000f 	stmia.w	lr!, {r0, r1, r2, r3}
20000f54:	e8bc 000f 	ldmia.w	ip!, {r0, r1, r2, r3}
20000f58:	e8ae 000f 	stmia.w	lr!, {r0, r1, r2, r3}
20000f5c:	e8bc 000f 	ldmia.w	ip!, {r0, r1, r2, r3}
20000f60:	e8ae 000f 	stmia.w	lr!, {r0, r1, r2, r3}
20000f64:	e89c 000f 	ldmia.w	ip, {r0, r1, r2, r3}
20000f68:	e88e 000f 	stmia.w	lr, {r0, r1, r2, r3}
20000f6c:	f8d4 3084 	ldr.w	r3, [r4, #132]	@ 0x84
20000f70:	3301      	adds	r3, #1
20000f72:	f8c4 3084 	str.w	r3, [r4, #132]	@ 0x84
20000f76:	f894 3089 	ldrb.w	r3, [r4, #137]	@ 0x89
20000f7a:	2b00      	cmp	r3, #0
20000f7c:	d14f      	bne.n	2000101e <dap_thread+0x13e>
20000f7e:	4649      	mov	r1, r9
20000f80:	4650      	mov	r0, sl
20000f82:	f000 fd89 	bl	20001a98 <DAP_ExecuteCommand>
20000f86:	f8c8 0000 	str.w	r0, [r8]
20000f8a:	f006 f9c7 	bl	2000731c <vTaskSuspendAll>
20000f8e:	f8d7 2080 	ldr.w	r2, [r7, #128]	@ 0x80
20000f92:	f8d7 3084 	ldr.w	r3, [r7, #132]	@ 0x84
20000f96:	f8d7 0080 	ldr.w	r0, [r7, #128]	@ 0x80
20000f9a:	429a      	cmp	r2, r3
20000f9c:	f8d8 2000 	ldr.w	r2, [r8]
20000fa0:	f000 0001 	and.w	r0, r0, #1
20000fa4:	4649      	mov	r1, r9
20000fa6:	b292      	uxth	r2, r2
20000fa8:	eb07 1080 	add.w	r0, r7, r0, lsl #6
20000fac:	d015      	beq.n	20000fda <dap_thread+0xfa>
20000fae:	f007 f98b 	bl	200082c8 <memcpy>
20000fb2:	2200      	movs	r2, #0
20000fb4:	f8d7 3080 	ldr.w	r3, [r7, #128]	@ 0x80
20000fb8:	3301      	adds	r3, #1
20000fba:	f8c7 3080 	str.w	r3, [r7, #128]	@ 0x80
20000fbe:	f887 2088 	strb.w	r2, [r7, #136]	@ 0x88
20000fc2:	f006 fa99 	bl	200074f8 <xTaskResumeAll>
20000fc6:	f8d4 2084 	ldr.w	r2, [r4, #132]	@ 0x84
20000fca:	f8d4 3080 	ldr.w	r3, [r4, #128]	@ 0x80
20000fce:	429a      	cmp	r2, r3
20000fd0:	d198      	bne.n	20000f04 <dap_thread+0x24>
20000fd2:	6828      	ldr	r0, [r5, #0]
20000fd4:	f006 f878 	bl	200070c8 <vTaskSuspend>
20000fd8:	e78e      	b.n	20000ef8 <dap_thread+0x18>
20000fda:	f007 f975 	bl	200082c8 <memcpy>
20000fde:	f8d7 3080 	ldr.w	r3, [r7, #128]	@ 0x80
20000fe2:	4a1e      	ldr	r2, [pc, #120]	@ (2000105c <dap_thread+0x17c>)
20000fe4:	3301      	adds	r3, #1
20000fe6:	f8c7 3080 	str.w	r3, [r7, #128]	@ 0x80
20000fea:	7811      	ldrb	r1, [r2, #0]
20000fec:	f8d7 2084 	ldr.w	r2, [r7, #132]	@ 0x84
20000ff0:	f8d8 3000 	ldr.w	r3, [r8]
20000ff4:	f002 0201 	and.w	r2, r2, #1
20000ff8:	b29b      	uxth	r3, r3
20000ffa:	eb07 1282 	add.w	r2, r7, r2, lsl #6
20000ffe:	2000      	movs	r0, #0
20001000:	f003 fa5c 	bl	200044bc <usbd_edpt_xfer>
20001004:	f006 fa78 	bl	200074f8 <xTaskResumeAll>
20001008:	f8d4 3084 	ldr.w	r3, [r4, #132]	@ 0x84
2000100c:	f8d4 2080 	ldr.w	r2, [r4, #128]	@ 0x80
20001010:	429a      	cmp	r2, r3
20001012:	f47f af77 	bne.w	20000f04 <dap_thread+0x24>
20001016:	6828      	ldr	r0, [r5, #0]
20001018:	f006 f856 	bl	200070c8 <vTaskSuspend>
2000101c:	e76c      	b.n	20000ef8 <dap_thread+0x18>
2000101e:	f006 f97d 	bl	2000731c <vTaskSuspendAll>
20001022:	f8d4 2080 	ldr.w	r2, [r4, #128]	@ 0x80
20001026:	490e      	ldr	r1, [pc, #56]	@ (20001060 <dap_thread+0x180>)
20001028:	3201      	adds	r2, #1
2000102a:	f8c4 2080 	str.w	r2, [r4, #128]	@ 0x80
2000102e:	f8d4 2080 	ldr.w	r2, [r4, #128]	@ 0x80
20001032:	2340      	movs	r3, #64	@ 0x40
20001034:	f002 0201 	and.w	r2, r2, #1
20001038:	7809      	ldrb	r1, [r1, #0]
2000103a:	eb04 1282 	add.w	r2, r4, r2, lsl #6
2000103e:	2000      	movs	r0, #0
20001040:	f003 fa3c 	bl	200044bc <usbd_edpt_xfer>
20001044:	2300      	movs	r3, #0
20001046:	f884 3089 	strb.w	r3, [r4, #137]	@ 0x89
2000104a:	f006 fa55 	bl	200074f8 <xTaskResumeAll>
2000104e:	e796      	b.n	20000f7e <dap_thread+0x9e>
20001050:	2000acbc 	.word	0x2000acbc
20001054:	2000f224 	.word	0x2000f224
20001058:	2000ad48 	.word	0x2000ad48
2000105c:	2001fa66 	.word	0x2001fa66
20001060:	2001fa67 	.word	0x2001fa67
20001064:	2000afbc 	.word	0x2000afbc
20001068:	2000ac20 	.word	0x2000ac20
2000106c:	2000abe0 	.word	0x2000abe0

20001070 <usbd_app_driver_get_cb>:
20001070:	4603      	mov	r3, r0
20001072:	2201      	movs	r2, #1
20001074:	4801      	ldr	r0, [pc, #4]	@ (2000107c <usbd_app_driver_get_cb+0xc>)
20001076:	701a      	strb	r2, [r3, #0]
20001078:	4770      	bx	lr
2000107a:	bf00      	nop
2000107c:	20009554 	.word	0x20009554

20001080 <DAP_ProcessCommand>:
20001080:	e92d 4ff0 	stmdb	sp!, {r4, r5, r6, r7, r8, r9, sl, fp, lr}
20001084:	7803      	ldrb	r3, [r0, #0]
20001086:	b08b      	sub	sp, #44	@ 0x2c
20001088:	f083 0280 	eor.w	r2, r3, #128	@ 0x80
2000108c:	2a1f      	cmp	r2, #31
2000108e:	d926      	bls.n	200010de <DAP_ProcessCommand+0x5e>
20001090:	460f      	mov	r7, r1
20001092:	4681      	mov	r9, r0
20001094:	460c      	mov	r4, r1
20001096:	f807 3b01 	strb.w	r3, [r7], #1
2000109a:	2b1d      	cmp	r3, #29
2000109c:	d826      	bhi.n	200010ec <DAP_ProcessCommand+0x6c>
2000109e:	e8df f013 	tbh	[pc, r3, lsl #1]
200010a2:	00d7      	.short	0x00d7
200010a4:	00c400cd 	.word	0x00c400cd
200010a8:	00b200bc 	.word	0x00b200bc
200010ac:	00790094 	.word	0x00790094
200010b0:	00700025 	.word	0x00700025
200010b4:	01620167 	.word	0x01620167
200010b8:	00250025 	.word	0x00250025
200010bc:	00250025 	.word	0x00250025
200010c0:	01040025 	.word	0x01040025
200010c4:	015000ec 	.word	0x015000ec
200010c8:	01320127 	.word	0x01320127
200010cc:	01760066 	.word	0x01760066
200010d0:	00250025 	.word	0x00250025
200010d4:	00250025 	.word	0x00250025
200010d8:	00250025 	.word	0x00250025
200010dc:	002a      	.short	0x002a
200010de:	f000 fd11 	bl	20001b04 <DAP_ProcessVendorCommand>
200010e2:	4605      	mov	r5, r0
200010e4:	4628      	mov	r0, r5
200010e6:	b00b      	add	sp, #44	@ 0x2c
200010e8:	e8bd 8ff0 	ldmia.w	sp!, {r4, r5, r6, r7, r8, r9, sl, fp, pc}
200010ec:	23ff      	movs	r3, #255	@ 0xff
200010ee:	f04f 1501 	mov.w	r5, #65537	@ 0x10001
200010f2:	700b      	strb	r3, [r1, #0]
200010f4:	e7f6      	b.n	200010e4 <DAP_ProcessCommand+0x64>
200010f6:	2200      	movs	r2, #0
200010f8:	704a      	strb	r2, [r1, #1]
200010fa:	7842      	ldrb	r2, [r0, #1]
200010fc:	f101 0a02 	add.w	sl, r1, #2
20001100:	1c83      	adds	r3, r0, #2
20001102:	f102 38ff 	add.w	r8, r2, #4294967295	@ 0xffffffff
20001106:	2a00      	cmp	r2, #0
20001108:	f000 835c 	beq.w	200017c4 <DAP_ProcessCommand+0x744>
2000110c:	f04f 0901 	mov.w	r9, #1
20001110:	461c      	mov	r4, r3
20001112:	464f      	mov	r7, r9
20001114:	4646      	mov	r6, r8
20001116:	e011      	b.n	2000113c <DAP_ProcessCommand+0xbc>
20001118:	f7ff fa28 	bl	2000056c <probe_write_mode>
2000111c:	4652      	mov	r2, sl
2000111e:	4621      	mov	r1, r4
20001120:	4640      	mov	r0, r8
20001122:	f7ff fd23 	bl	20000b6c <SWD_Sequence>
20001126:	2e00      	cmp	r6, #0
20001128:	f000 8153 	beq.w	200013d2 <DAP_ProcessCommand+0x352>
2000112c:	3701      	adds	r7, #1
2000112e:	442c      	add	r4, r5
20001130:	442f      	add	r7, r5
20001132:	1e73      	subs	r3, r6, #1
20001134:	2e00      	cmp	r6, #0
20001136:	f000 814f 	beq.w	200013d8 <DAP_ProcessCommand+0x358>
2000113a:	461e      	mov	r6, r3
2000113c:	f814 8b01 	ldrb.w	r8, [r4], #1
20001140:	f018 053f 	ands.w	r5, r8, #63	@ 0x3f
20001144:	bf16      	itet	ne
20001146:	3507      	addne	r5, #7
20001148:	2508      	moveq	r5, #8
2000114a:	08ed      	lsrne	r5, r5, #3
2000114c:	f018 0f80 	tst.w	r8, #128	@ 0x80
20001150:	d0e2      	beq.n	20001118 <DAP_ProcessCommand+0x98>
20001152:	f7ff f9f3 	bl	2000053c <probe_read_mode>
20001156:	4652      	mov	r2, sl
20001158:	4621      	mov	r1, r4
2000115a:	4640      	mov	r0, r8
2000115c:	f7ff fd06 	bl	20000b6c <SWD_Sequence>
20001160:	2e00      	cmp	r6, #0
20001162:	f000 813e 	beq.w	200013e2 <DAP_ProcessCommand+0x362>
20001166:	3701      	adds	r7, #1
20001168:	44aa      	add	sl, r5
2000116a:	44a9      	add	r9, r5
2000116c:	e7e1      	b.n	20001132 <DAP_ProcessCommand+0xb2>
2000116e:	23ff      	movs	r3, #255	@ 0xff
20001170:	7845      	ldrb	r5, [r0, #1]
20001172:	704b      	strb	r3, [r1, #1]
20001174:	3501      	adds	r5, #1
20001176:	042d      	lsls	r5, r5, #16
20001178:	f045 0501 	orr.w	r5, r5, #1
2000117c:	f105 1501 	add.w	r5, r5, #65537	@ 0x10001
20001180:	e7b0      	b.n	200010e4 <DAP_ProcessCommand+0x64>
20001182:	4ba7      	ldr	r3, [pc, #668]	@ (20001420 <DAP_ProcessCommand+0x3a0>)
20001184:	781b      	ldrb	r3, [r3, #0]
20001186:	2b01      	cmp	r3, #1
20001188:	f000 836c 	beq.w	20001864 <DAP_ProcessCommand+0x7e4>
2000118c:	23ff      	movs	r3, #255	@ 0xff
2000118e:	704b      	strb	r3, [r1, #1]
20001190:	4da4      	ldr	r5, [pc, #656]	@ (20001424 <DAP_ProcessCommand+0x3a4>)
20001192:	e7a7      	b.n	200010e4 <DAP_ProcessCommand+0x64>
20001194:	f8df 8288 	ldr.w	r8, [pc, #648]	@ 20001420 <DAP_ProcessCommand+0x3a0>
20001198:	f898 3000 	ldrb.w	r3, [r8]
2000119c:	2b01      	cmp	r3, #1
2000119e:	f000 8314 	beq.w	200017ca <DAP_ProcessCommand+0x74a>
200011a2:	2300      	movs	r3, #0
200011a4:	f04f 0b03 	mov.w	fp, #3
200011a8:	f8a1 3001 	strh.w	r3, [r1, #1]
200011ac:	70cb      	strb	r3, [r1, #3]
200011ae:	f899 3004 	ldrb.w	r3, [r9, #4]
200011b2:	079b      	lsls	r3, r3, #30
200011b4:	bf57      	itett	pl
200011b6:	f8b9 3002 	ldrhpl.w	r3, [r9, #2]
200011ba:	f44b 2b80 	orrmi.w	fp, fp, #262144	@ 0x40000
200011be:	3301      	addpl	r3, #1
200011c0:	ea4b 4b83 	orrpl.w	fp, fp, r3, lsl #18
200011c4:	f10b 1501 	add.w	r5, fp, #65537	@ 0x10001
200011c8:	e78c      	b.n	200010e4 <DAP_ProcessCommand+0x64>
200011ca:	f8df 8254 	ldr.w	r8, [pc, #596]	@ 20001420 <DAP_ProcessCommand+0x3a0>
200011ce:	1c43      	adds	r3, r0, #1
200011d0:	9306      	str	r3, [sp, #24]
200011d2:	f898 3000 	ldrb.w	r3, [r8]
200011d6:	f890 b002 	ldrb.w	fp, [r0, #2]
200011da:	2b01      	cmp	r3, #1
200011dc:	9307      	str	r3, [sp, #28]
200011de:	f100 0103 	add.w	r1, r0, #3
200011e2:	f000 813d 	beq.w	20001460 <DAP_ProcessCommand+0x3e0>
200011e6:	f1bb 0f00 	cmp.w	fp, #0
200011ea:	d107      	bne.n	200011fc <DAP_ProcessCommand+0x17c>
200011ec:	e3f3      	b.n	200019d6 <DAP_ProcessCommand+0x956>
200011ee:	06da      	lsls	r2, r3, #27
200011f0:	d407      	bmi.n	20001202 <DAP_ProcessCommand+0x182>
200011f2:	3101      	adds	r1, #1
200011f4:	f1bb 0b01 	subs.w	fp, fp, #1
200011f8:	f000 80f6 	beq.w	200013e8 <DAP_ProcessCommand+0x368>
200011fc:	780b      	ldrb	r3, [r1, #0]
200011fe:	0798      	lsls	r0, r3, #30
20001200:	d4f5      	bmi.n	200011ee <DAP_ProcessCommand+0x16e>
20001202:	3105      	adds	r1, #5
20001204:	e7f6      	b.n	200011f4 <DAP_ProcessCommand+0x174>
20001206:	2200      	movs	r2, #0
20001208:	7841      	ldrb	r1, [r0, #1]
2000120a:	4b85      	ldr	r3, [pc, #532]	@ (20001420 <DAP_ProcessCommand+0x3a0>)
2000120c:	7319      	strb	r1, [r3, #12]
2000120e:	8841      	ldrh	r1, [r0, #2]
20001210:	8219      	strh	r1, [r3, #16]
20001212:	8881      	ldrh	r1, [r0, #4]
20001214:	8259      	strh	r1, [r3, #18]
20001216:	7062      	strb	r2, [r4, #1]
20001218:	e7ba      	b.n	20001190 <DAP_ProcessCommand+0x110>
2000121a:	2600      	movs	r6, #0
2000121c:	4b80      	ldr	r3, [pc, #512]	@ (20001420 <DAP_ProcessCommand+0x3a0>)
2000121e:	4d82      	ldr	r5, [pc, #520]	@ (20001428 <DAP_ProcessCommand+0x3a8>)
20001220:	701e      	strb	r6, [r3, #0]
20001222:	f7ff fa2b 	bl	2000067c <probe_deinit>
20001226:	7066      	strb	r6, [r4, #1]
20001228:	e75c      	b.n	200010e4 <DAP_ProcessCommand+0x64>
2000122a:	7843      	ldrb	r3, [r0, #1]
2000122c:	2b01      	cmp	r3, #1
2000122e:	f240 80e6 	bls.w	200013fe <DAP_ProcessCommand+0x37e>
20001232:	2300      	movs	r3, #0
20001234:	f04f 1502 	mov.w	r5, #131074	@ 0x20002
20001238:	7063      	strb	r3, [r4, #1]
2000123a:	e753      	b.n	200010e4 <DAP_ProcessCommand+0x64>
2000123c:	7843      	ldrb	r3, [r0, #1]
2000123e:	2b01      	cmp	r3, #1
20001240:	f04f 33ff 	mov.w	r3, #4294967295	@ 0xffffffff
20001244:	bf98      	it	ls
20001246:	2300      	movls	r3, #0
20001248:	b2db      	uxtb	r3, r3
2000124a:	4d78      	ldr	r5, [pc, #480]	@ (2000142c <DAP_ProcessCommand+0x3ac>)
2000124c:	7063      	strb	r3, [r4, #1]
2000124e:	e749      	b.n	200010e4 <DAP_ProcessCommand+0x64>
20001250:	7842      	ldrb	r2, [r0, #1]
20001252:	2a04      	cmp	r2, #4
20001254:	f000 8310 	beq.w	20001878 <DAP_ProcessCommand+0x7f8>
20001258:	2aef      	cmp	r2, #239	@ 0xef
2000125a:	f240 809a 	bls.w	20001392 <DAP_ProcessCommand+0x312>
2000125e:	3af0      	subs	r2, #240	@ 0xf0
20001260:	2a0f      	cmp	r2, #15
20001262:	f200 8096 	bhi.w	20001392 <DAP_ProcessCommand+0x312>
20001266:	e8df f002 	tbb	[pc, r2]
2000126a:	98ab      	.short	0x98ab
2000126c:	94949494 	.word	0x94949494
20001270:	94949494 	.word	0x94949494
20001274:	94949494 	.word	0x94949494
20001278:	9fa5      	.short	0x9fa5
2000127a:	f8d0 5001 	ldr.w	r5, [r0, #1]
2000127e:	2d00      	cmp	r5, #0
20001280:	f000 80c7 	beq.w	20001412 <DAP_ProcessCommand+0x392>
20001284:	2005      	movs	r0, #5
20001286:	f001 fded 	bl	20002e64 <clock_get_hz>
2000128a:	ebb5 0f50 	cmp.w	r5, r0, lsr #1
2000128e:	f0c0 82fd 	bcc.w	2000188c <DAP_ProcessCommand+0x80c>
20001292:	2201      	movs	r2, #1
20001294:	4613      	mov	r3, r2
20001296:	f8df 8188 	ldr.w	r8, [pc, #392]	@ 20001420 <DAP_ProcessCommand+0x3a0>
2000129a:	f888 2001 	strb.w	r2, [r8, #1]
2000129e:	2200      	movs	r2, #0
200012a0:	f8c8 3004 	str.w	r3, [r8, #4]
200012a4:	4d62      	ldr	r5, [pc, #392]	@ (20001430 <DAP_ProcessCommand+0x3b0>)
200012a6:	7062      	strb	r2, [r4, #1]
200012a8:	e71c      	b.n	200010e4 <DAP_ProcessCommand+0x64>
200012aa:	f8d0 3003 	ldr.w	r3, [r0, #3]
200012ae:	7842      	ldrb	r2, [r0, #1]
200012b0:	7880      	ldrb	r0, [r0, #2]
200012b2:	b1cb      	cbz	r3, 200012e8 <DAP_ProcessCommand+0x268>
200012b4:	495f      	ldr	r1, [pc, #380]	@ (20001434 <DAP_ProcessCommand+0x3b4>)
200012b6:	428b      	cmp	r3, r1
200012b8:	bf28      	it	cs
200012ba:	460b      	movcs	r3, r1
200012bc:	495e      	ldr	r1, [pc, #376]	@ (20001438 <DAP_ProcessCommand+0x3b8>)
200012be:	07c6      	lsls	r6, r0, #31
200012c0:	6a8d      	ldr	r5, [r1, #40]	@ 0x28
200012c2:	f100 8268 	bmi.w	20001796 <DAP_ProcessCommand+0x716>
200012c6:	0787      	lsls	r7, r0, #30
200012c8:	f100 82f2 	bmi.w	200018b0 <DAP_ProcessCommand+0x830>
200012cc:	0746      	lsls	r6, r0, #29
200012ce:	f100 83a0 	bmi.w	20001a12 <DAP_ProcessCommand+0x992>
200012d2:	0687      	lsls	r7, r0, #26
200012d4:	f100 83a5 	bmi.w	20001a22 <DAP_ProcessCommand+0x9a2>
200012d8:	0606      	lsls	r6, r0, #24
200012da:	d505      	bpl.n	200012e8 <DAP_ProcessCommand+0x268>
200012dc:	09d2      	lsrs	r2, r2, #7
200012de:	d003      	beq.n	200012e8 <DAP_ProcessCommand+0x268>
200012e0:	6a8a      	ldr	r2, [r1, #40]	@ 0x28
200012e2:	1b52      	subs	r2, r2, r5
200012e4:	4293      	cmp	r3, r2
200012e6:	d8fb      	bhi.n	200012e0 <DAP_ProcessCommand+0x260>
200012e8:	2300      	movs	r3, #0
200012ea:	4d54      	ldr	r5, [pc, #336]	@ (2000143c <DAP_ProcessCommand+0x3bc>)
200012ec:	7063      	strb	r3, [r4, #1]
200012ee:	e6f9      	b.n	200010e4 <DAP_ProcessCommand+0x64>
200012f0:	7843      	ldrb	r3, [r0, #1]
200012f2:	484b      	ldr	r0, [pc, #300]	@ (20001420 <DAP_ProcessCommand+0x3a0>)
200012f4:	f003 0103 	and.w	r1, r3, #3
200012f8:	f3c3 0280 	ubfx	r2, r3, #2, #1
200012fc:	3101      	adds	r1, #1
200012fe:	2300      	movs	r3, #0
20001300:	7601      	strb	r1, [r0, #24]
20001302:	7642      	strb	r2, [r0, #25]
20001304:	e796      	b.n	20001234 <DAP_ProcessCommand+0x1b4>
20001306:	23ff      	movs	r3, #255	@ 0xff
20001308:	704b      	strb	r3, [r1, #1]
2000130a:	7843      	ldrb	r3, [r0, #1]
2000130c:	1c82      	adds	r2, r0, #2
2000130e:	1e59      	subs	r1, r3, #1
20001310:	2b00      	cmp	r3, #0
20001312:	f000 8257 	beq.w	200017c4 <DAP_ProcessCommand+0x744>
20001316:	2001      	movs	r0, #1
20001318:	7813      	ldrb	r3, [r2, #0]
2000131a:	3901      	subs	r1, #1
2000131c:	f013 033f 	ands.w	r3, r3, #63	@ 0x3f
20001320:	f103 0307 	add.w	r3, r3, #7
20001324:	ea4f 03d3 	mov.w	r3, r3, lsr #3
20001328:	f103 0301 	add.w	r3, r3, #1
2000132c:	d04a      	beq.n	200013c4 <DAP_ProcessCommand+0x344>
2000132e:	1c4d      	adds	r5, r1, #1
20001330:	441a      	add	r2, r3
20001332:	4418      	add	r0, r3
20001334:	d1f0      	bne.n	20001318 <DAP_ProcessCommand+0x298>
20001336:	0405      	lsls	r5, r0, #16
20001338:	f045 0501 	orr.w	r5, r5, #1
2000133c:	f105 1501 	add.w	r5, r5, #65537	@ 0x10001
20001340:	e6d0      	b.n	200010e4 <DAP_ProcessCommand+0x64>
20001342:	7840      	ldrb	r0, [r0, #1]
20001344:	f109 0102 	add.w	r1, r9, #2
20001348:	2800      	cmp	r0, #0
2000134a:	d064      	beq.n	20001416 <DAP_ProcessCommand+0x396>
2000134c:	1dc5      	adds	r5, r0, #7
2000134e:	08ed      	lsrs	r5, r5, #3
20001350:	3501      	adds	r5, #1
20001352:	042d      	lsls	r5, r5, #16
20001354:	f045 0501 	orr.w	r5, r5, #1
20001358:	f105 1501 	add.w	r5, r5, #65537	@ 0x10001
2000135c:	f7ff fbdc 	bl	20000b18 <SWJ_Sequence>
20001360:	2300      	movs	r3, #0
20001362:	7063      	strb	r3, [r4, #1]
20001364:	e6be      	b.n	200010e4 <DAP_ProcessCommand+0x64>
20001366:	2300      	movs	r3, #0
20001368:	4d35      	ldr	r5, [pc, #212]	@ (20001440 <DAP_ProcessCommand+0x3c0>)
2000136a:	f8a1 3001 	strh.w	r3, [r1, #1]
2000136e:	e6b9      	b.n	200010e4 <DAP_ProcessCommand+0x64>
20001370:	2005      	movs	r0, #5
20001372:	f8b9 5001 	ldrh.w	r5, [r9, #1]
20001376:	f001 fd75 	bl	20002e64 <clock_get_hz>
2000137a:	4b32      	ldr	r3, [pc, #200]	@ (20001444 <DAP_ProcessCommand+0x3c4>)
2000137c:	fba3 2300 	umull	r2, r3, r3, r0
20001380:	0c9b      	lsrs	r3, r3, #18
20001382:	fb05 f303 	mul.w	r3, r5, r3
20001386:	3b01      	subs	r3, #1
20001388:	d1fd      	bne.n	20001386 <DAP_ProcessCommand+0x306>
2000138a:	2300      	movs	r3, #0
2000138c:	e75d      	b.n	2000124a <DAP_ProcessCommand+0x1ca>
2000138e:	23ff      	movs	r3, #255	@ 0xff
20001390:	e750      	b.n	20001234 <DAP_ProcessCommand+0x1b4>
20001392:	f04f 1502 	mov.w	r5, #131074	@ 0x20002
20001396:	7063      	strb	r3, [r4, #1]
20001398:	e6a4      	b.n	200010e4 <DAP_ProcessCommand+0x64>
2000139a:	2304      	movs	r3, #4
2000139c:	4a2a      	ldr	r2, [pc, #168]	@ (20001448 <DAP_ProcessCommand+0x3c8>)
2000139e:	4d2b      	ldr	r5, [pc, #172]	@ (2000144c <DAP_ProcessCommand+0x3cc>)
200013a0:	f8c4 2002 	str.w	r2, [r4, #2]
200013a4:	7063      	strb	r3, [r4, #1]
200013a6:	e69d      	b.n	200010e4 <DAP_ProcessCommand+0x64>
200013a8:	2240      	movs	r2, #64	@ 0x40
200013aa:	2302      	movs	r3, #2
200013ac:	4d28      	ldr	r5, [pc, #160]	@ (20001450 <DAP_ProcessCommand+0x3d0>)
200013ae:	8062      	strh	r2, [r4, #2]
200013b0:	7063      	strb	r3, [r4, #1]
200013b2:	e697      	b.n	200010e4 <DAP_ProcessCommand+0x64>
200013b4:	2202      	movs	r2, #2
200013b6:	2301      	movs	r3, #1
200013b8:	4d26      	ldr	r5, [pc, #152]	@ (20001454 <DAP_ProcessCommand+0x3d4>)
200013ba:	70a2      	strb	r2, [r4, #2]
200013bc:	7063      	strb	r3, [r4, #1]
200013be:	e691      	b.n	200010e4 <DAP_ProcessCommand+0x64>
200013c0:	2231      	movs	r2, #49	@ 0x31
200013c2:	e7f8      	b.n	200013b6 <DAP_ProcessCommand+0x336>
200013c4:	1c4c      	adds	r4, r1, #1
200013c6:	f102 0209 	add.w	r2, r2, #9
200013ca:	f100 0009 	add.w	r0, r0, #9
200013ce:	d1a3      	bne.n	20001318 <DAP_ProcessCommand+0x298>
200013d0:	e7b1      	b.n	20001336 <DAP_ProcessCommand+0x2b6>
200013d2:	f7ff f8cb 	bl	2000056c <probe_write_mode>
200013d6:	e6a9      	b.n	2000112c <DAP_ProcessCommand+0xac>
200013d8:	ea49 4507 	orr.w	r5, r9, r7, lsl #16
200013dc:	f105 1501 	add.w	r5, r5, #65537	@ 0x10001
200013e0:	e680      	b.n	200010e4 <DAP_ProcessCommand+0x64>
200013e2:	f7ff f8c3 	bl	2000056c <probe_write_mode>
200013e6:	e6be      	b.n	20001166 <DAP_ProcessCommand+0xe6>
200013e8:	9b06      	ldr	r3, [sp, #24]
200013ea:	1acd      	subs	r5, r1, r3
200013ec:	042d      	lsls	r5, r5, #16
200013ee:	f045 0502 	orr.w	r5, r5, #2
200013f2:	f105 1501 	add.w	r5, r5, #65537	@ 0x10001
200013f6:	2300      	movs	r3, #0
200013f8:	f8a4 3001 	strh.w	r3, [r4, #1]
200013fc:	e672      	b.n	200010e4 <DAP_ProcessCommand+0x64>
200013fe:	2501      	movs	r5, #1
20001400:	4b07      	ldr	r3, [pc, #28]	@ (20001420 <DAP_ProcessCommand+0x3a0>)
20001402:	701d      	strb	r5, [r3, #0]
20001404:	f7ff f8ca 	bl	2000059c <probe_init>
20001408:	2100      	movs	r1, #0
2000140a:	4a13      	ldr	r2, [pc, #76]	@ (20001458 <DAP_ProcessCommand+0x3d8>)
2000140c:	462b      	mov	r3, r5
2000140e:	6011      	str	r1, [r2, #0]
20001410:	e710      	b.n	20001234 <DAP_ProcessCommand+0x1b4>
20001412:	22ff      	movs	r2, #255	@ 0xff
20001414:	e746      	b.n	200012a4 <DAP_ProcessCommand+0x224>
20001416:	f44f 7080 	mov.w	r0, #256	@ 0x100
2000141a:	4d10      	ldr	r5, [pc, #64]	@ (2000145c <DAP_ProcessCommand+0x3dc>)
2000141c:	e79e      	b.n	2000135c <DAP_ProcessCommand+0x2dc>
2000141e:	bf00      	nop
20001420:	2000ac60 	.word	0x2000ac60
20001424:	00060002 	.word	0x00060002
20001428:	00010002 	.word	0x00010002
2000142c:	00030002 	.word	0x00030002
20001430:	00050002 	.word	0x00050002
20001434:	002dc6c0 	.word	0x002dc6c0
20001438:	400b0000 	.word	0x400b0000
2000143c:	00070002 	.word	0x00070002
20001440:	00010003 	.word	0x00010003
20001444:	431bde83 	.word	0x431bde83
20001448:	000f4240 	.word	0x000f4240
2000144c:	00020006 	.word	0x00020006
20001450:	00020004 	.word	0x00020004
20001454:	00020003 	.word	0x00020003
20001458:	2000f1e4 	.word	0x2000f1e4
2000145c:	00220002 	.word	0x00220002
20001460:	2300      	movs	r3, #0
20001462:	4daa      	ldr	r5, [pc, #680]	@ (2000170c <DAP_ProcessCommand+0x68c>)
20001464:	1ce2      	adds	r2, r4, #3
20001466:	9204      	str	r2, [sp, #16]
20001468:	702b      	strb	r3, [r5, #0]
2000146a:	f1bb 0f00 	cmp.w	fp, #0
2000146e:	f000 82f9 	beq.w	20001a64 <DAP_ProcessCommand+0x9e4>
20001472:	469a      	mov	sl, r3
20001474:	e9cd 7401 	strd	r7, r4, [sp, #4]
20001478:	9305      	str	r3, [sp, #20]
2000147a:	9303      	str	r3, [sp, #12]
2000147c:	4689      	mov	r9, r1
2000147e:	f819 6b01 	ldrb.w	r6, [r9], #1
20001482:	07b2      	lsls	r2, r6, #30
20001484:	f140 80ad 	bpl.w	200015e2 <DAP_ProcessCommand+0x562>
20001488:	f8b8 7010 	ldrh.w	r7, [r8, #16]
2000148c:	f1ba 0f00 	cmp.w	sl, #0
20001490:	d028      	beq.n	200014e4 <DAP_ProcessCommand+0x464>
20001492:	f006 0311 	and.w	r3, r6, #17
20001496:	2b01      	cmp	r3, #1
20001498:	460c      	mov	r4, r1
2000149a:	d108      	bne.n	200014ae <DAP_ProcessCommand+0x42e>
2000149c:	e087      	b.n	200015ae <DAP_ProcessCommand+0x52e>
2000149e:	2f00      	cmp	r7, #0
200014a0:	f000 815c 	beq.w	2000175c <DAP_ProcessCommand+0x6dc>
200014a4:	782b      	ldrb	r3, [r5, #0]
200014a6:	3f01      	subs	r7, #1
200014a8:	2b00      	cmp	r3, #0
200014aa:	f040 8166 	bne.w	2000177a <DAP_ProcessCommand+0x6fa>
200014ae:	200e      	movs	r0, #14
200014b0:	a909      	add	r1, sp, #36	@ 0x24
200014b2:	f7ff fb9b 	bl	20000bec <SWD_Transfer>
200014b6:	2802      	cmp	r0, #2
200014b8:	d0f1      	beq.n	2000149e <DAP_ProcessCommand+0x41e>
200014ba:	4603      	mov	r3, r0
200014bc:	4621      	mov	r1, r4
200014be:	f04f 0a00 	mov.w	sl, #0
200014c2:	2b01      	cmp	r3, #1
200014c4:	f040 82d6 	bne.w	20001a74 <DAP_ProcessCommand+0x9f4>
200014c8:	9c04      	ldr	r4, [sp, #16]
200014ca:	9a09      	ldr	r2, [sp, #36]	@ 0x24
200014cc:	4620      	mov	r0, r4
200014ce:	f840 2b04 	str.w	r2, [r0], #4
200014d2:	f1ba 0f00 	cmp.w	sl, #0
200014d6:	f000 8132 	beq.w	2000173e <DAP_ProcessCommand+0x6be>
200014da:	0633      	lsls	r3, r6, #24
200014dc:	f100 8153 	bmi.w	20001786 <DAP_ProcessCommand+0x706>
200014e0:	4653      	mov	r3, sl
200014e2:	9004      	str	r0, [sp, #16]
200014e4:	f016 0010 	ands.w	r0, r6, #16
200014e8:	f8b8 7010 	ldrh.w	r7, [r8, #16]
200014ec:	f006 0201 	and.w	r2, r6, #1
200014f0:	f000 80a8 	beq.w	20001644 <DAP_ProcessCommand+0x5c4>
200014f4:	f8d1 3001 	ldr.w	r3, [r1, #1]
200014f8:	f101 0905 	add.w	r9, r1, #5
200014fc:	9300      	str	r3, [sp, #0]
200014fe:	f8b8 1012 	ldrh.w	r1, [r8, #18]
20001502:	b1a2      	cbz	r2, 2000152e <DAP_ProcessCommand+0x4ae>
20001504:	460c      	mov	r4, r1
20001506:	e007      	b.n	20001518 <DAP_ProcessCommand+0x498>
20001508:	2f00      	cmp	r7, #0
2000150a:	f000 80da 	beq.w	200016c2 <DAP_ProcessCommand+0x642>
2000150e:	782b      	ldrb	r3, [r5, #0]
20001510:	3f01      	subs	r7, #1
20001512:	2b00      	cmp	r3, #0
20001514:	f040 80d5 	bne.w	200016c2 <DAP_ProcessCommand+0x642>
20001518:	2100      	movs	r1, #0
2000151a:	4630      	mov	r0, r6
2000151c:	f7ff fb66 	bl	20000bec <SWD_Transfer>
20001520:	2802      	cmp	r0, #2
20001522:	d0f1      	beq.n	20001508 <DAP_ProcessCommand+0x488>
20001524:	2801      	cmp	r0, #1
20001526:	4603      	mov	r3, r0
20001528:	4621      	mov	r1, r4
2000152a:	f040 82a3 	bne.w	20001a74 <DAP_ProcessCommand+0x9f4>
2000152e:	4647      	mov	r7, r8
20001530:	4688      	mov	r8, r1
20001532:	8a3c      	ldrh	r4, [r7, #16]
20001534:	e005      	b.n	20001542 <DAP_ProcessCommand+0x4c2>
20001536:	2c00      	cmp	r4, #0
20001538:	d042      	beq.n	200015c0 <DAP_ProcessCommand+0x540>
2000153a:	782b      	ldrb	r3, [r5, #0]
2000153c:	3c01      	subs	r4, #1
2000153e:	2b00      	cmp	r3, #0
20001540:	d13e      	bne.n	200015c0 <DAP_ProcessCommand+0x540>
20001542:	4630      	mov	r0, r6
20001544:	a909      	add	r1, sp, #36	@ 0x24
20001546:	f7ff fb51 	bl	20000bec <SWD_Transfer>
2000154a:	2802      	cmp	r0, #2
2000154c:	4684      	mov	ip, r0
2000154e:	d0f2      	beq.n	20001536 <DAP_ProcessCommand+0x4b6>
20001550:	697b      	ldr	r3, [r7, #20]
20001552:	9909      	ldr	r1, [sp, #36]	@ 0x24
20001554:	2801      	cmp	r0, #1
20001556:	ea03 0301 	and.w	r3, r3, r1
2000155a:	f040 827b 	bne.w	20001a54 <DAP_ProcessCommand+0x9d4>
2000155e:	9a00      	ldr	r2, [sp, #0]
20001560:	429a      	cmp	r2, r3
20001562:	f000 80ee 	beq.w	20001742 <DAP_ProcessCommand+0x6c2>
20001566:	f1b8 0f00 	cmp.w	r8, #0
2000156a:	d004      	beq.n	20001576 <DAP_ProcessCommand+0x4f6>
2000156c:	782b      	ldrb	r3, [r5, #0]
2000156e:	f108 38ff 	add.w	r8, r8, #4294967295	@ 0xffffffff
20001572:	2b00      	cmp	r3, #0
20001574:	d0dd      	beq.n	20001532 <DAP_ProcessCommand+0x4b2>
20001576:	46b8      	mov	r8, r7
20001578:	46cc      	mov	ip, r9
2000157a:	2311      	movs	r3, #17
2000157c:	9c02      	ldr	r4, [sp, #8]
2000157e:	9f01      	ldr	r7, [sp, #4]
20001580:	e006      	b.n	20001590 <DAP_ProcessCommand+0x510>
20001582:	06d6      	lsls	r6, r2, #27
20001584:	d408      	bmi.n	20001598 <DAP_ProcessCommand+0x518>
20001586:	f10c 0c01 	add.w	ip, ip, #1
2000158a:	f1bb 0b01 	subs.w	fp, fp, #1
2000158e:	d046      	beq.n	2000161e <DAP_ProcessCommand+0x59e>
20001590:	f89c 2000 	ldrb.w	r2, [ip]
20001594:	0791      	lsls	r1, r2, #30
20001596:	d4f4      	bmi.n	20001582 <DAP_ProcessCommand+0x502>
20001598:	f10c 0c05 	add.w	ip, ip, #5
2000159c:	e7f5      	b.n	2000158a <DAP_ProcessCommand+0x50a>
2000159e:	2f00      	cmp	r7, #0
200015a0:	f000 80d5 	beq.w	2000174e <DAP_ProcessCommand+0x6ce>
200015a4:	782b      	ldrb	r3, [r5, #0]
200015a6:	3f01      	subs	r7, #1
200015a8:	2b00      	cmp	r3, #0
200015aa:	f040 80d0 	bne.w	2000174e <DAP_ProcessCommand+0x6ce>
200015ae:	4630      	mov	r0, r6
200015b0:	a909      	add	r1, sp, #36	@ 0x24
200015b2:	f7ff fb1b 	bl	20000bec <SWD_Transfer>
200015b6:	2802      	cmp	r0, #2
200015b8:	d0f1      	beq.n	2000159e <DAP_ProcessCommand+0x51e>
200015ba:	4603      	mov	r3, r0
200015bc:	4621      	mov	r1, r4
200015be:	e780      	b.n	200014c2 <DAP_ProcessCommand+0x442>
200015c0:	4661      	mov	r1, ip
200015c2:	46cc      	mov	ip, r9
200015c4:	4603      	mov	r3, r0
200015c6:	46b8      	mov	r8, r7
200015c8:	9c02      	ldr	r4, [sp, #8]
200015ca:	9f01      	ldr	r7, [sp, #4]
200015cc:	9809      	ldr	r0, [sp, #36]	@ 0x24
200015ce:	f8d8 2014 	ldr.w	r2, [r8, #20]
200015d2:	4010      	ands	r0, r2
200015d4:	9a00      	ldr	r2, [sp, #0]
200015d6:	4282      	cmp	r2, r0
200015d8:	d0da      	beq.n	20001590 <DAP_ProcessCommand+0x510>
200015da:	f041 0110 	orr.w	r1, r1, #16
200015de:	b2cb      	uxtb	r3, r1
200015e0:	e7d6      	b.n	20001590 <DAP_ProcessCommand+0x510>
200015e2:	f1ba 0f00 	cmp.w	sl, #0
200015e6:	d171      	bne.n	200016cc <DAP_ProcessCommand+0x64c>
200015e8:	f8d1 3001 	ldr.w	r3, [r1, #1]
200015ec:	06b4      	lsls	r4, r6, #26
200015ee:	f101 0105 	add.w	r1, r1, #5
200015f2:	9309      	str	r3, [sp, #36]	@ 0x24
200015f4:	f140 8085 	bpl.w	20001702 <DAP_ProcessCommand+0x682>
200015f8:	f8c8 3014 	str.w	r3, [r8, #20]
200015fc:	f04f 0a00 	mov.w	sl, #0
20001600:	2301      	movs	r3, #1
20001602:	9a03      	ldr	r2, [sp, #12]
20001604:	3201      	adds	r2, #1
20001606:	9203      	str	r2, [sp, #12]
20001608:	782a      	ldrb	r2, [r5, #0]
2000160a:	2a00      	cmp	r2, #0
2000160c:	f040 8187 	bne.w	2000191e <DAP_ProcessCommand+0x89e>
20001610:	f1bb 0b01 	subs.w	fp, fp, #1
20001614:	f47f af32 	bne.w	2000147c <DAP_ProcessCommand+0x3fc>
20001618:	468c      	mov	ip, r1
2000161a:	e9dd 7401 	ldrd	r7, r4, [sp, #4]
2000161e:	2b01      	cmp	r3, #1
20001620:	f000 814e 	beq.w	200018c0 <DAP_ProcessCommand+0x840>
20001624:	b2db      	uxtb	r3, r3
20001626:	9307      	str	r3, [sp, #28]
20001628:	9a04      	ldr	r2, [sp, #16]
2000162a:	9b06      	ldr	r3, [sp, #24]
2000162c:	1bd5      	subs	r5, r2, r7
2000162e:	ebac 0303 	sub.w	r3, ip, r3
20001632:	ea45 4503 	orr.w	r5, r5, r3, lsl #16
20001636:	9a03      	ldr	r2, [sp, #12]
20001638:	9b07      	ldr	r3, [sp, #28]
2000163a:	7062      	strb	r2, [r4, #1]
2000163c:	70a3      	strb	r3, [r4, #2]
2000163e:	f105 1501 	add.w	r5, r5, #65537	@ 0x10001
20001642:	e54f      	b.n	200010e4 <DAP_ProcessCommand+0x64>
20001644:	b152      	cbz	r2, 2000165c <DAP_ProcessCommand+0x5dc>
20001646:	f1ba 0f00 	cmp.w	sl, #0
2000164a:	d028      	beq.n	2000169e <DAP_ProcessCommand+0x61e>
2000164c:	4649      	mov	r1, r9
2000164e:	9005      	str	r0, [sp, #20]
20001650:	e7d7      	b.n	20001602 <DAP_ProcessCommand+0x582>
20001652:	2f00      	cmp	r7, #0
20001654:	d035      	beq.n	200016c2 <DAP_ProcessCommand+0x642>
20001656:	782b      	ldrb	r3, [r5, #0]
20001658:	3f01      	subs	r7, #1
2000165a:	bb93      	cbnz	r3, 200016c2 <DAP_ProcessCommand+0x642>
2000165c:	4630      	mov	r0, r6
2000165e:	a909      	add	r1, sp, #36	@ 0x24
20001660:	f7ff fac4 	bl	20000bec <SWD_Transfer>
20001664:	2802      	cmp	r0, #2
20001666:	d0f4      	beq.n	20001652 <DAP_ProcessCommand+0x5d2>
20001668:	2801      	cmp	r0, #1
2000166a:	4603      	mov	r3, r0
2000166c:	f040 8202 	bne.w	20001a74 <DAP_ProcessCommand+0x9f4>
20001670:	0636      	lsls	r6, r6, #24
20001672:	d505      	bpl.n	20001680 <DAP_ProcessCommand+0x600>
20001674:	9904      	ldr	r1, [sp, #16]
20001676:	f8d8 2008 	ldr.w	r2, [r8, #8]
2000167a:	f841 2b04 	str.w	r2, [r1], #4
2000167e:	9104      	str	r1, [sp, #16]
20001680:	9804      	ldr	r0, [sp, #16]
20001682:	9a09      	ldr	r2, [sp, #36]	@ 0x24
20001684:	4649      	mov	r1, r9
20001686:	f840 2b04 	str.w	r2, [r0], #4
2000168a:	2200      	movs	r2, #0
2000168c:	9004      	str	r0, [sp, #16]
2000168e:	9205      	str	r2, [sp, #20]
20001690:	e7b7      	b.n	20001602 <DAP_ProcessCommand+0x582>
20001692:	2f00      	cmp	r7, #0
20001694:	f000 8147 	beq.w	20001926 <DAP_ProcessCommand+0x8a6>
20001698:	782b      	ldrb	r3, [r5, #0]
2000169a:	3f01      	subs	r7, #1
2000169c:	b98b      	cbnz	r3, 200016c2 <DAP_ProcessCommand+0x642>
2000169e:	2100      	movs	r1, #0
200016a0:	4630      	mov	r0, r6
200016a2:	f7ff faa3 	bl	20000bec <SWD_Transfer>
200016a6:	2802      	cmp	r0, #2
200016a8:	d0f3      	beq.n	20001692 <DAP_ProcessCommand+0x612>
200016aa:	2801      	cmp	r0, #1
200016ac:	4603      	mov	r3, r0
200016ae:	f040 81e1 	bne.w	20001a74 <DAP_ProcessCommand+0x9f4>
200016b2:	0637      	lsls	r7, r6, #24
200016b4:	f100 8128 	bmi.w	20001908 <DAP_ProcessCommand+0x888>
200016b8:	2200      	movs	r2, #0
200016ba:	4649      	mov	r1, r9
200016bc:	4682      	mov	sl, r0
200016be:	9205      	str	r2, [sp, #20]
200016c0:	e79f      	b.n	20001602 <DAP_ProcessCommand+0x582>
200016c2:	4603      	mov	r3, r0
200016c4:	46cc      	mov	ip, r9
200016c6:	9f01      	ldr	r7, [sp, #4]
200016c8:	9c02      	ldr	r4, [sp, #8]
200016ca:	e761      	b.n	20001590 <DAP_ProcessCommand+0x510>
200016cc:	460c      	mov	r4, r1
200016ce:	f8b8 7010 	ldrh.w	r7, [r8, #16]
200016d2:	e005      	b.n	200016e0 <DAP_ProcessCommand+0x660>
200016d4:	2f00      	cmp	r7, #0
200016d6:	d0f4      	beq.n	200016c2 <DAP_ProcessCommand+0x642>
200016d8:	782b      	ldrb	r3, [r5, #0]
200016da:	3f01      	subs	r7, #1
200016dc:	2b00      	cmp	r3, #0
200016de:	d1f0      	bne.n	200016c2 <DAP_ProcessCommand+0x642>
200016e0:	200e      	movs	r0, #14
200016e2:	a909      	add	r1, sp, #36	@ 0x24
200016e4:	f7ff fa82 	bl	20000bec <SWD_Transfer>
200016e8:	2802      	cmp	r0, #2
200016ea:	d0f3      	beq.n	200016d4 <DAP_ProcessCommand+0x654>
200016ec:	2801      	cmp	r0, #1
200016ee:	4603      	mov	r3, r0
200016f0:	4621      	mov	r1, r4
200016f2:	f040 81bf 	bne.w	20001a74 <DAP_ProcessCommand+0x9f4>
200016f6:	9a04      	ldr	r2, [sp, #16]
200016f8:	9b09      	ldr	r3, [sp, #36]	@ 0x24
200016fa:	f842 3b04 	str.w	r3, [r2], #4
200016fe:	9204      	str	r2, [sp, #16]
20001700:	e772      	b.n	200015e8 <DAP_ProcessCommand+0x568>
20001702:	f8b8 a010 	ldrh.w	sl, [r8, #16]
20001706:	460f      	mov	r7, r1
20001708:	4654      	mov	r4, sl
2000170a:	e007      	b.n	2000171c <DAP_ProcessCommand+0x69c>
2000170c:	2001fa64 	.word	0x2001fa64
20001710:	2c00      	cmp	r4, #0
20001712:	d050      	beq.n	200017b6 <DAP_ProcessCommand+0x736>
20001714:	782b      	ldrb	r3, [r5, #0]
20001716:	3c01      	subs	r4, #1
20001718:	2b00      	cmp	r3, #0
2000171a:	d144      	bne.n	200017a6 <DAP_ProcessCommand+0x726>
2000171c:	4630      	mov	r0, r6
2000171e:	a909      	add	r1, sp, #36	@ 0x24
20001720:	f7ff fa64 	bl	20000bec <SWD_Transfer>
20001724:	2802      	cmp	r0, #2
20001726:	d0f3      	beq.n	20001710 <DAP_ProcessCommand+0x690>
20001728:	2801      	cmp	r0, #1
2000172a:	4603      	mov	r3, r0
2000172c:	4639      	mov	r1, r7
2000172e:	f040 81a5 	bne.w	20001a7c <DAP_ProcessCommand+0x9fc>
20001732:	0630      	lsls	r0, r6, #24
20001734:	d417      	bmi.n	20001766 <DAP_ProcessCommand+0x6e6>
20001736:	f04f 0a00 	mov.w	sl, #0
2000173a:	9305      	str	r3, [sp, #20]
2000173c:	e761      	b.n	20001602 <DAP_ProcessCommand+0x582>
2000173e:	9004      	str	r0, [sp, #16]
20001740:	e6d0      	b.n	200014e4 <DAP_ProcessCommand+0x464>
20001742:	2200      	movs	r2, #0
20001744:	4603      	mov	r3, r0
20001746:	46b8      	mov	r8, r7
20001748:	4649      	mov	r1, r9
2000174a:	9205      	str	r2, [sp, #20]
2000174c:	e759      	b.n	20001602 <DAP_ProcessCommand+0x582>
2000174e:	46cc      	mov	ip, r9
20001750:	46d1      	mov	r9, sl
20001752:	9f01      	ldr	r7, [sp, #4]
20001754:	9c02      	ldr	r4, [sp, #8]
20001756:	46ca      	mov	sl, r9
20001758:	2302      	movs	r3, #2
2000175a:	e719      	b.n	20001590 <DAP_ProcessCommand+0x510>
2000175c:	46cc      	mov	ip, r9
2000175e:	46b9      	mov	r9, r7
20001760:	e9dd 7401 	ldrd	r7, r4, [sp, #4]
20001764:	e7f7      	b.n	20001756 <DAP_ProcessCommand+0x6d6>
20001766:	9804      	ldr	r0, [sp, #16]
20001768:	f8d8 2008 	ldr.w	r2, [r8, #8]
2000176c:	f04f 0a00 	mov.w	sl, #0
20001770:	f840 2b04 	str.w	r2, [r0], #4
20001774:	e9cd 0304 	strd	r0, r3, [sp, #16]
20001778:	e743      	b.n	20001602 <DAP_ProcessCommand+0x582>
2000177a:	46cc      	mov	ip, r9
2000177c:	9f01      	ldr	r7, [sp, #4]
2000177e:	f04f 0900 	mov.w	r9, #0
20001782:	9c02      	ldr	r4, [sp, #8]
20001784:	e7e7      	b.n	20001756 <DAP_ProcessCommand+0x6d6>
20001786:	f8d8 3008 	ldr.w	r3, [r8, #8]
2000178a:	6063      	str	r3, [r4, #4]
2000178c:	f104 0308 	add.w	r3, r4, #8
20001790:	9304      	str	r3, [sp, #16]
20001792:	4653      	mov	r3, sl
20001794:	e6a6      	b.n	200014e4 <DAP_ProcessCommand+0x464>
20001796:	2a00      	cmp	r2, #0
20001798:	f43f ada6 	beq.w	200012e8 <DAP_ProcessCommand+0x268>
2000179c:	6a8a      	ldr	r2, [r1, #40]	@ 0x28
2000179e:	1b52      	subs	r2, r2, r5
200017a0:	4293      	cmp	r3, r2
200017a2:	d8fb      	bhi.n	2000179c <DAP_ProcessCommand+0x71c>
200017a4:	e5a0      	b.n	200012e8 <DAP_ProcessCommand+0x268>
200017a6:	4639      	mov	r1, r7
200017a8:	e9dd 7401 	ldrd	r7, r4, [sp, #4]
200017ac:	4603      	mov	r3, r0
200017ae:	468c      	mov	ip, r1
200017b0:	f04f 0a00 	mov.w	sl, #0
200017b4:	e6ec      	b.n	20001590 <DAP_ProcessCommand+0x510>
200017b6:	4639      	mov	r1, r7
200017b8:	46a2      	mov	sl, r4
200017ba:	4603      	mov	r3, r0
200017bc:	468c      	mov	ip, r1
200017be:	9f01      	ldr	r7, [sp, #4]
200017c0:	9c02      	ldr	r4, [sp, #8]
200017c2:	e6e5      	b.n	20001590 <DAP_ProcessCommand+0x510>
200017c4:	f04f 1502 	mov.w	r5, #131074	@ 0x20002
200017c8:	e48c      	b.n	200010e4 <DAP_ProcessCommand+0x64>
200017ca:	2300      	movs	r3, #0
200017cc:	4dae      	ldr	r5, [pc, #696]	@ (20001a88 <DAP_ProcessCommand+0xa08>)
200017ce:	f8b0 b002 	ldrh.w	fp, [r0, #2]
200017d2:	702b      	strb	r3, [r5, #0]
200017d4:	f1bb 0f00 	cmp.w	fp, #0
200017d8:	f000 8100 	beq.w	200019dc <DAP_ProcessCommand+0x95c>
200017dc:	f890 a004 	ldrb.w	sl, [r0, #4]
200017e0:	f8b8 2010 	ldrh.w	r2, [r8, #16]
200017e4:	f01a 0302 	ands.w	r3, sl, #2
200017e8:	f040 80a4 	bne.w	20001934 <DAP_ProcessCommand+0x8b4>
200017ec:	461f      	mov	r7, r3
200017ee:	1d43      	adds	r3, r0, #5
200017f0:	9300      	str	r3, [sp, #0]
200017f2:	ae09      	add	r6, sp, #36	@ 0x24
200017f4:	9101      	str	r1, [sp, #4]
200017f6:	9a00      	ldr	r2, [sp, #0]
200017f8:	f8b8 4010 	ldrh.w	r4, [r8, #16]
200017fc:	f852 3b04 	ldr.w	r3, [r2], #4
20001800:	9200      	str	r2, [sp, #0]
20001802:	9309      	str	r3, [sp, #36]	@ 0x24
20001804:	e003      	b.n	2000180e <DAP_ProcessCommand+0x78e>
20001806:	b334      	cbz	r4, 20001856 <DAP_ProcessCommand+0x7d6>
20001808:	782a      	ldrb	r2, [r5, #0]
2000180a:	3c01      	subs	r4, #1
2000180c:	bb1a      	cbnz	r2, 20001856 <DAP_ProcessCommand+0x7d6>
2000180e:	4631      	mov	r1, r6
20001810:	4650      	mov	r0, sl
20001812:	f7ff f9eb 	bl	20000bec <SWD_Transfer>
20001816:	2802      	cmp	r0, #2
20001818:	d0f5      	beq.n	20001806 <DAP_ProcessCommand+0x786>
2000181a:	2801      	cmp	r0, #1
2000181c:	d11b      	bne.n	20001856 <DAP_ProcessCommand+0x7d6>
2000181e:	f1bb 0b01 	subs.w	fp, fp, #1
20001822:	f107 0701 	add.w	r7, r7, #1
20001826:	d1e6      	bne.n	200017f6 <DAP_ProcessCommand+0x776>
20001828:	9c01      	ldr	r4, [sp, #4]
2000182a:	f8b8 6010 	ldrh.w	r6, [r8, #16]
2000182e:	e003      	b.n	20001838 <DAP_ProcessCommand+0x7b8>
20001830:	b146      	cbz	r6, 20001844 <DAP_ProcessCommand+0x7c4>
20001832:	782b      	ldrb	r3, [r5, #0]
20001834:	3e01      	subs	r6, #1
20001836:	b92b      	cbnz	r3, 20001844 <DAP_ProcessCommand+0x7c4>
20001838:	2100      	movs	r1, #0
2000183a:	200e      	movs	r0, #14
2000183c:	f7ff f9d6 	bl	20000bec <SWD_Transfer>
20001840:	2802      	cmp	r0, #2
20001842:	d0f5      	beq.n	20001830 <DAP_ProcessCommand+0x7b0>
20001844:	f04f 0b03 	mov.w	fp, #3
20001848:	b2fb      	uxtb	r3, r7
2000184a:	f3c7 2207 	ubfx	r2, r7, #8, #8
2000184e:	7063      	strb	r3, [r4, #1]
20001850:	70a2      	strb	r2, [r4, #2]
20001852:	70e0      	strb	r0, [r4, #3]
20001854:	e4ab      	b.n	200011ae <DAP_ProcessCommand+0x12e>
20001856:	f04f 0b03 	mov.w	fp, #3
2000185a:	9c01      	ldr	r4, [sp, #4]
2000185c:	b2fb      	uxtb	r3, r7
2000185e:	f3c7 2207 	ubfx	r2, r7, #8, #8
20001862:	e7f4      	b.n	2000184e <DAP_ProcessCommand+0x7ce>
20001864:	f8d0 3002 	ldr.w	r3, [r0, #2]
20001868:	a909      	add	r1, sp, #36	@ 0x24
2000186a:	2000      	movs	r0, #0
2000186c:	9309      	str	r3, [sp, #36]	@ 0x24
2000186e:	f7ff f9bd 	bl	20000bec <SWD_Transfer>
20001872:	2300      	movs	r3, #0
20001874:	7063      	strb	r3, [r4, #1]
20001876:	e48b      	b.n	20001190 <DAP_ProcessCommand+0x110>
20001878:	2306      	movs	r3, #6
2000187a:	4a84      	ldr	r2, [pc, #528]	@ (20001a8c <DAP_ProcessCommand+0xa0c>)
2000187c:	4d84      	ldr	r5, [pc, #528]	@ (20001a90 <DAP_ProcessCommand+0xa10>)
2000187e:	6810      	ldr	r0, [r2, #0]
20001880:	8892      	ldrh	r2, [r2, #4]
20001882:	f8c1 0002 	str.w	r0, [r1, #2]
20001886:	80ca      	strh	r2, [r1, #6]
20001888:	7063      	strb	r3, [r4, #1]
2000188a:	e42b      	b.n	200010e4 <DAP_ProcessCommand+0x64>
2000188c:	2300      	movs	r3, #0
2000188e:	f8df 8204 	ldr.w	r8, [pc, #516]	@ 20001a94 <DAP_ProcessCommand+0xa14>
20001892:	2005      	movs	r0, #5
20001894:	f888 3001 	strb.w	r3, [r8, #1]
20001898:	f001 fae4 	bl	20002e64 <clock_get_hz>
2000189c:	1e6b      	subs	r3, r5, #1
2000189e:	eb03 0350 	add.w	r3, r3, r0, lsr #1
200018a2:	fbb3 f3f5 	udiv	r3, r3, r5
200018a6:	2b02      	cmp	r3, #2
200018a8:	bf38      	it	cc
200018aa:	2302      	movcc	r3, #2
200018ac:	3b01      	subs	r3, #1
200018ae:	e4f6      	b.n	2000129e <DAP_ProcessCommand+0x21e>
200018b0:	0852      	lsrs	r2, r2, #1
200018b2:	f43f ad19 	beq.w	200012e8 <DAP_ProcessCommand+0x268>
200018b6:	6a8a      	ldr	r2, [r1, #40]	@ 0x28
200018b8:	1b52      	subs	r2, r2, r5
200018ba:	4293      	cmp	r3, r2
200018bc:	d8fb      	bhi.n	200018b6 <DAP_ProcessCommand+0x836>
200018be:	e513      	b.n	200012e8 <DAP_ProcessCommand+0x268>
200018c0:	f1ba 0f00 	cmp.w	sl, #0
200018c4:	f000 8090 	beq.w	200019e8 <DAP_ProcessCommand+0x968>
200018c8:	f8b8 8010 	ldrh.w	r8, [r8, #16]
200018cc:	46a1      	mov	r9, r4
200018ce:	ae09      	add	r6, sp, #36	@ 0x24
200018d0:	4644      	mov	r4, r8
200018d2:	46e0      	mov	r8, ip
200018d4:	e007      	b.n	200018e6 <DAP_ProcessCommand+0x866>
200018d6:	2c00      	cmp	r4, #0
200018d8:	f000 80ab 	beq.w	20001a32 <DAP_ProcessCommand+0x9b2>
200018dc:	782b      	ldrb	r3, [r5, #0]
200018de:	3c01      	subs	r4, #1
200018e0:	2b00      	cmp	r3, #0
200018e2:	f040 80a6 	bne.w	20001a32 <DAP_ProcessCommand+0x9b2>
200018e6:	4631      	mov	r1, r6
200018e8:	200e      	movs	r0, #14
200018ea:	f7ff f97f 	bl	20000bec <SWD_Transfer>
200018ee:	2802      	cmp	r0, #2
200018f0:	d0f1      	beq.n	200018d6 <DAP_ProcessCommand+0x856>
200018f2:	2801      	cmp	r0, #1
200018f4:	46c4      	mov	ip, r8
200018f6:	464c      	mov	r4, r9
200018f8:	f040 80ba 	bne.w	20001a70 <DAP_ProcessCommand+0x9f0>
200018fc:	9b04      	ldr	r3, [sp, #16]
200018fe:	9a09      	ldr	r2, [sp, #36]	@ 0x24
20001900:	f843 2b04 	str.w	r2, [r3], #4
20001904:	9304      	str	r3, [sp, #16]
20001906:	e68f      	b.n	20001628 <DAP_ProcessCommand+0x5a8>
20001908:	9804      	ldr	r0, [sp, #16]
2000190a:	f8d8 2008 	ldr.w	r2, [r8, #8]
2000190e:	4649      	mov	r1, r9
20001910:	f840 2b04 	str.w	r2, [r0], #4
20001914:	2200      	movs	r2, #0
20001916:	469a      	mov	sl, r3
20001918:	9004      	str	r0, [sp, #16]
2000191a:	9205      	str	r2, [sp, #20]
2000191c:	e671      	b.n	20001602 <DAP_ProcessCommand+0x582>
2000191e:	468c      	mov	ip, r1
20001920:	e9dd 7401 	ldrd	r7, r4, [sp, #4]
20001924:	e634      	b.n	20001590 <DAP_ProcessCommand+0x510>
20001926:	46cc      	mov	ip, r9
20001928:	46b9      	mov	r9, r7
2000192a:	e9dd 7401 	ldrd	r7, r4, [sp, #4]
2000192e:	4603      	mov	r3, r0
20001930:	46ca      	mov	sl, r9
20001932:	e62d      	b.n	20001590 <DAP_ProcessCommand+0x510>
20001934:	f01a 0f01 	tst.w	sl, #1
20001938:	d010      	beq.n	2000195c <DAP_ProcessCommand+0x8dc>
2000193a:	4616      	mov	r6, r2
2000193c:	e006      	b.n	2000194c <DAP_ProcessCommand+0x8cc>
2000193e:	2e00      	cmp	r6, #0
20001940:	f000 8081 	beq.w	20001a46 <DAP_ProcessCommand+0x9c6>
20001944:	782b      	ldrb	r3, [r5, #0]
20001946:	3e01      	subs	r6, #1
20001948:	2b00      	cmp	r3, #0
2000194a:	d17c      	bne.n	20001a46 <DAP_ProcessCommand+0x9c6>
2000194c:	2100      	movs	r1, #0
2000194e:	4650      	mov	r0, sl
20001950:	f7ff f94c 	bl	20000bec <SWD_Transfer>
20001954:	2802      	cmp	r0, #2
20001956:	d0f2      	beq.n	2000193e <DAP_ProcessCommand+0x8be>
20001958:	2801      	cmp	r0, #1
2000195a:	d174      	bne.n	20001a46 <DAP_ProcessCommand+0x9c6>
2000195c:	2200      	movs	r2, #0
2000195e:	f10b 31ff 	add.w	r1, fp, #4294967295	@ 0xffffffff
20001962:	f104 0b04 	add.w	fp, r4, #4
20001966:	e9cd 9401 	strd	r9, r4, [sp, #4]
2000196a:	9700      	str	r7, [sp, #0]
2000196c:	46c1      	mov	r9, r8
2000196e:	465f      	mov	r7, fp
20001970:	4614      	mov	r4, r2
20001972:	468b      	mov	fp, r1
20001974:	46a8      	mov	r8, r5
20001976:	ae09      	add	r6, sp, #36	@ 0x24
20001978:	f1bb 0f00 	cmp.w	fp, #0
2000197c:	d104      	bne.n	20001988 <DAP_ProcessCommand+0x908>
2000197e:	f01a 0f01 	tst.w	sl, #1
20001982:	bf18      	it	ne
20001984:	f04f 0a0e 	movne.w	sl, #14
20001988:	f8b9 5010 	ldrh.w	r5, [r9, #16]
2000198c:	e004      	b.n	20001998 <DAP_ProcessCommand+0x918>
2000198e:	b1bd      	cbz	r5, 200019c0 <DAP_ProcessCommand+0x940>
20001990:	f898 3000 	ldrb.w	r3, [r8]
20001994:	3d01      	subs	r5, #1
20001996:	b99b      	cbnz	r3, 200019c0 <DAP_ProcessCommand+0x940>
20001998:	4631      	mov	r1, r6
2000199a:	4650      	mov	r0, sl
2000199c:	f7ff f926 	bl	20000bec <SWD_Transfer>
200019a0:	2802      	cmp	r0, #2
200019a2:	d0f4      	beq.n	2000198e <DAP_ProcessCommand+0x90e>
200019a4:	2801      	cmp	r0, #1
200019a6:	4603      	mov	r3, r0
200019a8:	d148      	bne.n	20001a3c <DAP_ProcessCommand+0x9bc>
200019aa:	9909      	ldr	r1, [sp, #36]	@ 0x24
200019ac:	3401      	adds	r4, #1
200019ae:	f847 1b04 	str.w	r1, [r7], #4
200019b2:	f10b 31ff 	add.w	r1, fp, #4294967295	@ 0xffffffff
200019b6:	f1bb 0f00 	cmp.w	fp, #0
200019ba:	d03f      	beq.n	20001a3c <DAP_ProcessCommand+0x9bc>
200019bc:	468b      	mov	fp, r1
200019be:	e7db      	b.n	20001978 <DAP_ProcessCommand+0x8f8>
200019c0:	4622      	mov	r2, r4
200019c2:	46bb      	mov	fp, r7
200019c4:	9f00      	ldr	r7, [sp, #0]
200019c6:	b2d3      	uxtb	r3, r2
200019c8:	ebab 0b07 	sub.w	fp, fp, r7
200019cc:	f3c2 2207 	ubfx	r2, r2, #8, #8
200019d0:	e9dd 9401 	ldrd	r9, r4, [sp, #4]
200019d4:	e73b      	b.n	2000184e <DAP_ProcessCommand+0x7ce>
200019d6:	f04f 1503 	mov.w	r5, #196611	@ 0x30003
200019da:	e50c      	b.n	200013f6 <DAP_ProcessCommand+0x376>
200019dc:	4658      	mov	r0, fp
200019de:	f04f 0b03 	mov.w	fp, #3
200019e2:	4602      	mov	r2, r0
200019e4:	4603      	mov	r3, r0
200019e6:	e732      	b.n	2000184e <DAP_ProcessCommand+0x7ce>
200019e8:	9b05      	ldr	r3, [sp, #20]
200019ea:	2b00      	cmp	r3, #0
200019ec:	f43f ae1c 	beq.w	20001628 <DAP_ProcessCommand+0x5a8>
200019f0:	f8b8 6010 	ldrh.w	r6, [r8, #16]
200019f4:	46e0      	mov	r8, ip
200019f6:	e003      	b.n	20001a00 <DAP_ProcessCommand+0x980>
200019f8:	b356      	cbz	r6, 20001a50 <DAP_ProcessCommand+0x9d0>
200019fa:	782b      	ldrb	r3, [r5, #0]
200019fc:	3e01      	subs	r6, #1
200019fe:	bb3b      	cbnz	r3, 20001a50 <DAP_ProcessCommand+0x9d0>
20001a00:	2100      	movs	r1, #0
20001a02:	200e      	movs	r0, #14
20001a04:	f7ff f8f2 	bl	20000bec <SWD_Transfer>
20001a08:	2802      	cmp	r0, #2
20001a0a:	d0f5      	beq.n	200019f8 <DAP_ProcessCommand+0x978>
20001a0c:	46c4      	mov	ip, r8
20001a0e:	9007      	str	r0, [sp, #28]
20001a10:	e60a      	b.n	20001628 <DAP_ProcessCommand+0x5a8>
20001a12:	0892      	lsrs	r2, r2, #2
20001a14:	f43f ac68 	beq.w	200012e8 <DAP_ProcessCommand+0x268>
20001a18:	6a8a      	ldr	r2, [r1, #40]	@ 0x28
20001a1a:	1b52      	subs	r2, r2, r5
20001a1c:	429a      	cmp	r2, r3
20001a1e:	d3fb      	bcc.n	20001a18 <DAP_ProcessCommand+0x998>
20001a20:	e462      	b.n	200012e8 <DAP_ProcessCommand+0x268>
20001a22:	0952      	lsrs	r2, r2, #5
20001a24:	f43f ac60 	beq.w	200012e8 <DAP_ProcessCommand+0x268>
20001a28:	6a8a      	ldr	r2, [r1, #40]	@ 0x28
20001a2a:	1b52      	subs	r2, r2, r5
20001a2c:	4293      	cmp	r3, r2
20001a2e:	d8fb      	bhi.n	20001a28 <DAP_ProcessCommand+0x9a8>
20001a30:	e45a      	b.n	200012e8 <DAP_ProcessCommand+0x268>
20001a32:	46c4      	mov	ip, r8
20001a34:	464c      	mov	r4, r9
20001a36:	2302      	movs	r3, #2
20001a38:	9307      	str	r3, [sp, #28]
20001a3a:	e5f5      	b.n	20001628 <DAP_ProcessCommand+0x5a8>
20001a3c:	46bb      	mov	fp, r7
20001a3e:	4622      	mov	r2, r4
20001a40:	4618      	mov	r0, r3
20001a42:	9f00      	ldr	r7, [sp, #0]
20001a44:	e7bf      	b.n	200019c6 <DAP_ProcessCommand+0x946>
20001a46:	2200      	movs	r2, #0
20001a48:	f04f 0b03 	mov.w	fp, #3
20001a4c:	4613      	mov	r3, r2
20001a4e:	e6fe      	b.n	2000184e <DAP_ProcessCommand+0x7ce>
20001a50:	46c4      	mov	ip, r8
20001a52:	e7f0      	b.n	20001a36 <DAP_ProcessCommand+0x9b6>
20001a54:	4603      	mov	r3, r0
20001a56:	46b8      	mov	r8, r7
20001a58:	4608      	mov	r0, r1
20001a5a:	9c02      	ldr	r4, [sp, #8]
20001a5c:	4661      	mov	r1, ip
20001a5e:	9f01      	ldr	r7, [sp, #4]
20001a60:	46cc      	mov	ip, r9
20001a62:	e5b4      	b.n	200015ce <DAP_ProcessCommand+0x54e>
20001a64:	468c      	mov	ip, r1
20001a66:	f8cd b01c 	str.w	fp, [sp, #28]
20001a6a:	f8cd b00c 	str.w	fp, [sp, #12]
20001a6e:	e5db      	b.n	20001628 <DAP_ProcessCommand+0x5a8>
20001a70:	9007      	str	r0, [sp, #28]
20001a72:	e5d9      	b.n	20001628 <DAP_ProcessCommand+0x5a8>
20001a74:	46cc      	mov	ip, r9
20001a76:	9f01      	ldr	r7, [sp, #4]
20001a78:	9c02      	ldr	r4, [sp, #8]
20001a7a:	e589      	b.n	20001590 <DAP_ProcessCommand+0x510>
20001a7c:	468c      	mov	ip, r1
20001a7e:	e9dd 7401 	ldrd	r7, r4, [sp, #4]
20001a82:	f04f 0a00 	mov.w	sl, #0
20001a86:	e583      	b.n	20001590 <DAP_ProcessCommand+0x510>
20001a88:	2001fa64 	.word	0x2001fa64
20001a8c:	20009280 	.word	0x20009280
20001a90:	00020008 	.word	0x00020008
20001a94:	2000ac60 	.word	0x2000ac60

20001a98 <DAP_ExecuteCommand>:
20001a98:	b5f8      	push	{r3, r4, r5, r6, r7, lr}
20001a9a:	7804      	ldrb	r4, [r0, #0]
20001a9c:	2c7f      	cmp	r4, #127	@ 0x7f
20001a9e:	d003      	beq.n	20001aa8 <DAP_ExecuteCommand+0x10>
20001aa0:	e8bd 40f8 	ldmia.w	sp!, {r3, r4, r5, r6, r7, lr}
20001aa4:	f7ff baec 	b.w	20001080 <DAP_ProcessCommand>
20001aa8:	460d      	mov	r5, r1
20001aaa:	f805 4b02 	strb.w	r4, [r5], #2
20001aae:	7844      	ldrb	r4, [r0, #1]
20001ab0:	f04f 1702 	mov.w	r7, #131074	@ 0x20002
20001ab4:	1c86      	adds	r6, r0, #2
20001ab6:	704c      	strb	r4, [r1, #1]
20001ab8:	b154      	cbz	r4, 20001ad0 <DAP_ExecuteCommand+0x38>
20001aba:	4629      	mov	r1, r5
20001abc:	4630      	mov	r0, r6
20001abe:	f7ff fadf 	bl	20001080 <DAP_ProcessCommand>
20001ac2:	3c01      	subs	r4, #1
20001ac4:	4407      	add	r7, r0
20001ac6:	eb06 4610 	add.w	r6, r6, r0, lsr #16
20001aca:	fa15 f580 	uxtah	r5, r5, r0
20001ace:	d1f4      	bne.n	20001aba <DAP_ExecuteCommand+0x22>
20001ad0:	4638      	mov	r0, r7
20001ad2:	bdf8      	pop	{r3, r4, r5, r6, r7, pc}

20001ad4 <DAP_Setup>:
20001ad4:	b538      	push	{r3, r4, r5, lr}
20001ad6:	2500      	movs	r5, #0
20001ad8:	4c08      	ldr	r4, [pc, #32]	@ (20001afc <DAP_Setup+0x28>)
20001ada:	2005      	movs	r0, #5
20001adc:	8025      	strh	r5, [r4, #0]
20001ade:	f001 f9c1 	bl	20002e64 <clock_get_hz>
20001ae2:	2201      	movs	r2, #1
20001ae4:	2164      	movs	r1, #100	@ 0x64
20001ae6:	4b06      	ldr	r3, [pc, #24]	@ (20001b00 <DAP_Setup+0x2c>)
20001ae8:	8322      	strh	r2, [r4, #24]
20001aea:	fba3 2300 	umull	r2, r3, r3, r0
20001aee:	0cdb      	lsrs	r3, r3, #19
20001af0:	3b01      	subs	r3, #1
20001af2:	7325      	strb	r5, [r4, #12]
20001af4:	6121      	str	r1, [r4, #16]
20001af6:	6165      	str	r5, [r4, #20]
20001af8:	6063      	str	r3, [r4, #4]
20001afa:	bd38      	pop	{r3, r4, r5, pc}
20001afc:	2000ac60 	.word	0x2000ac60
20001b00:	431bde83 	.word	0x431bde83

20001b04 <DAP_ProcessVendorCommand>:
20001b04:	4603      	mov	r3, r0
20001b06:	781b      	ldrb	r3, [r3, #0]
20001b08:	f04f 1001 	mov.w	r0, #65537	@ 0x10001
20001b0c:	700b      	strb	r3, [r1, #0]
20001b0e:	4770      	bx	lr

20001b10 <multicore_doorbell_claim_unused>:
20001b10:	b570      	push	{r4, r5, r6, lr}
20001b12:	4604      	mov	r4, r0
20001b14:	460e      	mov	r6, r1
20001b16:	f000 fc45 	bl	200023a4 <hw_claim_lock>
20001b1a:	4b39      	ldr	r3, [pc, #228]	@ (20001c00 <multicore_doorbell_claim_unused+0xf0>)
20001b1c:	789d      	ldrb	r5, [r3, #2]
20001b1e:	f993 2000 	ldrsb.w	r2, [r3]
20001b22:	f005 0501 	and.w	r5, r5, #1
20001b26:	0fd2      	lsrs	r2, r2, #31
20001b28:	ea42 0245 	orr.w	r2, r2, r5, lsl #1
20001b2c:	4222      	tst	r2, r4
20001b2e:	f893 c000 	ldrb.w	ip, [r3]
20001b32:	d04e      	beq.n	20001bd2 <multicore_doorbell_claim_unused+0xc2>
20001b34:	f993 1001 	ldrsb.w	r1, [r3, #1]
20001b38:	f3cc 1280 	ubfx	r2, ip, #6, #1
20001b3c:	0fc9      	lsrs	r1, r1, #31
20001b3e:	ea42 0241 	orr.w	r2, r2, r1, lsl #1
20001b42:	4222      	tst	r2, r4
20001b44:	7859      	ldrb	r1, [r3, #1]
20001b46:	d033      	beq.n	20001bb0 <multicore_doorbell_claim_unused+0xa0>
20001b48:	f3c1 1580 	ubfx	r5, r1, #6, #1
20001b4c:	f3cc 1240 	ubfx	r2, ip, #5, #1
20001b50:	ea42 0245 	orr.w	r2, r2, r5, lsl #1
20001b54:	4222      	tst	r2, r4
20001b56:	d042      	beq.n	20001bde <multicore_doorbell_claim_unused+0xce>
20001b58:	f3c1 1540 	ubfx	r5, r1, #5, #1
20001b5c:	f3cc 1200 	ubfx	r2, ip, #4, #1
20001b60:	ea42 0245 	orr.w	r2, r2, r5, lsl #1
20001b64:	4222      	tst	r2, r4
20001b66:	d03d      	beq.n	20001be4 <multicore_doorbell_claim_unused+0xd4>
20001b68:	f3c1 1500 	ubfx	r5, r1, #4, #1
20001b6c:	f3cc 02c0 	ubfx	r2, ip, #3, #1
20001b70:	ea42 0245 	orr.w	r2, r2, r5, lsl #1
20001b74:	4222      	tst	r2, r4
20001b76:	d02f      	beq.n	20001bd8 <multicore_doorbell_claim_unused+0xc8>
20001b78:	f3c1 05c0 	ubfx	r5, r1, #3, #1
20001b7c:	f3cc 0280 	ubfx	r2, ip, #2, #1
20001b80:	ea42 0245 	orr.w	r2, r2, r5, lsl #1
20001b84:	4222      	tst	r2, r4
20001b86:	d030      	beq.n	20001bea <multicore_doorbell_claim_unused+0xda>
20001b88:	f3c1 0580 	ubfx	r5, r1, #2, #1
20001b8c:	f3cc 0240 	ubfx	r2, ip, #1, #1
20001b90:	ea42 0245 	orr.w	r2, r2, r5, lsl #1
20001b94:	4222      	tst	r2, r4
20001b96:	d02e      	beq.n	20001bf6 <multicore_doorbell_claim_unused+0xe6>
20001b98:	f001 0202 	and.w	r2, r1, #2
20001b9c:	f00c 0101 	and.w	r1, ip, #1
20001ba0:	430a      	orrs	r2, r1
20001ba2:	ea12 0504 	ands.w	r5, r2, r4
20001ba6:	d029      	beq.n	20001bfc <multicore_doorbell_claim_unused+0xec>
20001ba8:	b316      	cbz	r6, 20001bf0 <multicore_doorbell_claim_unused+0xe0>
20001baa:	4816      	ldr	r0, [pc, #88]	@ (20001c04 <multicore_doorbell_claim_unused+0xf4>)
20001bac:	f000 fbe2 	bl	20002374 <panic>
20001bb0:	2140      	movs	r1, #64	@ 0x40
20001bb2:	2506      	movs	r5, #6
20001bb4:	07e6      	lsls	r6, r4, #31
20001bb6:	bf44      	itt	mi
20001bb8:	ea4c 0c01 	orrmi.w	ip, ip, r1
20001bbc:	f883 c000 	strbmi.w	ip, [r3]
20001bc0:	07a2      	lsls	r2, r4, #30
20001bc2:	d502      	bpl.n	20001bca <multicore_doorbell_claim_unused+0xba>
20001bc4:	785a      	ldrb	r2, [r3, #1]
20001bc6:	430a      	orrs	r2, r1
20001bc8:	705a      	strb	r2, [r3, #1]
20001bca:	f000 fbfd 	bl	200023c8 <hw_claim_unlock>
20001bce:	4628      	mov	r0, r5
20001bd0:	bd70      	pop	{r4, r5, r6, pc}
20001bd2:	2180      	movs	r1, #128	@ 0x80
20001bd4:	2507      	movs	r5, #7
20001bd6:	e7ed      	b.n	20001bb4 <multicore_doorbell_claim_unused+0xa4>
20001bd8:	2108      	movs	r1, #8
20001bda:	2503      	movs	r5, #3
20001bdc:	e7ea      	b.n	20001bb4 <multicore_doorbell_claim_unused+0xa4>
20001bde:	2120      	movs	r1, #32
20001be0:	2505      	movs	r5, #5
20001be2:	e7e7      	b.n	20001bb4 <multicore_doorbell_claim_unused+0xa4>
20001be4:	2110      	movs	r1, #16
20001be6:	2504      	movs	r5, #4
20001be8:	e7e4      	b.n	20001bb4 <multicore_doorbell_claim_unused+0xa4>
20001bea:	2104      	movs	r1, #4
20001bec:	2502      	movs	r5, #2
20001bee:	e7e1      	b.n	20001bb4 <multicore_doorbell_claim_unused+0xa4>
20001bf0:	f06f 0508 	mvn.w	r5, #8
20001bf4:	e7e9      	b.n	20001bca <multicore_doorbell_claim_unused+0xba>
20001bf6:	2102      	movs	r1, #2
20001bf8:	2501      	movs	r5, #1
20001bfa:	e7db      	b.n	20001bb4 <multicore_doorbell_claim_unused+0xa4>
20001bfc:	2101      	movs	r1, #1
20001bfe:	e7d9      	b.n	20001bb4 <multicore_doorbell_claim_unused+0xa4>
20001c00:	2000f228 	.word	0x2000f228
20001c04:	20009288 	.word	0x20009288

20001c08 <lock_init>:
20001c08:	4b01      	ldr	r3, [pc, #4]	@ (20001c10 <lock_init+0x8>)
20001c0a:	440b      	add	r3, r1
20001c0c:	6003      	str	r3, [r0, #0]
20001c0e:	4770      	bx	lr
20001c10:	2000afc0 	.word	0x2000afc0

20001c14 <runtime_init_mutex>:
20001c14:	b5f8      	push	{r3, r4, r5, r6, r7, lr}
20001c16:	4c12      	ldr	r4, [pc, #72]	@ (20001c60 <runtime_init_mutex+0x4c>)
20001c18:	4d12      	ldr	r5, [pc, #72]	@ (20001c64 <runtime_init_mutex+0x50>)
20001c1a:	42ac      	cmp	r4, r5
20001c1c:	d211      	bcs.n	20001c42 <runtime_init_mutex+0x2e>
20001c1e:	f04f 36ff 	mov.w	r6, #4294967295	@ 0xffffffff
20001c22:	2700      	movs	r7, #0
20001c24:	6823      	ldr	r3, [r4, #0]
20001c26:	b16b      	cbz	r3, 20001c44 <runtime_init_mutex+0x30>
20001c28:	f000 fc52 	bl	200024d0 <next_striped_spin_lock_num>
20001c2c:	4601      	mov	r1, r0
20001c2e:	4620      	mov	r0, r4
20001c30:	f7ff ffea 	bl	20001c08 <lock_init>
20001c34:	6066      	str	r6, [r4, #4]
20001c36:	7227      	strb	r7, [r4, #8]
20001c38:	f3bf 8f5f 	dmb	sy
20001c3c:	340c      	adds	r4, #12
20001c3e:	42ac      	cmp	r4, r5
20001c40:	d3f0      	bcc.n	20001c24 <runtime_init_mutex+0x10>
20001c42:	bdf8      	pop	{r3, r4, r5, r6, r7, pc}
20001c44:	f000 fc44 	bl	200024d0 <next_striped_spin_lock_num>
20001c48:	4601      	mov	r1, r0
20001c4a:	4620      	mov	r0, r4
20001c4c:	f7ff ffdc 	bl	20001c08 <lock_init>
20001c50:	6066      	str	r6, [r4, #4]
20001c52:	f3bf 8f5f 	dmb	sy
20001c56:	3408      	adds	r4, #8
20001c58:	42ac      	cmp	r4, r5
20001c5a:	d3e3      	bcc.n	20001c24 <runtime_init_mutex+0x10>
20001c5c:	bdf8      	pop	{r3, r4, r5, r6, r7, pc}
20001c5e:	bf00      	nop
20001c60:	20009784 	.word	0x20009784
20001c64:	20009794 	.word	0x20009794

20001c68 <mutex_init>:
20001c68:	b510      	push	{r4, lr}
20001c6a:	4604      	mov	r4, r0
20001c6c:	f000 fc30 	bl	200024d0 <next_striped_spin_lock_num>
20001c70:	4601      	mov	r1, r0
20001c72:	4620      	mov	r0, r4
20001c74:	f7ff ffc8 	bl	20001c08 <lock_init>
20001c78:	f04f 33ff 	mov.w	r3, #4294967295	@ 0xffffffff
20001c7c:	6063      	str	r3, [r4, #4]
20001c7e:	f3bf 8f5f 	dmb	sy
20001c82:	bd10      	pop	{r4, pc}

20001c84 <critical_section_init>:
20001c84:	b510      	push	{r4, lr}
20001c86:	4604      	mov	r4, r0
20001c88:	2001      	movs	r0, #1
20001c8a:	f000 fc2d 	bl	200024e8 <spin_lock_claim_unused>
20001c8e:	4b03      	ldr	r3, [pc, #12]	@ (20001c9c <critical_section_init+0x18>)
20001c90:	4403      	add	r3, r0
20001c92:	6023      	str	r3, [r4, #0]
20001c94:	f3bf 8f5f 	dmb	sy
20001c98:	bd10      	pop	{r4, pc}
20001c9a:	bf00      	nop
20001c9c:	2000afc0 	.word	0x2000afc0

20001ca0 <alarm_pool_irq_handler>:
20001ca0:	e92d 4ff0 	stmdb	sp!, {r4, r5, r6, r7, r8, r9, sl, fp, lr}
20001ca4:	ed2d 8b02 	vpush	{d8}
20001ca8:	b085      	sub	sp, #20
20001caa:	f3ef 8305 	mrs	r3, IPSR
20001cae:	b2db      	uxtb	r3, r3
20001cb0:	3b10      	subs	r3, #16
20001cb2:	089a      	lsrs	r2, r3, #2
20001cb4:	bf18      	it	ne
20001cb6:	2201      	movne	r2, #1
20001cb8:	f04f 0101 	mov.w	r1, #1
20001cbc:	f003 0003 	and.w	r0, r3, #3
20001cc0:	bf18      	it	ne
20001cc2:	4daf      	ldrne	r5, [pc, #700]	@ (20001f80 <alarm_pool_irq_handler+0x2e0>)
20001cc4:	4baf      	ldr	r3, [pc, #700]	@ (20001f84 <alarm_pool_irq_handler+0x2e4>)
20001cc6:	bf08      	it	eq
20001cc8:	4daf      	ldreq	r5, [pc, #700]	@ (20001f88 <alarm_pool_irq_handler+0x2e8>)
20001cca:	eb00 0282 	add.w	r2, r0, r2, lsl #2
20001cce:	f853 6022 	ldr.w	r6, [r3, r2, lsl #2]
20001cd2:	fa01 fb00 	lsl.w	fp, r1, r0
20001cd6:	f505 5341 	add.w	r3, r5, #12352	@ 0x3040
20001cda:	ed9f 8ba7 	vldr	d8, [pc, #668]	@ 20001f78 <alarm_pool_irq_handler+0x2d8>
20001cde:	9001      	str	r0, [sp, #4]
20001ce0:	f8c3 b004 	str.w	fp, [r3, #4]
20001ce4:	e02e      	b.n	20001d44 <alarm_pool_irq_handler+0xa4>
20001ce6:	88b3      	ldrh	r3, [r6, #4]
20001ce8:	0418      	lsls	r0, r3, #16
20001cea:	f140 8092 	bpl.w	20001e12 <alarm_pool_irq_handler+0x172>
20001cee:	79b3      	ldrb	r3, [r6, #6]
20001cf0:	2b00      	cmp	r3, #0
20001cf2:	f040 80dc 	bne.w	20001eae <alarm_pool_irq_handler+0x20e>
20001cf6:	f9b6 1008 	ldrsh.w	r1, [r6, #8]
20001cfa:	2900      	cmp	r1, #0
20001cfc:	f2c0 811d 	blt.w	20001f3a <alarm_pool_irq_handler+0x29a>
20001d00:	6973      	ldr	r3, [r6, #20]
20001d02:	eb01 0141 	add.w	r1, r1, r1, lsl #1
20001d06:	eb03 03c1 	add.w	r3, r3, r1, lsl #3
20001d0a:	e9d3 4702 	ldrd	r4, r7, [r3, #8]
20001d0e:	f1b7 3fff 	cmp.w	r7, #4294967295	@ 0xffffffff
20001d12:	bf08      	it	eq
20001d14:	f1b4 3fff 	cmpeq.w	r4, #4294967295	@ 0xffffffff
20001d18:	d00d      	beq.n	20001d36 <alarm_pool_irq_handler+0x96>
20001d1a:	9b01      	ldr	r3, [sp, #4]
20001d1c:	eb05 0183 	add.w	r1, r5, r3, lsl #2
20001d20:	6aab      	ldr	r3, [r5, #40]	@ 0x28
20001d22:	690a      	ldr	r2, [r1, #16]
20001d24:	1ad2      	subs	r2, r2, r3
20001d26:	1ae3      	subs	r3, r4, r3
20001d28:	4293      	cmp	r3, r2
20001d2a:	d303      	bcc.n	20001d34 <alarm_pool_irq_handler+0x94>
20001d2c:	6a2b      	ldr	r3, [r5, #32]
20001d2e:	ea13 0f0b 	tst.w	r3, fp
20001d32:	d100      	bne.n	20001d36 <alarm_pool_irq_handler+0x96>
20001d34:	610c      	str	r4, [r1, #16]
20001d36:	4628      	mov	r0, r5
20001d38:	f000 fad8 	bl	200022ec <timer_time_us_64>
20001d3c:	42a0      	cmp	r0, r4
20001d3e:	41b9      	sbcs	r1, r7
20001d40:	f2c0 80fb 	blt.w	20001f3a <alarm_pool_irq_handler+0x29a>
20001d44:	f9b6 3008 	ldrsh.w	r3, [r6, #8]
20001d48:	f8c5 b03c 	str.w	fp, [r5, #60]	@ 0x3c
20001d4c:	2b00      	cmp	r3, #0
20001d4e:	9300      	str	r3, [sp, #0]
20001d50:	dbc9      	blt.n	20001ce6 <alarm_pool_irq_handler+0x46>
20001d52:	f8d6 9014 	ldr.w	r9, [r6, #20]
20001d56:	eb03 0a43 	add.w	sl, r3, r3, lsl #1
20001d5a:	4628      	mov	r0, r5
20001d5c:	eb09 07ca 	add.w	r7, r9, sl, lsl #3
20001d60:	e9d7 4802 	ldrd	r4, r8, [r7, #8]
20001d64:	f000 fac2 	bl	200022ec <timer_time_us_64>
20001d68:	42a0      	cmp	r0, r4
20001d6a:	eb71 0108 	sbcs.w	r1, r1, r8
20001d6e:	dbba      	blt.n	20001ce6 <alarm_pool_irq_handler+0x46>
20001d70:	f1b8 0f00 	cmp.w	r8, #0
20001d74:	f2c0 80c3 	blt.w	20001efe <alarm_pool_irq_handler+0x25e>
20001d78:	e9d7 3104 	ldrd	r3, r1, [r7, #16]
20001d7c:	4a83      	ldr	r2, [pc, #524]	@ (20001f8c <alarm_pool_irq_handler+0x2ec>)
20001d7e:	4293      	cmp	r3, r2
20001d80:	f000 80ed 	beq.w	20001f5e <alarm_pool_irq_handler+0x2be>
20001d84:	887a      	ldrh	r2, [r7, #2]
20001d86:	f9b6 0008 	ldrsh.w	r0, [r6, #8]
20001d8a:	b292      	uxth	r2, r2
20001d8c:	ea42 4000 	orr.w	r0, r2, r0, lsl #16
20001d90:	4798      	blx	r3
20001d92:	4602      	mov	r2, r0
20001d94:	460b      	mov	r3, r1
20001d96:	ea52 0103 	orrs.w	r1, r2, r3
20001d9a:	f000 80b0 	beq.w	20001efe <alarm_pool_irq_handler+0x25e>
20001d9e:	2b00      	cmp	r3, #0
20001da0:	f280 80d1 	bge.w	20001f46 <alarm_pool_irq_handler+0x2a6>
20001da4:	ebb4 0e02 	subs.w	lr, r4, r2
20001da8:	eb68 0803 	sbc.w	r8, r8, r3
20001dac:	f939 303a 	ldrsh.w	r3, [r9, sl, lsl #3]
20001db0:	e9c7 e802 	strd	lr, r8, [r7, #8]
20001db4:	2b00      	cmp	r3, #0
20001db6:	db96      	blt.n	20001ce6 <alarm_pool_irq_handler+0x46>
20001db8:	6971      	ldr	r1, [r6, #20]
20001dba:	eb03 0243 	add.w	r2, r3, r3, lsl #1
20001dbe:	eb01 02c2 	add.w	r2, r1, r2, lsl #3
20001dc2:	e9d2 7002 	ldrd	r7, r0, [r2, #8]
20001dc6:	45be      	cmp	lr, r7
20001dc8:	eb78 0c00 	sbcs.w	ip, r8, r0
20001dcc:	ea4f 0243 	mov.w	r2, r3, lsl #1
20001dd0:	db89      	blt.n	20001ce6 <alarm_pool_irq_handler+0x46>
20001dd2:	46b4      	mov	ip, r6
20001dd4:	f82c 3f08 	strh.w	r3, [ip, #8]!
20001dd8:	e00b      	b.n	20001df2 <alarm_pool_irq_handler+0x152>
20001dda:	f931 3032 	ldrsh.w	r3, [r1, r2, lsl #3]
20001dde:	46a4      	mov	ip, r4
20001de0:	2b00      	cmp	r3, #0
20001de2:	db0d      	blt.n	20001e00 <alarm_pool_irq_handler+0x160>
20001de4:	eb03 0043 	add.w	r0, r3, r3, lsl #1
20001de8:	eb01 00c0 	add.w	r0, r1, r0, lsl #3
20001dec:	005a      	lsls	r2, r3, #1
20001dee:	e9d0 7002 	ldrd	r7, r0, [r0, #8]
20001df2:	45be      	cmp	lr, r7
20001df4:	441a      	add	r2, r3
20001df6:	eb78 0000 	sbcs.w	r0, r8, r0
20001dfa:	eb01 04c2 	add.w	r4, r1, r2, lsl #3
20001dfe:	daec      	bge.n	20001dda <alarm_pool_irq_handler+0x13a>
20001e00:	f829 303a 	strh.w	r3, [r9, sl, lsl #3]
20001e04:	9b00      	ldr	r3, [sp, #0]
20001e06:	f8ac 3000 	strh.w	r3, [ip]
20001e0a:	88b3      	ldrh	r3, [r6, #4]
20001e0c:	0418      	lsls	r0, r3, #16
20001e0e:	f53f af6e 	bmi.w	20001cee <alarm_pool_irq_handler+0x4e>
20001e12:	6933      	ldr	r3, [r6, #16]
20001e14:	f3ef 8210 	mrs	r2, PRIMASK
20001e18:	b672      	cpsid	i
20001e1a:	e8d3 0fcf 	ldaexb	r0, [r3]
20001e1e:	2101      	movs	r1, #1
20001e20:	2800      	cmp	r0, #0
20001e22:	d1fa      	bne.n	20001e1a <alarm_pool_irq_handler+0x17a>
20001e24:	e8c3 1f40 	strexb	r0, r1, [r3]
20001e28:	2800      	cmp	r0, #0
20001e2a:	d1f6      	bne.n	20001e1a <alarm_pool_irq_handler+0x17a>
20001e2c:	f3bf 8f5f 	dmb	sy
20001e30:	f64f 74ff 	movw	r4, #65535	@ 0xffff
20001e34:	88b0      	ldrh	r0, [r6, #4]
20001e36:	2300      	movs	r3, #0
20001e38:	6931      	ldr	r1, [r6, #16]
20001e3a:	b200      	sxth	r0, r0
20001e3c:	80b4      	strh	r4, [r6, #4]
20001e3e:	e8c1 3f8f 	stlb	r3, [r1]
20001e42:	f382 8810 	msr	PRIMASK, r2
20001e46:	4298      	cmp	r0, r3
20001e48:	f6ff af51 	blt.w	20001cee <alarm_pool_irq_handler+0x4e>
20001e4c:	4607      	mov	r7, r0
20001e4e:	46a9      	mov	r9, r5
20001e50:	6974      	ldr	r4, [r6, #20]
20001e52:	f106 0808 	add.w	r8, r6, #8
20001e56:	eb07 0e47 	add.w	lr, r7, r7, lsl #1
20001e5a:	eb04 03ce 	add.w	r3, r4, lr, lsl #3
20001e5e:	e9d3 5002 	ldrd	r5, r0, [r3, #8]
20001e62:	f9b6 3008 	ldrsh.w	r3, [r6, #8]
20001e66:	46c4      	mov	ip, r8
20001e68:	2b00      	cmp	r3, #0
20001e6a:	db13      	blt.n	20001e94 <alarm_pool_irq_handler+0x1f4>
20001e6c:	46b2      	mov	sl, r6
20001e6e:	9700      	str	r7, [sp, #0]
20001e70:	e004      	b.n	20001e7c <alarm_pool_irq_handler+0x1dc>
20001e72:	f934 3036 	ldrsh.w	r3, [r4, r6, lsl #3]
20001e76:	4694      	mov	ip, r2
20001e78:	2b00      	cmp	r3, #0
20001e7a:	db09      	blt.n	20001e90 <alarm_pool_irq_handler+0x1f0>
20001e7c:	eb03 0643 	add.w	r6, r3, r3, lsl #1
20001e80:	eb04 02c6 	add.w	r2, r4, r6, lsl #3
20001e84:	e9d2 7102 	ldrd	r7, r1, [r2, #8]
20001e88:	42bd      	cmp	r5, r7
20001e8a:	eb70 0101 	sbcs.w	r1, r0, r1
20001e8e:	daf0      	bge.n	20001e72 <alarm_pool_irq_handler+0x1d2>
20001e90:	4656      	mov	r6, sl
20001e92:	9f00      	ldr	r7, [sp, #0]
20001e94:	f8ac 7000 	strh.w	r7, [ip]
20001e98:	f934 703e 	ldrsh.w	r7, [r4, lr, lsl #3]
20001e9c:	f824 303e 	strh.w	r3, [r4, lr, lsl #3]
20001ea0:	2f00      	cmp	r7, #0
20001ea2:	dad8      	bge.n	20001e56 <alarm_pool_irq_handler+0x1b6>
20001ea4:	79b3      	ldrb	r3, [r6, #6]
20001ea6:	464d      	mov	r5, r9
20001ea8:	2b00      	cmp	r3, #0
20001eaa:	f43f af24 	beq.w	20001cf6 <alarm_pool_irq_handler+0x56>
20001eae:	2300      	movs	r3, #0
20001eb0:	71b3      	strb	r3, [r6, #6]
20001eb2:	f9b6 3008 	ldrsh.w	r3, [r6, #8]
20001eb6:	f106 0808 	add.w	r8, r6, #8
20001eba:	1c59      	adds	r1, r3, #1
20001ebc:	d03d      	beq.n	20001f3a <alarm_pool_irq_handler+0x29a>
20001ebe:	4619      	mov	r1, r3
20001ec0:	6977      	ldr	r7, [r6, #20]
20001ec2:	e003      	b.n	20001ecc <alarm_pool_irq_handler+0x22c>
20001ec4:	4680      	mov	r8, r0
20001ec6:	1c5a      	adds	r2, r3, #1
20001ec8:	f43f af17 	beq.w	20001cfa <alarm_pool_irq_handler+0x5a>
20001ecc:	eb03 0243 	add.w	r2, r3, r3, lsl #1
20001ed0:	eb07 00c2 	add.w	r0, r7, r2, lsl #3
20001ed4:	f8b0 c002 	ldrh.w	ip, [r0, #2]
20001ed8:	461c      	mov	r4, r3
20001eda:	f41c 4f00 	tst.w	ip, #32768	@ 0x8000
20001ede:	469e      	mov	lr, r3
20001ee0:	f937 3032 	ldrsh.w	r3, [r7, r2, lsl #3]
20001ee4:	d0ee      	beq.n	20001ec4 <alarm_pool_irq_handler+0x224>
20001ee6:	428c      	cmp	r4, r1
20001ee8:	ed80 8b02 	vstr	d8, [r0, #8]
20001eec:	d005      	beq.n	20001efa <alarm_pool_irq_handler+0x25a>
20001eee:	f8a8 3000 	strh.w	r3, [r8]
20001ef2:	8931      	ldrh	r1, [r6, #8]
20001ef4:	f827 1032 	strh.w	r1, [r7, r2, lsl #3]
20001ef8:	8134      	strh	r4, [r6, #8]
20001efa:	4671      	mov	r1, lr
20001efc:	e7e3      	b.n	20001ec6 <alarm_pool_irq_handler+0x226>
20001efe:	f839 303a 	ldrh.w	r3, [r9, sl, lsl #3]
20001f02:	8133      	strh	r3, [r6, #8]
20001f04:	6933      	ldr	r3, [r6, #16]
20001f06:	f3ef 8210 	mrs	r2, PRIMASK
20001f0a:	b672      	cpsid	i
20001f0c:	e8d3 0fcf 	ldaexb	r0, [r3]
20001f10:	2101      	movs	r1, #1
20001f12:	2800      	cmp	r0, #0
20001f14:	d1fa      	bne.n	20001f0c <alarm_pool_irq_handler+0x26c>
20001f16:	e8c3 1f40 	strexb	r0, r1, [r3]
20001f1a:	2800      	cmp	r0, #0
20001f1c:	d1f6      	bne.n	20001f0c <alarm_pool_irq_handler+0x26c>
20001f1e:	f3bf 8f5f 	dmb	sy
20001f22:	8873      	ldrh	r3, [r6, #2]
20001f24:	6931      	ldr	r1, [r6, #16]
20001f26:	f829 303a 	strh.w	r3, [r9, sl, lsl #3]
20001f2a:	9b00      	ldr	r3, [sp, #0]
20001f2c:	8073      	strh	r3, [r6, #2]
20001f2e:	2300      	movs	r3, #0
20001f30:	e8c1 3f8f 	stlb	r3, [r1]
20001f34:	f382 8810 	msr	PRIMASK, r2
20001f38:	e6d5      	b.n	20001ce6 <alarm_pool_irq_handler+0x46>
20001f3a:	bf40      	sev
20001f3c:	b005      	add	sp, #20
20001f3e:	ecbd 8b02 	vpop	{d8}
20001f42:	e8bd 8ff0 	ldmia.w	sp!, {r4, r5, r6, r7, r8, r9, sl, fp, pc}
20001f46:	4628      	mov	r0, r5
20001f48:	e9cd 2302 	strd	r2, r3, [sp, #8]
20001f4c:	f000 f9ce 	bl	200022ec <timer_time_us_64>
20001f50:	9a02      	ldr	r2, [sp, #8]
20001f52:	9b03      	ldr	r3, [sp, #12]
20001f54:	eb10 0e02 	adds.w	lr, r0, r2
20001f58:	eb43 0801 	adc.w	r8, r3, r1
20001f5c:	e726      	b.n	20001dac <alarm_pool_irq_handler+0x10c>
20001f5e:	4608      	mov	r0, r1
20001f60:	690b      	ldr	r3, [r1, #16]
20001f62:	9102      	str	r1, [sp, #8]
20001f64:	4798      	blx	r3
20001f66:	2800      	cmp	r0, #0
20001f68:	d0c9      	beq.n	20001efe <alarm_pool_irq_handler+0x25e>
20001f6a:	9902      	ldr	r1, [sp, #8]
20001f6c:	e9d1 2300 	ldrd	r2, r3, [r1]
20001f70:	e711      	b.n	20001d96 <alarm_pool_irq_handler+0xf6>
20001f72:	bf00      	nop
20001f74:	f3af 8000 	nop.w
20001f78:	ffffffff 	.word	0xffffffff
20001f7c:	ffffffff 	.word	0xffffffff
20001f80:	400b8000 	.word	0x400b8000
20001f84:	2000f644 	.word	0x2000f644
20001f88:	400b0000 	.word	0x400b0000
20001f8c:	20001ca1 	.word	0x20001ca1

20001f90 <sleep_until_callback>:
20001f90:	480b      	ldr	r0, [pc, #44]	@ (20001fc0 <sleep_until_callback+0x30>)
20001f92:	b508      	push	{r3, lr}
20001f94:	6803      	ldr	r3, [r0, #0]
20001f96:	f3ef 8110 	mrs	r1, PRIMASK
20001f9a:	b672      	cpsid	i
20001f9c:	e8d3 cfcf 	ldaexb	ip, [r3]
20001fa0:	2201      	movs	r2, #1
20001fa2:	f1bc 0f00 	cmp.w	ip, #0
20001fa6:	d1f9      	bne.n	20001f9c <sleep_until_callback+0xc>
20001fa8:	e8c3 2f4c 	strexb	ip, r2, [r3]
20001fac:	f1bc 0f00 	cmp.w	ip, #0
20001fb0:	d1f4      	bne.n	20001f9c <sleep_until_callback+0xc>
20001fb2:	f3bf 8f5f 	dmb	sy
20001fb6:	f004 f8e5 	bl	20006184 <vPortLockInternalSpinUnlockWithNotify>
20001fba:	2000      	movs	r0, #0
20001fbc:	2100      	movs	r1, #0
20001fbe:	bd08      	pop	{r3, pc}
20001fc0:	2000f930 	.word	0x2000f930

20001fc4 <runtime_init_default_alarm_pool>:
20001fc4:	e92d 4ff8 	stmdb	sp!, {r3, r4, r5, r6, r7, r8, r9, sl, fp, lr}
20001fc8:	4c36      	ldr	r4, [pc, #216]	@ (200020a4 <runtime_init_default_alarm_pool+0xe0>)
20001fca:	6925      	ldr	r5, [r4, #16]
20001fcc:	b12d      	cbz	r5, 20001fda <runtime_init_default_alarm_pool+0x16>
20001fce:	e8bd 4ff8 	ldmia.w	sp!, {r3, r4, r5, r6, r7, r8, r9, sl, fp, lr}
20001fd2:	210a      	movs	r1, #10
20001fd4:	4834      	ldr	r0, [pc, #208]	@ (200020a8 <runtime_init_default_alarm_pool+0xe4>)
20001fd6:	f7ff be17 	b.w	20001c08 <lock_init>
20001fda:	f8df 80e4 	ldr.w	r8, [pc, #228]	@ 200020c0 <runtime_init_default_alarm_pool+0xfc>
20001fde:	2103      	movs	r1, #3
20001fe0:	4640      	mov	r0, r8
20001fe2:	f000 f971 	bl	200022c8 <timer_hardware_alarm_claim>
20001fe6:	2603      	movs	r6, #3
20001fe8:	f8c4 800c 	str.w	r8, [r4, #12]
20001fec:	f000 fa70 	bl	200024d0 <next_striped_spin_lock_num>
20001ff0:	f04f 4c50 	mov.w	ip, #3489660928	@ 0xd0000000
20001ff4:	4b2d      	ldr	r3, [pc, #180]	@ (200020ac <runtime_init_default_alarm_pool+0xe8>)
20001ff6:	7026      	strb	r6, [r4, #0]
20001ff8:	4403      	add	r3, r0
20001ffa:	6123      	str	r3, [r4, #16]
20001ffc:	f8dc 3000 	ldr.w	r3, [ip]
20002000:	210f      	movs	r1, #15
20002002:	7063      	strb	r3, [r4, #1]
20002004:	6963      	ldr	r3, [r4, #20]
20002006:	8061      	strh	r1, [r4, #2]
20002008:	831d      	strh	r5, [r3, #24]
2000200a:	f04f 0504 	mov.w	r5, #4
2000200e:	f8a3 5078 	strh.w	r5, [r3, #120]	@ 0x78
20002012:	f04f 0505 	mov.w	r5, #5
20002016:	f8a3 5090 	strh.w	r5, [r3, #144]	@ 0x90
2000201a:	f04f 0506 	mov.w	r5, #6
2000201e:	f8a3 50a8 	strh.w	r5, [r3, #168]	@ 0xa8
20002022:	f04f 0507 	mov.w	r5, #7
20002026:	210e      	movs	r1, #14
20002028:	f64f 72ff 	movw	r2, #65535	@ 0xffff
2000202c:	2708      	movs	r7, #8
2000202e:	f04f 0e0a 	mov.w	lr, #10
20002032:	f8a3 50c0 	strh.w	r5, [r3, #192]	@ 0xc0
20002036:	f04f 0901 	mov.w	r9, #1
2000203a:	f04f 0c0c 	mov.w	ip, #12
2000203e:	f04f 0b02 	mov.w	fp, #2
20002042:	f04f 0a09 	mov.w	sl, #9
20002046:	200d      	movs	r0, #13
20002048:	f04f 050b 	mov.w	r5, #11
2000204c:	f8a3 1168 	strh.w	r1, [r3, #360]	@ 0x168
20002050:	4917      	ldr	r1, [pc, #92]	@ (200020b0 <runtime_init_default_alarm_pool+0xec>)
20002052:	80a2      	strh	r2, [r4, #4]
20002054:	f8a3 e108 	strh.w	lr, [r3, #264]	@ 0x108
20002058:	60a1      	str	r1, [r4, #8]
2000205a:	f8a3 b048 	strh.w	fp, [r3, #72]	@ 0x48
2000205e:	f8a3 a0f0 	strh.w	sl, [r3, #240]	@ 0xf0
20002062:	f8a3 5120 	strh.w	r5, [r3, #288]	@ 0x120
20002066:	f8a3 c138 	strh.w	ip, [r3, #312]	@ 0x138
2000206a:	f8a3 0150 	strh.w	r0, [r3, #336]	@ 0x150
2000206e:	f8a3 9030 	strh.w	r9, [r3, #48]	@ 0x30
20002072:	f8a3 6060 	strh.w	r6, [r3, #96]	@ 0x60
20002076:	f8a3 70d8 	strh.w	r7, [r3, #216]	@ 0xd8
2000207a:	801a      	strh	r2, [r3, #0]
2000207c:	4b0d      	ldr	r3, [pc, #52]	@ (200020b4 <runtime_init_default_alarm_pool+0xf0>)
2000207e:	4630      	mov	r0, r6
20002080:	f8c8 7020 	str.w	r7, [r8, #32]
20002084:	490c      	ldr	r1, [pc, #48]	@ (200020b8 <runtime_init_default_alarm_pool+0xf4>)
20002086:	60dc      	str	r4, [r3, #12]
20002088:	f000 fa88 	bl	2000259c <irq_set_exclusive_handler>
2000208c:	4649      	mov	r1, r9
2000208e:	4630      	mov	r0, r6
20002090:	f000 fa6e 	bl	20002570 <irq_set_enabled>
20002094:	4b09      	ldr	r3, [pc, #36]	@ (200020bc <runtime_init_default_alarm_pool+0xf8>)
20002096:	210a      	movs	r1, #10
20002098:	641f      	str	r7, [r3, #64]	@ 0x40
2000209a:	4803      	ldr	r0, [pc, #12]	@ (200020a8 <runtime_init_default_alarm_pool+0xe4>)
2000209c:	e8bd 4ff8 	ldmia.w	sp!, {r3, r4, r5, r6, r7, r8, r9, sl, fp, lr}
200020a0:	f7ff bdb2 	b.w	20001c08 <lock_init>
200020a4:	200096e4 	.word	0x200096e4
200020a8:	2000f930 	.word	0x2000f930
200020ac:	2000afc0 	.word	0x2000afc0
200020b0:	0010ffff 	.word	0x0010ffff
200020b4:	2000f644 	.word	0x2000f644
200020b8:	20001ca1 	.word	0x20001ca1
200020bc:	400b2000 	.word	0x400b2000
200020c0:	400b0000 	.word	0x400b0000

200020c4 <alarm_pool_add_alarm_at_force_in_context>:
200020c4:	4601      	mov	r1, r0
200020c6:	b5f0      	push	{r4, r5, r6, r7, lr}
200020c8:	6900      	ldr	r0, [r0, #16]
200020ca:	f3ef 8710 	mrs	r7, PRIMASK
200020ce:	b672      	cpsid	i
200020d0:	e8d0 5fcf 	ldaexb	r5, [r0]
200020d4:	2401      	movs	r4, #1
200020d6:	2d00      	cmp	r5, #0
200020d8:	d1fa      	bne.n	200020d0 <alarm_pool_add_alarm_at_force_in_context+0xc>
200020da:	e8c0 4f45 	strexb	r5, r4, [r0]
200020de:	2d00      	cmp	r5, #0
200020e0:	d1f6      	bne.n	200020d0 <alarm_pool_add_alarm_at_force_in_context+0xc>
200020e2:	f3bf 8f5f 	dmb	sy
200020e6:	f9b1 e002 	ldrsh.w	lr, [r1, #2]
200020ea:	694c      	ldr	r4, [r1, #20]
200020ec:	eb0e 0c4e 	add.w	ip, lr, lr, lsl #1
200020f0:	f1be 0f00 	cmp.w	lr, #0
200020f4:	ea4f 05cc 	mov.w	r5, ip, lsl #3
200020f8:	eb04 0ccc 	add.w	ip, r4, ip, lsl #3
200020fc:	db3d      	blt.n	2000217a <alarm_pool_add_alarm_at_force_in_context+0xb6>
200020fe:	5b60      	ldrh	r0, [r4, r5]
20002100:	2600      	movs	r6, #0
20002102:	8048      	strh	r0, [r1, #2]
20002104:	6908      	ldr	r0, [r1, #16]
20002106:	e8c0 6f8f 	stlb	r6, [r0]
2000210a:	f387 8810 	msr	PRIMASK, r7
2000210e:	f8bc 0002 	ldrh.w	r0, [ip, #2]
20002112:	e9cc 2302 	strd	r2, r3, [ip, #8]
20002116:	3001      	adds	r0, #1
20002118:	f3c0 000e 	ubfx	r0, r0, #0, #15
2000211c:	2801      	cmp	r0, #1
2000211e:	bf38      	it	cc
20002120:	2001      	movcc	r0, #1
20002122:	9b05      	ldr	r3, [sp, #20]
20002124:	f8ac 0002 	strh.w	r0, [ip, #2]
20002128:	f8cc 3010 	str.w	r3, [ip, #16]
2000212c:	9b06      	ldr	r3, [sp, #24]
2000212e:	ea40 400e 	orr.w	r0, r0, lr, lsl #16
20002132:	f8cc 3014 	str.w	r3, [ip, #20]
20002136:	690b      	ldr	r3, [r1, #16]
20002138:	f3ef 8210 	mrs	r2, PRIMASK
2000213c:	b672      	cpsid	i
2000213e:	e8d3 cfcf 	ldaexb	ip, [r3]
20002142:	2701      	movs	r7, #1
20002144:	f1bc 0f00 	cmp.w	ip, #0
20002148:	d1f9      	bne.n	2000213e <alarm_pool_add_alarm_at_force_in_context+0x7a>
2000214a:	e8c3 7f4c 	strexb	ip, r7, [r3]
2000214e:	f1bc 0f00 	cmp.w	ip, #0
20002152:	d1f4      	bne.n	2000213e <alarm_pool_add_alarm_at_force_in_context+0x7a>
20002154:	f3bf 8f5f 	dmb	sy
20002158:	888b      	ldrh	r3, [r1, #4]
2000215a:	5363      	strh	r3, [r4, r5]
2000215c:	f8a1 e004 	strh.w	lr, [r1, #4]
20002160:	690b      	ldr	r3, [r1, #16]
20002162:	e8c3 6f8f 	stlb	r6, [r3]
20002166:	f382 8810 	msr	PRIMASK, r2
2000216a:	2201      	movs	r2, #1
2000216c:	68cb      	ldr	r3, [r1, #12]
2000216e:	7809      	ldrb	r1, [r1, #0]
20002170:	f503 5301 	add.w	r3, r3, #8256	@ 0x2040
20002174:	408a      	lsls	r2, r1
20002176:	605a      	str	r2, [r3, #4]
20002178:	bdf0      	pop	{r4, r5, r6, r7, pc}
2000217a:	2300      	movs	r3, #0
2000217c:	690a      	ldr	r2, [r1, #16]
2000217e:	e8c2 3f8f 	stlb	r3, [r2]
20002182:	f387 8810 	msr	PRIMASK, r7
20002186:	f04f 30ff 	mov.w	r0, #4294967295	@ 0xffffffff
2000218a:	bdf0      	pop	{r4, r5, r6, r7, pc}

2000218c <alarm_pool_cancel_alarm>:
2000218c:	4603      	mov	r3, r0
2000218e:	8940      	ldrh	r0, [r0, #10]
20002190:	ebb0 4f21 	cmp.w	r0, r1, asr #16
20002194:	dd37      	ble.n	20002206 <alarm_pool_cancel_alarm+0x7a>
20002196:	6958      	ldr	r0, [r3, #20]
20002198:	140a      	asrs	r2, r1, #16
2000219a:	eb02 0242 	add.w	r2, r2, r2, lsl #1
2000219e:	b510      	push	{r4, lr}
200021a0:	eb00 00c2 	add.w	r0, r0, r2, lsl #3
200021a4:	691c      	ldr	r4, [r3, #16]
200021a6:	f3ef 8c10 	mrs	ip, PRIMASK
200021aa:	b672      	cpsid	i
200021ac:	e8d4 efcf 	ldaexb	lr, [r4]
200021b0:	2201      	movs	r2, #1
200021b2:	f1be 0f00 	cmp.w	lr, #0
200021b6:	d1f9      	bne.n	200021ac <alarm_pool_cancel_alarm+0x20>
200021b8:	e8c4 2f4e 	strexb	lr, r2, [r4]
200021bc:	f1be 0f00 	cmp.w	lr, #0
200021c0:	d1f4      	bne.n	200021ac <alarm_pool_cancel_alarm+0x20>
200021c2:	f3bf 8f5f 	dmb	sy
200021c6:	8842      	ldrh	r2, [r0, #2]
200021c8:	b289      	uxth	r1, r1
200021ca:	b292      	uxth	r2, r2
200021cc:	428a      	cmp	r2, r1
200021ce:	d007      	beq.n	200021e0 <alarm_pool_cancel_alarm+0x54>
200021d0:	2200      	movs	r2, #0
200021d2:	691b      	ldr	r3, [r3, #16]
200021d4:	e8c3 2f8f 	stlb	r2, [r3]
200021d8:	f38c 8810 	msr	PRIMASK, ip
200021dc:	2000      	movs	r0, #0
200021de:	bd10      	pop	{r4, pc}
200021e0:	f442 4200 	orr.w	r2, r2, #32768	@ 0x8000
200021e4:	8042      	strh	r2, [r0, #2]
200021e6:	2101      	movs	r1, #1
200021e8:	2200      	movs	r2, #0
200021ea:	6918      	ldr	r0, [r3, #16]
200021ec:	7199      	strb	r1, [r3, #6]
200021ee:	e8c0 2f8f 	stlb	r2, [r0]
200021f2:	f38c 8810 	msr	PRIMASK, ip
200021f6:	781c      	ldrb	r4, [r3, #0]
200021f8:	68da      	ldr	r2, [r3, #12]
200021fa:	4608      	mov	r0, r1
200021fc:	f502 5301 	add.w	r3, r2, #8256	@ 0x2040
20002200:	40a1      	lsls	r1, r4
20002202:	6059      	str	r1, [r3, #4]
20002204:	bd10      	pop	{r4, pc}
20002206:	2000      	movs	r0, #0
20002208:	4770      	bx	lr
2000220a:	bf00      	nop

2000220c <best_effort_wfe_or_timeout>:
2000220c:	e92d 43f0 	stmdb	sp!, {r4, r5, r6, r7, r8, r9, lr}
20002210:	4606      	mov	r6, r0
20002212:	460d      	mov	r5, r1
20002214:	b083      	sub	sp, #12
20002216:	f3ef 8405 	mrs	r4, IPSR
2000221a:	b2e4      	uxtb	r4, r4
2000221c:	b13c      	cbz	r4, 2000222e <best_effort_wfe_or_timeout+0x22>
2000221e:	4b27      	ldr	r3, [pc, #156]	@ (200022bc <best_effort_wfe_or_timeout+0xb0>)
20002220:	6a58      	ldr	r0, [r3, #36]	@ 0x24
20002222:	42a8      	cmp	r0, r5
20002224:	d21c      	bcs.n	20002260 <best_effort_wfe_or_timeout+0x54>
20002226:	2000      	movs	r0, #0
20002228:	b003      	add	sp, #12
2000222a:	e8bd 83f0 	ldmia.w	sp!, {r4, r5, r6, r7, r8, r9, pc}
2000222e:	4f24      	ldr	r7, [pc, #144]	@ (200022c0 <best_effort_wfe_or_timeout+0xb4>)
20002230:	f8d7 900c 	ldr.w	r9, [r7, #12]
20002234:	f897 8000 	ldrb.w	r8, [r7]
20002238:	4648      	mov	r0, r9
2000223a:	f000 f857 	bl	200022ec <timer_time_us_64>
2000223e:	f108 0804 	add.w	r8, r8, #4
20002242:	f859 3028 	ldr.w	r3, [r9, r8, lsl #2]
20002246:	1a1b      	subs	r3, r3, r0
20002248:	1a30      	subs	r0, r6, r0
2000224a:	eb65 0101 	sbc.w	r1, r5, r1
2000224e:	4298      	cmp	r0, r3
20002250:	f171 0100 	sbcs.w	r1, r1, #0
20002254:	db11      	blt.n	2000227a <best_effort_wfe_or_timeout+0x6e>
20002256:	bf20      	wfe
20002258:	4b18      	ldr	r3, [pc, #96]	@ (200022bc <best_effort_wfe_or_timeout+0xb0>)
2000225a:	6a58      	ldr	r0, [r3, #36]	@ 0x24
2000225c:	42a8      	cmp	r0, r5
2000225e:	d3e2      	bcc.n	20002226 <best_effort_wfe_or_timeout+0x1a>
20002260:	6a9b      	ldr	r3, [r3, #40]	@ 0x28
20002262:	42b3      	cmp	r3, r6
20002264:	d303      	bcc.n	2000226e <best_effort_wfe_or_timeout+0x62>
20002266:	2001      	movs	r0, #1
20002268:	b003      	add	sp, #12
2000226a:	e8bd 83f0 	ldmia.w	sp!, {r4, r5, r6, r7, r8, r9, pc}
2000226e:	1b40      	subs	r0, r0, r5
20002270:	bf18      	it	ne
20002272:	2001      	movne	r0, #1
20002274:	b003      	add	sp, #12
20002276:	e8bd 83f0 	ldmia.w	sp!, {r4, r5, r6, r7, r8, r9, pc}
2000227a:	f000 f83f 	bl	200022fc <time_us_64>
2000227e:	4286      	cmp	r6, r0
20002280:	eb65 0101 	sbc.w	r1, r5, r1
20002284:	2900      	cmp	r1, #0
20002286:	dbca      	blt.n	2000221e <best_effort_wfe_or_timeout+0x12>
20002288:	4b0e      	ldr	r3, [pc, #56]	@ (200022c4 <best_effort_wfe_or_timeout+0xb8>)
2000228a:	4638      	mov	r0, r7
2000228c:	e9cd 3400 	strd	r3, r4, [sp]
20002290:	4632      	mov	r2, r6
20002292:	462b      	mov	r3, r5
20002294:	f7ff ff16 	bl	200020c4 <alarm_pool_add_alarm_at_force_in_context>
20002298:	1e01      	subs	r1, r0, #0
2000229a:	ddc0      	ble.n	2000221e <best_effort_wfe_or_timeout+0x12>
2000229c:	4b07      	ldr	r3, [pc, #28]	@ (200022bc <best_effort_wfe_or_timeout+0xb0>)
2000229e:	6a5a      	ldr	r2, [r3, #36]	@ 0x24
200022a0:	42aa      	cmp	r2, r5
200022a2:	d308      	bcc.n	200022b6 <best_effort_wfe_or_timeout+0xaa>
200022a4:	6a9b      	ldr	r3, [r3, #40]	@ 0x28
200022a6:	42b3      	cmp	r3, r6
200022a8:	d303      	bcc.n	200022b2 <best_effort_wfe_or_timeout+0xa6>
200022aa:	4805      	ldr	r0, [pc, #20]	@ (200022c0 <best_effort_wfe_or_timeout+0xb4>)
200022ac:	f7ff ff6e 	bl	2000218c <alarm_pool_cancel_alarm>
200022b0:	e7b5      	b.n	2000221e <best_effort_wfe_or_timeout+0x12>
200022b2:	42aa      	cmp	r2, r5
200022b4:	d1f9      	bne.n	200022aa <best_effort_wfe_or_timeout+0x9e>
200022b6:	bf20      	wfe
200022b8:	e7f7      	b.n	200022aa <best_effort_wfe_or_timeout+0x9e>
200022ba:	bf00      	nop
200022bc:	400b0000 	.word	0x400b0000
200022c0:	200096e4 	.word	0x200096e4
200022c4:	20001f91 	.word	0x20001f91

200022c8 <timer_hardware_alarm_claim>:
200022c8:	b410      	push	{r4}
200022ca:	4b05      	ldr	r3, [pc, #20]	@ (200022e0 <timer_hardware_alarm_claim+0x18>)
200022cc:	4c05      	ldr	r4, [pc, #20]	@ (200022e4 <timer_hardware_alarm_claim+0x1c>)
200022ce:	4a06      	ldr	r2, [pc, #24]	@ (200022e8 <timer_hardware_alarm_claim+0x20>)
200022d0:	42a0      	cmp	r0, r4
200022d2:	bf14      	ite	ne
200022d4:	4618      	movne	r0, r3
200022d6:	1c58      	addeq	r0, r3, #1
200022d8:	f85d 4b04 	ldr.w	r4, [sp], #4
200022dc:	f000 b87e 	b.w	200023dc <hw_claim_or_assert>
200022e0:	2000f1f4 	.word	0x2000f1f4
200022e4:	400b8000 	.word	0x400b8000
200022e8:	2000929c 	.word	0x2000929c

200022ec <timer_time_us_64>:
200022ec:	4603      	mov	r3, r0
200022ee:	6a41      	ldr	r1, [r0, #36]	@ 0x24
200022f0:	460a      	mov	r2, r1
200022f2:	6a98      	ldr	r0, [r3, #40]	@ 0x28
200022f4:	6a59      	ldr	r1, [r3, #36]	@ 0x24
200022f6:	428a      	cmp	r2, r1
200022f8:	d1fa      	bne.n	200022f0 <timer_time_us_64+0x4>
200022fa:	4770      	bx	lr

200022fc <time_us_64>:
200022fc:	4b03      	ldr	r3, [pc, #12]	@ (2000230c <time_us_64+0x10>)
200022fe:	6a59      	ldr	r1, [r3, #36]	@ 0x24
20002300:	460a      	mov	r2, r1
20002302:	6a98      	ldr	r0, [r3, #40]	@ 0x28
20002304:	6a59      	ldr	r1, [r3, #36]	@ 0x24
20002306:	4291      	cmp	r1, r2
20002308:	d1fa      	bne.n	20002300 <time_us_64+0x4>
2000230a:	4770      	bx	lr
2000230c:	400b0000 	.word	0x400b0000

20002310 <busy_wait_us>:
20002310:	b410      	push	{r4}
20002312:	4a17      	ldr	r2, [pc, #92]	@ (20002370 <busy_wait_us+0x60>)
20002314:	6a53      	ldr	r3, [r2, #36]	@ 0x24
20002316:	469c      	mov	ip, r3
20002318:	6a94      	ldr	r4, [r2, #40]	@ 0x28
2000231a:	6a53      	ldr	r3, [r2, #36]	@ 0x24
2000231c:	4563      	cmp	r3, ip
2000231e:	d1fa      	bne.n	20002316 <busy_wait_us+0x6>
20002320:	1900      	adds	r0, r0, r4
20002322:	4159      	adcs	r1, r3
20002324:	f04f 0200 	mov.w	r2, #0
20002328:	bf28      	it	cs
2000232a:	2201      	movcs	r2, #1
2000232c:	4603      	mov	r3, r0
2000232e:	b1ca      	cbz	r2, 20002364 <busy_wait_us+0x54>
20002330:	4b0f      	ldr	r3, [pc, #60]	@ (20002370 <busy_wait_us+0x60>)
20002332:	6a59      	ldr	r1, [r3, #36]	@ 0x24
20002334:	1c4b      	adds	r3, r1, #1
20002336:	bf08      	it	eq
20002338:	460b      	moveq	r3, r1
2000233a:	d008      	beq.n	2000234e <busy_wait_us+0x3e>
2000233c:	f04f 31ff 	mov.w	r1, #4294967295	@ 0xffffffff
20002340:	460b      	mov	r3, r1
20002342:	480b      	ldr	r0, [pc, #44]	@ (20002370 <busy_wait_us+0x60>)
20002344:	6a42      	ldr	r2, [r0, #36]	@ 0x24
20002346:	428a      	cmp	r2, r1
20002348:	d3fc      	bcc.n	20002344 <busy_wait_us+0x34>
2000234a:	428a      	cmp	r2, r1
2000234c:	d107      	bne.n	2000235e <busy_wait_us+0x4e>
2000234e:	4a08      	ldr	r2, [pc, #32]	@ (20002370 <busy_wait_us+0x60>)
20002350:	e002      	b.n	20002358 <busy_wait_us+0x48>
20002352:	6a50      	ldr	r0, [r2, #36]	@ 0x24
20002354:	4288      	cmp	r0, r1
20002356:	d102      	bne.n	2000235e <busy_wait_us+0x4e>
20002358:	6a90      	ldr	r0, [r2, #40]	@ 0x28
2000235a:	4298      	cmp	r0, r3
2000235c:	d3f9      	bcc.n	20002352 <busy_wait_us+0x42>
2000235e:	f85d 4b04 	ldr.w	r4, [sp], #4
20002362:	4770      	bx	lr
20002364:	4a02      	ldr	r2, [pc, #8]	@ (20002370 <busy_wait_us+0x60>)
20002366:	6a52      	ldr	r2, [r2, #36]	@ 0x24
20002368:	4291      	cmp	r1, r2
2000236a:	d8ea      	bhi.n	20002342 <busy_wait_us+0x32>
2000236c:	e7ed      	b.n	2000234a <busy_wait_us+0x3a>
2000236e:	bf00      	nop
20002370:	400b0000 	.word	0x400b0000

20002374 <panic>:
20002374:	b40f      	push	{r0, r1, r2, r3}
20002376:	b500      	push	{lr}
20002378:	b083      	sub	sp, #12
2000237a:	9c04      	ldr	r4, [sp, #16]
2000237c:	4807      	ldr	r0, [pc, #28]	@ (2000239c <panic+0x28>)
2000237e:	f001 f87b 	bl	20003478 <__wrap_puts>
20002382:	b13c      	cbz	r4, 20002394 <panic+0x20>
20002384:	a905      	add	r1, sp, #20
20002386:	4620      	mov	r0, r4
20002388:	9101      	str	r1, [sp, #4]
2000238a:	f000 ff19 	bl	200031c0 <weak_raw_vprintf>
2000238e:	4804      	ldr	r0, [pc, #16]	@ (200023a0 <panic+0x2c>)
20002390:	f001 f872 	bl	20003478 <__wrap_puts>
20002394:	2001      	movs	r0, #1
20002396:	f000 ff2b 	bl	200031f0 <_exit>
2000239a:	bf00      	nop
2000239c:	200092c0 	.word	0x200092c0
200023a0:	200092d0 	.word	0x200092d0

200023a4 <hw_claim_lock>:
200023a4:	f3ef 8010 	mrs	r0, PRIMASK
200023a8:	b672      	cpsid	i
200023aa:	4b06      	ldr	r3, [pc, #24]	@ (200023c4 <hw_claim_lock+0x20>)
200023ac:	e8d3 1fcf 	ldaexb	r1, [r3]
200023b0:	2201      	movs	r2, #1
200023b2:	2900      	cmp	r1, #0
200023b4:	d1fa      	bne.n	200023ac <hw_claim_lock+0x8>
200023b6:	e8c3 2f41 	strexb	r1, r2, [r3]
200023ba:	2900      	cmp	r1, #0
200023bc:	d1f6      	bne.n	200023ac <hw_claim_lock+0x8>
200023be:	f3bf 8f5f 	dmb	sy
200023c2:	4770      	bx	lr
200023c4:	2000afcb 	.word	0x2000afcb

200023c8 <hw_claim_unlock>:
200023c8:	2300      	movs	r3, #0
200023ca:	4a03      	ldr	r2, [pc, #12]	@ (200023d8 <hw_claim_unlock+0x10>)
200023cc:	e8c2 3f8f 	stlb	r3, [r2]
200023d0:	f380 8810 	msr	PRIMASK, r0
200023d4:	4770      	bx	lr
200023d6:	bf00      	nop
200023d8:	2000afcb 	.word	0x2000afcb

200023dc <hw_claim_or_assert>:
200023dc:	b570      	push	{r4, r5, r6, lr}
200023de:	4686      	mov	lr, r0
200023e0:	f3ef 8510 	mrs	r5, PRIMASK
200023e4:	b672      	cpsid	i
200023e6:	4c12      	ldr	r4, [pc, #72]	@ (20002430 <hw_claim_or_assert+0x54>)
200023e8:	e8d4 6fcf 	ldaexb	r6, [r4]
200023ec:	2001      	movs	r0, #1
200023ee:	2e00      	cmp	r6, #0
200023f0:	d1fa      	bne.n	200023e8 <hw_claim_or_assert+0xc>
200023f2:	e8c4 0f46 	strexb	r6, r0, [r4]
200023f6:	2e00      	cmp	r6, #0
200023f8:	d1f6      	bne.n	200023e8 <hw_claim_or_assert+0xc>
200023fa:	f3bf 8f5f 	dmb	sy
200023fe:	f04f 0c01 	mov.w	ip, #1
20002402:	08c8      	lsrs	r0, r1, #3
20002404:	f001 0307 	and.w	r3, r1, #7
20002408:	fa0c f303 	lsl.w	r3, ip, r3
2000240c:	f81e c000 	ldrb.w	ip, [lr, r0]
20002410:	ea1c 0603 	ands.w	r6, ip, r3
20002414:	d108      	bne.n	20002428 <hw_claim_or_assert+0x4c>
20002416:	ea4c 0c03 	orr.w	ip, ip, r3
2000241a:	f80e c000 	strb.w	ip, [lr, r0]
2000241e:	e8c4 6f8f 	stlb	r6, [r4]
20002422:	f385 8810 	msr	PRIMASK, r5
20002426:	bd70      	pop	{r4, r5, r6, pc}
20002428:	4610      	mov	r0, r2
2000242a:	f7ff ffa3 	bl	20002374 <panic>
2000242e:	bf00      	nop
20002430:	2000afcb 	.word	0x2000afcb

20002434 <hw_claim_unused_from_range>:
20002434:	b5f8      	push	{r3, r4, r5, r6, r7, lr}
20002436:	f3ef 8510 	mrs	r5, PRIMASK
2000243a:	b672      	cpsid	i
2000243c:	4c23      	ldr	r4, [pc, #140]	@ (200024cc <hw_claim_unused_from_range+0x98>)
2000243e:	e8d4 7fcf 	ldaexb	r7, [r4]
20002442:	2601      	movs	r6, #1
20002444:	2f00      	cmp	r7, #0
20002446:	d1fa      	bne.n	2000243e <hw_claim_unused_from_range+0xa>
20002448:	e8c4 6f47 	strexb	r7, r6, [r4]
2000244c:	2f00      	cmp	r7, #0
2000244e:	d1f6      	bne.n	2000243e <hw_claim_unused_from_range+0xa>
20002450:	f3bf 8f5f 	dmb	sy
20002454:	429a      	cmp	r2, r3
20002456:	d827      	bhi.n	200024a8 <hw_claim_unused_from_range+0x74>
20002458:	2601      	movs	r6, #1
2000245a:	08d7      	lsrs	r7, r2, #3
2000245c:	f810 e007 	ldrb.w	lr, [r0, r7]
20002460:	f002 0c07 	and.w	ip, r2, #7
20002464:	fa06 fc0c 	lsl.w	ip, r6, ip
20002468:	ea1e 0f0c 	tst.w	lr, ip
2000246c:	eb00 07d2 	add.w	r7, r0, r2, lsr #3
20002470:	d10d      	bne.n	2000248e <hw_claim_unused_from_range+0x5a>
20002472:	e025      	b.n	200024c0 <hw_claim_unused_from_range+0x8c>
20002474:	ea4f 0ed2 	mov.w	lr, r2, lsr #3
20002478:	f810 e00e 	ldrb.w	lr, [r0, lr]
2000247c:	f002 0c07 	and.w	ip, r2, #7
20002480:	fa06 fc0c 	lsl.w	ip, r6, ip
20002484:	ea1e 0f0c 	tst.w	lr, ip
20002488:	eb00 07d2 	add.w	r7, r0, r2, lsr #3
2000248c:	d018      	beq.n	200024c0 <hw_claim_unused_from_range+0x8c>
2000248e:	3201      	adds	r2, #1
20002490:	4293      	cmp	r3, r2
20002492:	d2ef      	bcs.n	20002474 <hw_claim_unused_from_range+0x40>
20002494:	f04f 30ff 	mov.w	r0, #4294967295	@ 0xffffffff
20002498:	2300      	movs	r3, #0
2000249a:	e8c4 3f8f 	stlb	r3, [r4]
2000249e:	f385 8810 	msr	PRIMASK, r5
200024a2:	4298      	cmp	r0, r3
200024a4:	db07      	blt.n	200024b6 <hw_claim_unused_from_range+0x82>
200024a6:	bdf8      	pop	{r3, r4, r5, r6, r7, pc}
200024a8:	2300      	movs	r3, #0
200024aa:	e8c4 3f8f 	stlb	r3, [r4]
200024ae:	f385 8810 	msr	PRIMASK, r5
200024b2:	f04f 30ff 	mov.w	r0, #4294967295	@ 0xffffffff
200024b6:	2900      	cmp	r1, #0
200024b8:	d0f5      	beq.n	200024a6 <hw_claim_unused_from_range+0x72>
200024ba:	9806      	ldr	r0, [sp, #24]
200024bc:	f7ff ff5a 	bl	20002374 <panic>
200024c0:	ea4e 0e0c 	orr.w	lr, lr, ip
200024c4:	4610      	mov	r0, r2
200024c6:	f887 e000 	strb.w	lr, [r7]
200024ca:	e7e5      	b.n	20002498 <hw_claim_unused_from_range+0x64>
200024cc:	2000afcb 	.word	0x2000afcb

200024d0 <next_striped_spin_lock_num>:
200024d0:	4a04      	ldr	r2, [pc, #16]	@ (200024e4 <next_striped_spin_lock_num+0x14>)
200024d2:	7810      	ldrb	r0, [r2, #0]
200024d4:	1c43      	adds	r3, r0, #1
200024d6:	b2db      	uxtb	r3, r3
200024d8:	2b18      	cmp	r3, #24
200024da:	bf28      	it	cs
200024dc:	2310      	movcs	r3, #16
200024de:	7013      	strb	r3, [r2, #0]
200024e0:	4770      	bx	lr
200024e2:	bf00      	nop
200024e4:	200096fc 	.word	0x200096fc

200024e8 <spin_lock_claim_unused>:
200024e8:	b510      	push	{r4, lr}
200024ea:	4c05      	ldr	r4, [pc, #20]	@ (20002500 <spin_lock_claim_unused+0x18>)
200024ec:	b082      	sub	sp, #8
200024ee:	4601      	mov	r1, r0
200024f0:	231f      	movs	r3, #31
200024f2:	2218      	movs	r2, #24
200024f4:	9400      	str	r4, [sp, #0]
200024f6:	4803      	ldr	r0, [pc, #12]	@ (20002504 <spin_lock_claim_unused+0x1c>)
200024f8:	f7ff ff9c 	bl	20002434 <hw_claim_unused_from_range>
200024fc:	b002      	add	sp, #8
200024fe:	bd10      	pop	{r4, pc}
20002500:	200092d4 	.word	0x200092d4
20002504:	2000f1f8 	.word	0x2000f1f8

20002508 <spinlock_set_extexclall>:
20002508:	f04f 22e0 	mov.w	r2, #3758153728	@ 0xe000e000
2000250c:	6893      	ldr	r3, [r2, #8]
2000250e:	f043 5300 	orr.w	r3, r3, #536870912	@ 0x20000000
20002512:	6093      	str	r3, [r2, #8]
20002514:	4770      	bx	lr
20002516:	bf00      	nop

20002518 <spin_locks_reset>:
20002518:	2100      	movs	r1, #0
2000251a:	4b04      	ldr	r3, [pc, #16]	@ (2000252c <spin_locks_reset+0x14>)
2000251c:	f103 0220 	add.w	r2, r3, #32
20002520:	e8c3 1f8f 	stlb	r1, [r3]
20002524:	3301      	adds	r3, #1
20002526:	4293      	cmp	r3, r2
20002528:	d1fa      	bne.n	20002520 <spin_locks_reset+0x8>
2000252a:	4770      	bx	lr
2000252c:	2000afc0 	.word	0x2000afc0

20002530 <runtime_init_per_core_irq_priorities>:
20002530:	f04f 23e0 	mov.w	r3, #3758153728	@ 0xe000e000
20002534:	f04f 3280 	mov.w	r2, #2155905152	@ 0x80808080
20002538:	f8c3 2400 	str.w	r2, [r3, #1024]	@ 0x400
2000253c:	f8c3 2404 	str.w	r2, [r3, #1028]	@ 0x404
20002540:	f8c3 2408 	str.w	r2, [r3, #1032]	@ 0x408
20002544:	f8c3 240c 	str.w	r2, [r3, #1036]	@ 0x40c
20002548:	f8c3 2410 	str.w	r2, [r3, #1040]	@ 0x410
2000254c:	f8c3 2414 	str.w	r2, [r3, #1044]	@ 0x414
20002550:	f8c3 2418 	str.w	r2, [r3, #1048]	@ 0x418
20002554:	f8c3 241c 	str.w	r2, [r3, #1052]	@ 0x41c
20002558:	f8c3 2420 	str.w	r2, [r3, #1056]	@ 0x420
2000255c:	f8c3 2424 	str.w	r2, [r3, #1060]	@ 0x424
20002560:	f8c3 2428 	str.w	r2, [r3, #1064]	@ 0x428
20002564:	f8c3 242c 	str.w	r2, [r3, #1068]	@ 0x42c
20002568:	f8c3 2430 	str.w	r2, [r3, #1072]	@ 0x430
2000256c:	b662      	cpsie	i
2000256e:	4770      	bx	lr

20002570 <irq_set_enabled>:
20002570:	2301      	movs	r3, #1
20002572:	f000 021f 	and.w	r2, r0, #31
20002576:	4093      	lsls	r3, r2
20002578:	0940      	lsrs	r0, r0, #5
2000257a:	b141      	cbz	r1, 2000258e <irq_set_enabled+0x1e>
2000257c:	0080      	lsls	r0, r0, #2
2000257e:	f100 4060 	add.w	r0, r0, #3758096384	@ 0xe0000000
20002582:	f500 4061 	add.w	r0, r0, #57600	@ 0xe100
20002586:	f8c0 3180 	str.w	r3, [r0, #384]	@ 0x180
2000258a:	6003      	str	r3, [r0, #0]
2000258c:	4770      	bx	lr
2000258e:	4a02      	ldr	r2, [pc, #8]	@ (20002598 <irq_set_enabled+0x28>)
20002590:	3020      	adds	r0, #32
20002592:	f842 3020 	str.w	r3, [r2, r0, lsl #2]
20002596:	4770      	bx	lr
20002598:	e000e100 	.word	0xe000e100

2000259c <irq_set_exclusive_handler>:
2000259c:	b5f8      	push	{r3, r4, r5, r6, r7, lr}
2000259e:	460d      	mov	r5, r1
200025a0:	f3ef 8710 	mrs	r7, PRIMASK
200025a4:	b672      	cpsid	i
200025a6:	4e12      	ldr	r6, [pc, #72]	@ (200025f0 <irq_set_exclusive_handler+0x54>)
200025a8:	e8d6 2fcf 	ldaexb	r2, [r6]
200025ac:	2301      	movs	r3, #1
200025ae:	2a00      	cmp	r2, #0
200025b0:	d1fa      	bne.n	200025a8 <irq_set_exclusive_handler+0xc>
200025b2:	e8c6 3f42 	strexb	r2, r3, [r6]
200025b6:	2a00      	cmp	r2, #0
200025b8:	d1f6      	bne.n	200025a8 <irq_set_exclusive_handler+0xc>
200025ba:	f3bf 8f5f 	dmb	sy
200025be:	4b0d      	ldr	r3, [pc, #52]	@ (200025f4 <irq_set_exclusive_handler+0x58>)
200025c0:	f100 0410 	add.w	r4, r0, #16
200025c4:	689b      	ldr	r3, [r3, #8]
200025c6:	4a0c      	ldr	r2, [pc, #48]	@ (200025f8 <irq_set_exclusive_handler+0x5c>)
200025c8:	f853 3024 	ldr.w	r3, [r3, r4, lsl #2]
200025cc:	4293      	cmp	r3, r2
200025ce:	d003      	beq.n	200025d8 <irq_set_exclusive_handler+0x3c>
200025d0:	4299      	cmp	r1, r3
200025d2:	d001      	beq.n	200025d8 <irq_set_exclusive_handler+0x3c>
200025d4:	f000 fcdc 	bl	20002f90 <hard_assertion_failure>
200025d8:	4b06      	ldr	r3, [pc, #24]	@ (200025f4 <irq_set_exclusive_handler+0x58>)
200025da:	689b      	ldr	r3, [r3, #8]
200025dc:	f843 5024 	str.w	r5, [r3, r4, lsl #2]
200025e0:	f3bf 8f5f 	dmb	sy
200025e4:	2300      	movs	r3, #0
200025e6:	e8c6 3f8f 	stlb	r3, [r6]
200025ea:	f387 8810 	msr	PRIMASK, r7
200025ee:	bdf8      	pop	{r3, r4, r5, r6, r7, pc}
200025f0:	2000afc9 	.word	0x2000afc9
200025f4:	e000ed00 	.word	0xe000ed00
200025f8:	10000111 	.word	0x10000111

200025fc <irq_add_shared_handler>:
200025fc:	e92d 4ff0 	stmdb	sp!, {r4, r5, r6, r7, r8, r9, sl, fp, lr}
20002600:	4681      	mov	r9, r0
20002602:	468b      	mov	fp, r1
20002604:	4616      	mov	r6, r2
20002606:	b083      	sub	sp, #12
20002608:	f3ef 8310 	mrs	r3, PRIMASK
2000260c:	b672      	cpsid	i
2000260e:	f8df a1d0 	ldr.w	sl, [pc, #464]	@ 200027e0 <irq_add_shared_handler+0x1e4>
20002612:	9300      	str	r3, [sp, #0]
20002614:	e8da 1fcf 	ldaexb	r1, [sl]
20002618:	2301      	movs	r3, #1
2000261a:	2900      	cmp	r1, #0
2000261c:	d1fa      	bne.n	20002614 <irq_add_shared_handler+0x18>
2000261e:	e8ca 3f41 	strexb	r1, r3, [sl]
20002622:	2900      	cmp	r1, #0
20002624:	d1f6      	bne.n	20002614 <irq_add_shared_handler+0x18>
20002626:	f3bf 8f5f 	dmb	sy
2000262a:	4b66      	ldr	r3, [pc, #408]	@ (200027c4 <irq_add_shared_handler+0x1c8>)
2000262c:	f993 4000 	ldrsb.w	r4, [r3]
20002630:	2c00      	cmp	r4, #0
20002632:	f2c0 80a0 	blt.w	20002776 <irq_add_shared_handler+0x17a>
20002636:	4d64      	ldr	r5, [pc, #400]	@ (200027c8 <irq_add_shared_handler+0x1cc>)
20002638:	eb04 0744 	add.w	r7, r4, r4, lsl #1
2000263c:	eb05 0887 	add.w	r8, r5, r7, lsl #2
20002640:	f898 1006 	ldrb.w	r1, [r8, #6]
20002644:	f109 0910 	add.w	r9, r9, #16
20002648:	7019      	strb	r1, [r3, #0]
2000264a:	4b60      	ldr	r3, [pc, #384]	@ (200027cc <irq_add_shared_handler+0x1d0>)
2000264c:	00bf      	lsls	r7, r7, #2
2000264e:	689b      	ldr	r3, [r3, #8]
20002650:	f853 0029 	ldr.w	r0, [r3, r9, lsl #2]
20002654:	0063      	lsls	r3, r4, #1
20002656:	1b41      	subs	r1, r0, r5
20002658:	292f      	cmp	r1, #47	@ 0x2f
2000265a:	d92f      	bls.n	200026bc <irq_add_shared_handler+0xc0>
2000265c:	495c      	ldr	r1, [pc, #368]	@ (200027d0 <irq_add_shared_handler+0x1d4>)
2000265e:	4288      	cmp	r0, r1
20002660:	f040 80a4 	bne.w	200027ac <irq_add_shared_handler+0x1b0>
20002664:	441c      	add	r4, r3
20002666:	4b5b      	ldr	r3, [pc, #364]	@ (200027d4 <irq_add_shared_handler+0x1d8>)
20002668:	3702      	adds	r7, #2
2000266a:	442f      	add	r7, r5
2000266c:	3b04      	subs	r3, #4
2000266e:	1bdb      	subs	r3, r3, r7
20002670:	f3c3 034a 	ubfx	r3, r3, #1, #11
20002674:	ea6f 43c3 	mvn.w	r3, r3, lsl #19
20002678:	f44f 4121 	mov.w	r1, #41216	@ 0xa100
2000267c:	ea6f 43d3 	mvn.w	r3, r3, lsr #19
20002680:	f825 1024 	strh.w	r1, [r5, r4, lsl #2]
20002684:	eb05 0484 	add.w	r4, r5, r4, lsl #2
20002688:	8063      	strh	r3, [r4, #2]
2000268a:	f64b 5301 	movw	r3, #48385	@ 0xbd01
2000268e:	80a3      	strh	r3, [r4, #4]
20002690:	23ff      	movs	r3, #255	@ 0xff
20002692:	f048 0001 	orr.w	r0, r8, #1
20002696:	71e6      	strb	r6, [r4, #7]
20002698:	f8c4 b008 	str.w	fp, [r4, #8]
2000269c:	71a3      	strb	r3, [r4, #6]
2000269e:	4b4b      	ldr	r3, [pc, #300]	@ (200027cc <irq_add_shared_handler+0x1d0>)
200026a0:	689b      	ldr	r3, [r3, #8]
200026a2:	f843 0029 	str.w	r0, [r3, r9, lsl #2]
200026a6:	f3bf 8f5f 	dmb	sy
200026aa:	2300      	movs	r3, #0
200026ac:	e8ca 3f8f 	stlb	r3, [sl]
200026b0:	9b00      	ldr	r3, [sp, #0]
200026b2:	f383 8810 	msr	PRIMASK, r3
200026b6:	b003      	add	sp, #12
200026b8:	e8bd 8ff0 	ldmia.w	sp!, {r4, r5, r6, r7, r8, r9, sl, fp, pc}
200026bc:	f020 0e01 	bic.w	lr, r0, #1
200026c0:	f89e 1007 	ldrb.w	r1, [lr, #7]
200026c4:	42b1      	cmp	r1, r6
200026c6:	d82e      	bhi.n	20002726 <irq_add_shared_handler+0x12a>
200026c8:	f44f 4321 	mov.w	r3, #41216	@ 0xa100
200026cc:	53eb      	strh	r3, [r5, r7]
200026ce:	4b41      	ldr	r3, [pc, #260]	@ (200027d4 <irq_add_shared_handler+0x1d8>)
200026d0:	1cb9      	adds	r1, r7, #2
200026d2:	4429      	add	r1, r5
200026d4:	3b04      	subs	r3, #4
200026d6:	3704      	adds	r7, #4
200026d8:	1a5b      	subs	r3, r3, r1
200026da:	442f      	add	r7, r5
200026dc:	f1ae 0104 	sub.w	r1, lr, #4
200026e0:	4c3d      	ldr	r4, [pc, #244]	@ (200027d8 <irq_add_shared_handler+0x1dc>)
200026e2:	1bc9      	subs	r1, r1, r7
200026e4:	f3c1 014a 	ubfx	r1, r1, #1, #11
200026e8:	4321      	orrs	r1, r4
200026ea:	f8a8 1004 	strh.w	r1, [r8, #4]
200026ee:	f3c3 034a 	ubfx	r3, r3, #1, #11
200026f2:	493a      	ldr	r1, [pc, #232]	@ (200027dc <irq_add_shared_handler+0x1e0>)
200026f4:	4323      	orrs	r3, r4
200026f6:	f8a8 3002 	strh.w	r3, [r8, #2]
200026fa:	f64a 20aa 	movw	r0, #43690	@ 0xaaaa
200026fe:	4673      	mov	r3, lr
20002700:	1b5b      	subs	r3, r3, r5
20002702:	415b      	adcs	r3, r3
20002704:	4358      	muls	r0, r3
20002706:	0d00      	lsrs	r0, r0, #20
20002708:	f888 6007 	strb.w	r6, [r8, #7]
2000270c:	f888 0006 	strb.w	r0, [r8, #6]
20002710:	f8c8 b008 	str.w	fp, [r8, #8]
20002714:	f048 0001 	orr.w	r0, r8, #1
20002718:	f8ce 1000 	str.w	r1, [lr]
2000271c:	e7bf      	b.n	2000269e <irq_add_shared_handler+0xa2>
2000271e:	79d1      	ldrb	r1, [r2, #7]
20002720:	42b1      	cmp	r1, r6
20002722:	d92e      	bls.n	20002782 <irq_add_shared_handler+0x186>
20002724:	4696      	mov	lr, r2
20002726:	f99e c006 	ldrsb.w	ip, [lr, #6]
2000272a:	eb0c 024c 	add.w	r2, ip, ip, lsl #1
2000272e:	f1bc 0f00 	cmp.w	ip, #0
20002732:	eb05 0282 	add.w	r2, r5, r2, lsl #2
20002736:	daf2      	bge.n	2000271e <irq_add_shared_handler+0x122>
20002738:	f64b 5101 	movw	r1, #48385	@ 0xbd01
2000273c:	f10e 0204 	add.w	r2, lr, #4
20002740:	f1a8 0704 	sub.w	r7, r8, #4
20002744:	1abf      	subs	r7, r7, r2
20002746:	f3c7 074a 	ubfx	r7, r7, #1, #11
2000274a:	ea6f 47c7 	mvn.w	r7, r7, lsl #19
2000274e:	ea6f 47d7 	mvn.w	r7, r7, lsr #19
20002752:	f88e 4006 	strb.w	r4, [lr, #6]
20002756:	eb03 0804 	add.w	r8, r3, r4
2000275a:	4c20      	ldr	r4, [pc, #128]	@ (200027dc <irq_add_shared_handler+0x1e0>)
2000275c:	eb05 0388 	add.w	r3, r5, r8, lsl #2
20002760:	f8ae 7004 	strh.w	r7, [lr, #4]
20002764:	f845 4028 	str.w	r4, [r5, r8, lsl #2]
20002768:	8099      	strh	r1, [r3, #4]
2000276a:	f883 c006 	strb.w	ip, [r3, #6]
2000276e:	71de      	strb	r6, [r3, #7]
20002770:	f8c3 b008 	str.w	fp, [r3, #8]
20002774:	e793      	b.n	2000269e <irq_add_shared_handler+0xa2>
20002776:	f000 fc0b 	bl	20002f90 <hard_assertion_failure>
2000277a:	4b12      	ldr	r3, [pc, #72]	@ (200027c4 <irq_add_shared_handler+0x1c8>)
2000277c:	f993 4000 	ldrsb.w	r4, [r3]
20002780:	e759      	b.n	20002636 <irq_add_shared_handler+0x3a>
20002782:	4672      	mov	r2, lr
20002784:	f832 1f04 	ldrh.w	r1, [r2, #4]!
20002788:	0549      	lsls	r1, r1, #21
2000278a:	d414      	bmi.n	200027b6 <irq_add_shared_handler+0x1ba>
2000278c:	1549      	asrs	r1, r1, #21
2000278e:	3102      	adds	r1, #2
20002790:	eb02 0141 	add.w	r1, r2, r1, lsl #1
20002794:	9101      	str	r1, [sp, #4]
20002796:	f06f 0107 	mvn.w	r1, #7
2000279a:	1bc9      	subs	r1, r1, r7
2000279c:	9f01      	ldr	r7, [sp, #4]
2000279e:	1b49      	subs	r1, r1, r5
200027a0:	4439      	add	r1, r7
200027a2:	f3c1 014a 	ubfx	r1, r1, #1, #11
200027a6:	f441 4160 	orr.w	r1, r1, #57344	@ 0xe000
200027aa:	e7c9      	b.n	20002740 <irq_add_shared_handler+0x144>
200027ac:	9301      	str	r3, [sp, #4]
200027ae:	f000 fbef 	bl	20002f90 <hard_assertion_failure>
200027b2:	9b01      	ldr	r3, [sp, #4]
200027b4:	e756      	b.n	20002664 <irq_add_shared_handler+0x68>
200027b6:	f501 11ff 	add.w	r1, r1, #2088960	@ 0x1fe000
200027ba:	f501 51ff 	add.w	r1, r1, #8160	@ 0x1fe0
200027be:	311f      	adds	r1, #31
200027c0:	e7e4      	b.n	2000278c <irq_add_shared_handler+0x190>
200027c2:	bf00      	nop
200027c4:	2001fa6a 	.word	0x2001fa6a
200027c8:	20009700 	.word	0x20009700
200027cc:	e000ed00 	.word	0xe000ed00
200027d0:	10000111 	.word	0x10000111
200027d4:	20009730 	.word	0x20009730
200027d8:	ffffe000 	.word	0xffffe000
200027dc:	47804801 	.word	0x47804801
200027e0:	2000afc9 	.word	0x2000afc9

200027e4 <irq_remove_handler>:
200027e4:	e92d 4ff0 	stmdb	sp!, {r4, r5, r6, r7, r8, r9, sl, fp, lr}
200027e8:	b083      	sub	sp, #12
200027ea:	f3ef 8a10 	mrs	sl, PRIMASK
200027ee:	b672      	cpsid	i
200027f0:	4e74      	ldr	r6, [pc, #464]	@ (200029c4 <irq_remove_handler+0x1e0>)
200027f2:	e8d6 2fcf 	ldaexb	r2, [r6]
200027f6:	2301      	movs	r3, #1
200027f8:	2a00      	cmp	r2, #0
200027fa:	d1fa      	bne.n	200027f2 <irq_remove_handler+0xe>
200027fc:	e8c6 3f42 	strexb	r2, r3, [r6]
20002800:	2a00      	cmp	r2, #0
20002802:	d1f6      	bne.n	200027f2 <irq_remove_handler+0xe>
20002804:	f3bf 8f5f 	dmb	sy
20002808:	4b6f      	ldr	r3, [pc, #444]	@ (200029c8 <irq_remove_handler+0x1e4>)
2000280a:	f100 0810 	add.w	r8, r0, #16
2000280e:	689b      	ldr	r3, [r3, #8]
20002810:	4a6e      	ldr	r2, [pc, #440]	@ (200029cc <irq_remove_handler+0x1e8>)
20002812:	f853 5028 	ldr.w	r5, [r3, r8, lsl #2]
20002816:	4295      	cmp	r5, r2
20002818:	d03f      	beq.n	2000289a <irq_remove_handler+0xb6>
2000281a:	428d      	cmp	r5, r1
2000281c:	460c      	mov	r4, r1
2000281e:	d04a      	beq.n	200028b6 <irq_remove_handler+0xd2>
20002820:	4f6b      	ldr	r7, [pc, #428]	@ (200029d0 <irq_remove_handler+0x1ec>)
20002822:	1beb      	subs	r3, r5, r7
20002824:	2b2f      	cmp	r3, #47	@ 0x2f
20002826:	d838      	bhi.n	2000289a <irq_remove_handler+0xb6>
20002828:	2101      	movs	r1, #1
2000282a:	ea4f 1950 	mov.w	r9, r0, lsr #5
2000282e:	ea4f 0989 	mov.w	r9, r9, lsl #2
20002832:	f109 4960 	add.w	r9, r9, #3758096384	@ 0xe0000000
20002836:	f509 4961 	add.w	r9, r9, #57600	@ 0xe100
2000283a:	f000 031f 	and.w	r3, r0, #31
2000283e:	fa01 f003 	lsl.w	r0, r1, r3
20002842:	f8d9 3000 	ldr.w	r3, [r9]
20002846:	f8c9 0080 	str.w	r0, [r9, #128]	@ 0x80
2000284a:	ea00 0b03 	and.w	fp, r0, r3
2000284e:	f3bf 8f5f 	dmb	sy
20002852:	f3ef 8105 	mrs	r1, IPSR
20002856:	b2c9      	uxtb	r1, r1
20002858:	b379      	cbz	r1, 200028ba <irq_remove_handler+0xd6>
2000285a:	4588      	cmp	r8, r1
2000285c:	d177      	bne.n	2000294e <irq_remove_handler+0x16a>
2000285e:	f025 0e01 	bic.w	lr, r5, #1
20002862:	f8de c008 	ldr.w	ip, [lr, #8]
20002866:	4564      	cmp	r4, ip
20002868:	d105      	bne.n	20002876 <irq_remove_handler+0x92>
2000286a:	e07c      	b.n	20002966 <irq_remove_handler+0x182>
2000286c:	f8d3 c008 	ldr.w	ip, [r3, #8]
20002870:	4564      	cmp	r4, ip
20002872:	d032      	beq.n	200028da <irq_remove_handler+0xf6>
20002874:	469e      	mov	lr, r3
20002876:	f99e 2006 	ldrsb.w	r2, [lr, #6]
2000287a:	eb02 0342 	add.w	r3, r2, r2, lsl #1
2000287e:	2a00      	cmp	r2, #0
20002880:	eb07 0383 	add.w	r3, r7, r3, lsl #2
20002884:	daf2      	bge.n	2000286c <irq_remove_handler+0x88>
20002886:	4564      	cmp	r4, ip
20002888:	f000 8081 	beq.w	2000298e <irq_remove_handler+0x1aa>
2000288c:	f1bb 0f00 	cmp.w	fp, #0
20002890:	d020      	beq.n	200028d4 <irq_remove_handler+0xf0>
20002892:	f8c9 0180 	str.w	r0, [r9, #384]	@ 0x180
20002896:	f8c9 0000 	str.w	r0, [r9]
2000289a:	4b4b      	ldr	r3, [pc, #300]	@ (200029c8 <irq_remove_handler+0x1e4>)
2000289c:	689b      	ldr	r3, [r3, #8]
2000289e:	f843 5028 	str.w	r5, [r3, r8, lsl #2]
200028a2:	f3bf 8f5f 	dmb	sy
200028a6:	2300      	movs	r3, #0
200028a8:	e8c6 3f8f 	stlb	r3, [r6]
200028ac:	f38a 8810 	msr	PRIMASK, sl
200028b0:	b003      	add	sp, #12
200028b2:	e8bd 8ff0 	ldmia.w	sp!, {r4, r5, r6, r7, r8, r9, sl, fp, pc}
200028b6:	4615      	mov	r5, r2
200028b8:	e7ef      	b.n	2000289a <irq_remove_handler+0xb6>
200028ba:	f025 0e01 	bic.w	lr, r5, #1
200028be:	f8de c008 	ldr.w	ip, [lr, #8]
200028c2:	4564      	cmp	r4, ip
200028c4:	d1d7      	bne.n	20002876 <irq_remove_handler+0x92>
200028c6:	f99e 4006 	ldrsb.w	r4, [lr, #6]
200028ca:	4673      	mov	r3, lr
200028cc:	2c00      	cmp	r4, #0
200028ce:	da08      	bge.n	200028e2 <irq_remove_handler+0xfe>
200028d0:	4615      	mov	r5, r2
200028d2:	e066      	b.n	200029a2 <irq_remove_handler+0x1be>
200028d4:	f8c9 0080 	str.w	r0, [r9, #128]	@ 0x80
200028d8:	e7df      	b.n	2000289a <irq_remove_handler+0xb6>
200028da:	f993 4006 	ldrsb.w	r4, [r3, #6]
200028de:	2c00      	cmp	r4, #0
200028e0:	db56      	blt.n	20002990 <irq_remove_handler+0x1ac>
200028e2:	eb04 0c44 	add.w	ip, r4, r4, lsl #1
200028e6:	eb07 0c8c 	add.w	ip, r7, ip, lsl #2
200028ea:	f8dc 2008 	ldr.w	r2, [ip, #8]
200028ee:	0061      	lsls	r1, r4, #1
200028f0:	609a      	str	r2, [r3, #8]
200028f2:	f89c 2007 	ldrb.w	r2, [ip, #7]
200028f6:	71da      	strb	r2, [r3, #7]
200028f8:	f99c 2006 	ldrsb.w	r2, [ip, #6]
200028fc:	2a00      	cmp	r2, #0
200028fe:	719a      	strb	r2, [r3, #6]
20002900:	db5d      	blt.n	200029be <irq_remove_handler+0x1da>
20002902:	f8bc 2004 	ldrh.w	r2, [ip, #4]
20002906:	0552      	lsls	r2, r2, #21
20002908:	d504      	bpl.n	20002914 <irq_remove_handler+0x130>
2000290a:	f502 12ff 	add.w	r2, r2, #2088960	@ 0x1fe000
2000290e:	f502 52ff 	add.w	r2, r2, #8160	@ 0x1fe0
20002912:	321f      	adds	r2, #31
20002914:	1552      	asrs	r2, r2, #21
20002916:	f102 0c02 	add.w	ip, r2, #2
2000291a:	f04f 0e04 	mov.w	lr, #4
2000291e:	220c      	movs	r2, #12
20002920:	fb12 e204 	smlabb	r2, r2, r4, lr
20002924:	eb02 024c 	add.w	r2, r2, ip, lsl #1
20002928:	f06f 0c07 	mvn.w	ip, #7
2000292c:	443a      	add	r2, r7
2000292e:	ebac 0c03 	sub.w	ip, ip, r3
20002932:	4462      	add	r2, ip
20002934:	f3c2 024a 	ubfx	r2, r2, #1, #11
20002938:	f442 4260 	orr.w	r2, r2, #57344	@ 0xe000
2000293c:	809a      	strh	r2, [r3, #4]
2000293e:	4b25      	ldr	r3, [pc, #148]	@ (200029d4 <irq_remove_handler+0x1f0>)
20002940:	4421      	add	r1, r4
20002942:	781a      	ldrb	r2, [r3, #0]
20002944:	eb07 0181 	add.w	r1, r7, r1, lsl #2
20002948:	701c      	strb	r4, [r3, #0]
2000294a:	718a      	strb	r2, [r1, #6]
2000294c:	e79e      	b.n	2000288c <irq_remove_handler+0xa8>
2000294e:	e9cd 0100 	strd	r0, r1, [sp]
20002952:	f000 fb1d 	bl	20002f90 <hard_assertion_failure>
20002956:	e9dd 0100 	ldrd	r0, r1, [sp]
2000295a:	f025 0e01 	bic.w	lr, r5, #1
2000295e:	f8de c008 	ldr.w	ip, [lr, #8]
20002962:	4564      	cmp	r4, ip
20002964:	d187      	bne.n	20002876 <irq_remove_handler+0x92>
20002966:	f99e 4006 	ldrsb.w	r4, [lr, #6]
2000296a:	4673      	mov	r3, lr
2000296c:	2c00      	cmp	r4, #0
2000296e:	dab8      	bge.n	200028e2 <irq_remove_handler+0xfe>
20002970:	4a19      	ldr	r2, [pc, #100]	@ (200029d8 <irq_remove_handler+0x1f4>)
20002972:	4c1a      	ldr	r4, [pc, #104]	@ (200029dc <irq_remove_handler+0x1f8>)
20002974:	1ad2      	subs	r2, r2, r3
20002976:	3a08      	subs	r2, #8
20002978:	f3c2 310a 	ubfx	r1, r2, #12, #11
2000297c:	ea6f 5101 	mvn.w	r1, r1, lsl #20
20002980:	ea6f 5111 	mvn.w	r1, r1, lsr #20
20002984:	ea44 0252 	orr.w	r2, r4, r2, lsr #1
20002988:	80da      	strh	r2, [r3, #6]
2000298a:	8099      	strh	r1, [r3, #4]
2000298c:	e77e      	b.n	2000288c <irq_remove_handler+0xa8>
2000298e:	4673      	mov	r3, lr
20002990:	2900      	cmp	r1, #0
20002992:	d1ed      	bne.n	20002970 <irq_remove_handler+0x18c>
20002994:	22ff      	movs	r2, #255	@ 0xff
20002996:	f88e 2006 	strb.w	r2, [lr, #6]
2000299a:	f64b 5201 	movw	r2, #48385	@ 0xbd01
2000299e:	f8ae 2004 	strh.w	r2, [lr, #4]
200029a2:	4c0c      	ldr	r4, [pc, #48]	@ (200029d4 <irq_remove_handler+0x1f0>)
200029a4:	f64a 22aa 	movw	r2, #43690	@ 0xaaaa
200029a8:	f894 c000 	ldrb.w	ip, [r4]
200029ac:	4619      	mov	r1, r3
200029ae:	1bc9      	subs	r1, r1, r7
200029b0:	4149      	adcs	r1, r1
200029b2:	434a      	muls	r2, r1
200029b4:	0d12      	lsrs	r2, r2, #20
200029b6:	f883 c006 	strb.w	ip, [r3, #6]
200029ba:	7022      	strb	r2, [r4, #0]
200029bc:	e766      	b.n	2000288c <irq_remove_handler+0xa8>
200029be:	f64b 5201 	movw	r2, #48385	@ 0xbd01
200029c2:	e7bb      	b.n	2000293c <irq_remove_handler+0x158>
200029c4:	2000afc9 	.word	0x2000afc9
200029c8:	e000ed00 	.word	0xe000ed00
200029cc:	10000111 	.word	0x10000111
200029d0:	20009700 	.word	0x20009700
200029d4:	2001fa6a 	.word	0x2001fa6a
200029d8:	2000973a 	.word	0x2000973a
200029dc:	fffff800 	.word	0xfffff800

200029e0 <irq_set_priority>:
200029e0:	f04f 0cff 	mov.w	ip, #255	@ 0xff
200029e4:	f020 0303 	bic.w	r3, r0, #3
200029e8:	f103 4360 	add.w	r3, r3, #3758096384	@ 0xe0000000
200029ec:	f503 4364 	add.w	r3, r3, #58368	@ 0xe400
200029f0:	f000 0003 	and.w	r0, r0, #3
200029f4:	681a      	ldr	r2, [r3, #0]
200029f6:	00c0      	lsls	r0, r0, #3
200029f8:	fa0c fc00 	lsl.w	ip, ip, r0
200029fc:	ea22 020c 	bic.w	r2, r2, ip
20002a00:	4081      	lsls	r1, r0
20002a02:	430a      	orrs	r2, r1
20002a04:	601a      	str	r2, [r3, #0]
20002a06:	4770      	bx	lr

20002a08 <irq_add_tail_to_free_list>:
20002a08:	b5f0      	push	{r4, r5, r6, r7, lr}
20002a0a:	f3ef 8505 	mrs	r5, IPSR
20002a0e:	b2ed      	uxtb	r5, r5
20002a10:	f3ef 8c10 	mrs	ip, PRIMASK
20002a14:	b672      	cpsid	i
20002a16:	4926      	ldr	r1, [pc, #152]	@ (20002ab0 <irq_add_tail_to_free_list+0xa8>)
20002a18:	e8d1 2fcf 	ldaexb	r2, [r1]
20002a1c:	2301      	movs	r3, #1
20002a1e:	2a00      	cmp	r2, #0
20002a20:	d1fa      	bne.n	20002a18 <irq_add_tail_to_free_list+0x10>
20002a22:	e8c1 3f42 	strexb	r2, r3, [r1]
20002a26:	2a00      	cmp	r2, #0
20002a28:	d1f6      	bne.n	20002a18 <irq_add_tail_to_free_list+0x10>
20002a2a:	f3bf 8f5f 	dmb	sy
20002a2e:	4e21      	ldr	r6, [pc, #132]	@ (20002ab4 <irq_add_tail_to_free_list+0xac>)
20002a30:	f040 0e01 	orr.w	lr, r0, #1
20002a34:	68b4      	ldr	r4, [r6, #8]
20002a36:	f64a 23aa 	movw	r3, #43690	@ 0xaaaa
20002a3a:	f854 7025 	ldr.w	r7, [r4, r5, lsl #2]
20002a3e:	4a1e      	ldr	r2, [pc, #120]	@ (20002ab8 <irq_add_tail_to_free_list+0xb0>)
20002a40:	4604      	mov	r4, r0
20002a42:	1aa4      	subs	r4, r4, r2
20002a44:	4164      	adcs	r4, r4
20002a46:	4363      	muls	r3, r4
20002a48:	0d1b      	lsrs	r3, r3, #20
20002a4a:	4577      	cmp	r7, lr
20002a4c:	b25b      	sxtb	r3, r3
20002a4e:	d01b      	beq.n	20002a88 <irq_add_tail_to_free_list+0x80>
20002a50:	f992 4006 	ldrsb.w	r4, [r2, #6]
20002a54:	429c      	cmp	r4, r3
20002a56:	d01c      	beq.n	20002a92 <irq_add_tail_to_free_list+0x8a>
20002a58:	f992 4012 	ldrsb.w	r4, [r2, #18]
20002a5c:	429c      	cmp	r4, r3
20002a5e:	d023      	beq.n	20002aa8 <irq_add_tail_to_free_list+0xa0>
20002a60:	f992 401e 	ldrsb.w	r4, [r2, #30]
20002a64:	429c      	cmp	r4, r3
20002a66:	d021      	beq.n	20002aac <irq_add_tail_to_free_list+0xa4>
20002a68:	f992 402a 	ldrsb.w	r4, [r2, #42]	@ 0x2a
20002a6c:	429c      	cmp	r4, r3
20002a6e:	bf08      	it	eq
20002a70:	2403      	moveq	r4, #3
20002a72:	d00f      	beq.n	20002a94 <irq_add_tail_to_free_list+0x8c>
20002a74:	4a11      	ldr	r2, [pc, #68]	@ (20002abc <irq_add_tail_to_free_list+0xb4>)
20002a76:	2400      	movs	r4, #0
20002a78:	7815      	ldrb	r5, [r2, #0]
20002a7a:	7013      	strb	r3, [r2, #0]
20002a7c:	7185      	strb	r5, [r0, #6]
20002a7e:	e8c1 4f8f 	stlb	r4, [r1]
20002a82:	f38c 8810 	msr	PRIMASK, ip
20002a86:	bdf0      	pop	{r4, r5, r6, r7, pc}
20002a88:	68b2      	ldr	r2, [r6, #8]
20002a8a:	4c0d      	ldr	r4, [pc, #52]	@ (20002ac0 <irq_add_tail_to_free_list+0xb8>)
20002a8c:	f842 4025 	str.w	r4, [r2, r5, lsl #2]
20002a90:	e7f0      	b.n	20002a74 <irq_add_tail_to_free_list+0x6c>
20002a92:	2400      	movs	r4, #0
20002a94:	eb04 0444 	add.w	r4, r4, r4, lsl #1
20002a98:	eb02 0284 	add.w	r2, r2, r4, lsl #2
20002a9c:	24ff      	movs	r4, #255	@ 0xff
20002a9e:	7194      	strb	r4, [r2, #6]
20002aa0:	f64b 5401 	movw	r4, #48385	@ 0xbd01
20002aa4:	8094      	strh	r4, [r2, #4]
20002aa6:	e7e5      	b.n	20002a74 <irq_add_tail_to_free_list+0x6c>
20002aa8:	2401      	movs	r4, #1
20002aaa:	e7f3      	b.n	20002a94 <irq_add_tail_to_free_list+0x8c>
20002aac:	2402      	movs	r4, #2
20002aae:	e7f1      	b.n	20002a94 <irq_add_tail_to_free_list+0x8c>
20002ab0:	2000afc9 	.word	0x2000afc9
20002ab4:	e000ed00 	.word	0xe000ed00
20002ab8:	20009700 	.word	0x20009700
20002abc:	2001fa6a 	.word	0x2001fa6a
20002ac0:	10000111 	.word	0x10000111

20002ac4 <gpio_set_function>:
20002ac4:	b410      	push	{r4}
20002ac6:	f44f 7480 	mov.w	r4, #256	@ 0x100
20002aca:	4b0c      	ldr	r3, [pc, #48]	@ (20002afc <gpio_set_function+0x38>)
20002acc:	f853 2020 	ldr.w	r2, [r3, r0, lsl #2]
20002ad0:	eb03 0380 	add.w	r3, r3, r0, lsl #2
20002ad4:	00c0      	lsls	r0, r0, #3
20002ad6:	f082 0240 	eor.w	r2, r2, #64	@ 0x40
20002ada:	f100 4080 	add.w	r0, r0, #1073741824	@ 0x40000000
20002ade:	f503 5c80 	add.w	ip, r3, #4096	@ 0x1000
20002ae2:	f002 02c0 	and.w	r2, r2, #192	@ 0xc0
20002ae6:	f500 3020 	add.w	r0, r0, #163840	@ 0x28000
20002aea:	f503 5340 	add.w	r3, r3, #12288	@ 0x3000
20002aee:	f8cc 2000 	str.w	r2, [ip]
20002af2:	6041      	str	r1, [r0, #4]
20002af4:	601c      	str	r4, [r3, #0]
20002af6:	f85d 4b04 	ldr.w	r4, [sp], #4
20002afa:	4770      	bx	lr
20002afc:	40038004 	.word	0x40038004

20002b00 <gpio_set_pulls>:
20002b00:	b410      	push	{r4}
20002b02:	4c08      	ldr	r4, [pc, #32]	@ (20002b24 <gpio_set_pulls+0x24>)
20002b04:	00c9      	lsls	r1, r1, #3
20002b06:	ea41 0182 	orr.w	r1, r1, r2, lsl #2
20002b0a:	f854 2020 	ldr.w	r2, [r4, r0, lsl #2]
20002b0e:	eb04 0380 	add.w	r3, r4, r0, lsl #2
20002b12:	4051      	eors	r1, r2
20002b14:	f503 5380 	add.w	r3, r3, #4096	@ 0x1000
20002b18:	f001 010c 	and.w	r1, r1, #12
20002b1c:	f85d 4b04 	ldr.w	r4, [sp], #4
20002b20:	6019      	str	r1, [r3, #0]
20002b22:	4770      	bx	lr
20002b24:	40038004 	.word	0x40038004

20002b28 <gpio_init>:
20002b28:	b430      	push	{r4, r5}
20002b2a:	f04f 0300 	mov.w	r3, #0
20002b2e:	ec43 0044 	gpioc_bit_oe_put r0, r3
20002b32:	ec43 0040 	gpioc_bit_out_put r0, r3
20002b36:	2505      	movs	r5, #5
20002b38:	f44f 7480 	mov.w	r4, #256	@ 0x100
20002b3c:	4b0b      	ldr	r3, [pc, #44]	@ (20002b6c <gpio_init+0x44>)
20002b3e:	00c2      	lsls	r2, r0, #3
20002b40:	f853 1020 	ldr.w	r1, [r3, r0, lsl #2]
20002b44:	eb03 0080 	add.w	r0, r3, r0, lsl #2
20002b48:	f081 0140 	eor.w	r1, r1, #64	@ 0x40
20002b4c:	f102 4380 	add.w	r3, r2, #1073741824	@ 0x40000000
20002b50:	f503 3320 	add.w	r3, r3, #163840	@ 0x28000
20002b54:	f001 02c0 	and.w	r2, r1, #192	@ 0xc0
20002b58:	f500 5180 	add.w	r1, r0, #4096	@ 0x1000
20002b5c:	f500 5040 	add.w	r0, r0, #12288	@ 0x3000
20002b60:	600a      	str	r2, [r1, #0]
20002b62:	605d      	str	r5, [r3, #4]
20002b64:	6004      	str	r4, [r0, #0]
20002b66:	bc30      	pop	{r4, r5}
20002b68:	4770      	bx	lr
20002b6a:	bf00      	nop
20002b6c:	40038004 	.word	0x40038004

20002b70 <gpio_deinit>:
20002b70:	b410      	push	{r4}
20002b72:	f44f 7180 	mov.w	r1, #256	@ 0x100
20002b76:	241f      	movs	r4, #31
20002b78:	4b0c      	ldr	r3, [pc, #48]	@ (20002bac <gpio_deinit+0x3c>)
20002b7a:	f853 2020 	ldr.w	r2, [r3, r0, lsl #2]
20002b7e:	eb03 0380 	add.w	r3, r3, r0, lsl #2
20002b82:	00c0      	lsls	r0, r0, #3
20002b84:	f082 0240 	eor.w	r2, r2, #64	@ 0x40
20002b88:	f100 4080 	add.w	r0, r0, #1073741824	@ 0x40000000
20002b8c:	f503 5c80 	add.w	ip, r3, #4096	@ 0x1000
20002b90:	f002 02c0 	and.w	r2, r2, #192	@ 0xc0
20002b94:	f500 3020 	add.w	r0, r0, #163840	@ 0x28000
20002b98:	f503 5340 	add.w	r3, r3, #12288	@ 0x3000
20002b9c:	f8cc 2000 	str.w	r2, [ip]
20002ba0:	6044      	str	r4, [r0, #4]
20002ba2:	f85d 4b04 	ldr.w	r4, [sp], #4
20002ba6:	6019      	str	r1, [r3, #0]
20002ba8:	4770      	bx	lr
20002baa:	bf00      	nop
20002bac:	40038004 	.word	0x40038004

20002bb0 <uart_init>:
20002bb0:	b5f8      	push	{r3, r4, r5, r6, r7, lr}
20002bb2:	4605      	mov	r5, r0
20002bb4:	2006      	movs	r0, #6
20002bb6:	460e      	mov	r6, r1
20002bb8:	f000 f954 	bl	20002e64 <clock_get_hz>
20002bbc:	2800      	cmp	r0, #0
20002bbe:	d042      	beq.n	20002c46 <uart_init+0x96>
20002bc0:	4a35      	ldr	r2, [pc, #212]	@ (20002c98 <uart_init+0xe8>)
20002bc2:	4836      	ldr	r0, [pc, #216]	@ (20002c9c <uart_init+0xec>)
20002bc4:	4295      	cmp	r5, r2
20002bc6:	bf14      	ite	ne
20002bc8:	f04f 6280 	movne.w	r2, #67108864	@ 0x4000000
20002bcc:	f04f 6200 	moveq.w	r2, #134217728	@ 0x8000000
20002bd0:	4b33      	ldr	r3, [pc, #204]	@ (20002ca0 <uart_init+0xf0>)
20002bd2:	4934      	ldr	r1, [pc, #208]	@ (20002ca4 <uart_init+0xf4>)
20002bd4:	6002      	str	r2, [r0, #0]
20002bd6:	601a      	str	r2, [r3, #0]
20002bd8:	688c      	ldr	r4, [r1, #8]
20002bda:	ea32 0404 	bics.w	r4, r2, r4
20002bde:	d1fb      	bne.n	20002bd8 <uart_init+0x28>
20002be0:	4b2d      	ldr	r3, [pc, #180]	@ (20002c98 <uart_init+0xe8>)
20002be2:	f44f 7180 	mov.w	r1, #256	@ 0x100
20002be6:	1aeb      	subs	r3, r5, r3
20002be8:	fab3 f383 	clz	r3, r3
20002bec:	4a2e      	ldr	r2, [pc, #184]	@ (20002ca8 <uart_init+0xf8>)
20002bee:	095b      	lsrs	r3, r3, #5
20002bf0:	2006      	movs	r0, #6
20002bf2:	f822 1013 	strh.w	r1, [r2, r3, lsl #1]
20002bf6:	f000 f935 	bl	20002e64 <clock_get_hz>
20002bfa:	00c3      	lsls	r3, r0, #3
20002bfc:	fbb3 f3f6 	udiv	r3, r3, r6
20002c00:	3301      	adds	r3, #1
20002c02:	09da      	lsrs	r2, r3, #7
20002c04:	d120      	bne.n	20002c48 <uart_init+0x98>
20002c06:	2640      	movs	r6, #64	@ 0x40
20002c08:	2101      	movs	r1, #1
20002c0a:	6269      	str	r1, [r5, #36]	@ 0x24
20002c0c:	62aa      	str	r2, [r5, #40]	@ 0x28
20002c0e:	6b2f      	ldr	r7, [r5, #48]	@ 0x30
20002c10:	07fb      	lsls	r3, r7, #31
20002c12:	d422      	bmi.n	20002c5a <uart_init+0xaa>
20002c14:	462b      	mov	r3, r5
20002c16:	2200      	movs	r2, #0
20002c18:	f853 1f2c 	ldr.w	r1, [r3, #44]!
20002c1c:	2006      	movs	r0, #6
20002c1e:	f503 5480 	add.w	r4, r3, #4096	@ 0x1000
20002c22:	6022      	str	r2, [r4, #0]
20002c24:	632f      	str	r7, [r5, #48]	@ 0x30
20002c26:	f000 f91d 	bl	20002e64 <clock_get_hz>
20002c2a:	f240 3101 	movw	r1, #769	@ 0x301
20002c2e:	2203      	movs	r2, #3
20002c30:	0080      	lsls	r0, r0, #2
20002c32:	fbb0 f0f6 	udiv	r0, r0, r6
20002c36:	6aeb      	ldr	r3, [r5, #44]	@ 0x2c
20002c38:	f083 0370 	eor.w	r3, r3, #112	@ 0x70
20002c3c:	f003 037e 	and.w	r3, r3, #126	@ 0x7e
20002c40:	6023      	str	r3, [r4, #0]
20002c42:	6329      	str	r1, [r5, #48]	@ 0x30
20002c44:	64aa      	str	r2, [r5, #72]	@ 0x48
20002c46:	bdf8      	pop	{r3, r4, r5, r6, r7, pc}
20002c48:	f64f 71fe 	movw	r1, #65534	@ 0xfffe
20002c4c:	428a      	cmp	r2, r1
20002c4e:	d91b      	bls.n	20002c88 <uart_init+0xd8>
20002c50:	4622      	mov	r2, r4
20002c52:	f64f 71ff 	movw	r1, #65535	@ 0xffff
20002c56:	4e15      	ldr	r6, [pc, #84]	@ (20002cac <uart_init+0xfc>)
20002c58:	e7d7      	b.n	20002c0a <uart_init+0x5a>
20002c5a:	f240 3201 	movw	r2, #769	@ 0x301
20002c5e:	f505 5340 	add.w	r3, r5, #12288	@ 0x3000
20002c62:	631a      	str	r2, [r3, #48]	@ 0x30
20002c64:	6a6b      	ldr	r3, [r5, #36]	@ 0x24
20002c66:	6aac      	ldr	r4, [r5, #40]	@ 0x28
20002c68:	2006      	movs	r0, #6
20002c6a:	eb04 1483 	add.w	r4, r4, r3, lsl #6
20002c6e:	f000 f8f9 	bl	20002e64 <clock_get_hz>
20002c72:	4b0f      	ldr	r3, [pc, #60]	@ (20002cb0 <uart_init+0x100>)
20002c74:	02a4      	lsls	r4, r4, #10
20002c76:	fba3 2300 	umull	r2, r3, r3, r0
20002c7a:	0adb      	lsrs	r3, r3, #11
20002c7c:	2100      	movs	r1, #0
20002c7e:	fbb4 f0f3 	udiv	r0, r4, r3
20002c82:	f7ff fb45 	bl	20002310 <busy_wait_us>
20002c86:	e7c5      	b.n	20002c14 <uart_init+0x64>
20002c88:	f3c3 0345 	ubfx	r3, r3, #1, #6
20002c8c:	4611      	mov	r1, r2
20002c8e:	eb03 1682 	add.w	r6, r3, r2, lsl #6
20002c92:	461a      	mov	r2, r3
20002c94:	e7b9      	b.n	20002c0a <uart_init+0x5a>
20002c96:	bf00      	nop
20002c98:	40078000 	.word	0x40078000
20002c9c:	40022000 	.word	0x40022000
20002ca0:	40023000 	.word	0x40023000
20002ca4:	40020000 	.word	0x40020000
20002ca8:	2000f960 	.word	0x2000f960
20002cac:	003fffc0 	.word	0x003fffc0
20002cb0:	8f2b7b75 	.word	0x8f2b7b75

20002cb4 <uart_deinit>:
20002cb4:	4a04      	ldr	r2, [pc, #16]	@ (20002cc8 <uart_deinit+0x14>)
20002cb6:	4b05      	ldr	r3, [pc, #20]	@ (20002ccc <uart_deinit+0x18>)
20002cb8:	4290      	cmp	r0, r2
20002cba:	bf14      	ite	ne
20002cbc:	f04f 6080 	movne.w	r0, #67108864	@ 0x4000000
20002cc0:	f04f 6000 	moveq.w	r0, #134217728	@ 0x8000000
20002cc4:	6018      	str	r0, [r3, #0]
20002cc6:	4770      	bx	lr
20002cc8:	40078000 	.word	0x40078000
20002ccc:	40022000 	.word	0x40022000

20002cd0 <uart_set_format>:
20002cd0:	3a01      	subs	r2, #1
20002cd2:	3905      	subs	r1, #5
20002cd4:	00d2      	lsls	r2, r2, #3
20002cd6:	b5f8      	push	{r3, r4, r5, r6, r7, lr}
20002cd8:	4605      	mov	r5, r0
20002cda:	ea42 1441 	orr.w	r4, r2, r1, lsl #5
20002cde:	b143      	cbz	r3, 20002cf2 <uart_set_format+0x22>
20002ce0:	f1a3 0301 	sub.w	r3, r3, #1
20002ce4:	fab3 f383 	clz	r3, r3
20002ce8:	095b      	lsrs	r3, r3, #5
20002cea:	ea44 0383 	orr.w	r3, r4, r3, lsl #2
20002cee:	f043 0402 	orr.w	r4, r3, #2
20002cf2:	6b2e      	ldr	r6, [r5, #48]	@ 0x30
20002cf4:	07f3      	lsls	r3, r6, #31
20002cf6:	d40a      	bmi.n	20002d0e <uart_set_format+0x3e>
20002cf8:	462b      	mov	r3, r5
20002cfa:	f853 2f2c 	ldr.w	r2, [r3, #44]!
20002cfe:	4062      	eors	r2, r4
20002d00:	f002 026e 	and.w	r2, r2, #110	@ 0x6e
20002d04:	f503 5380 	add.w	r3, r3, #4096	@ 0x1000
20002d08:	601a      	str	r2, [r3, #0]
20002d0a:	632e      	str	r6, [r5, #48]	@ 0x30
20002d0c:	bdf8      	pop	{r3, r4, r5, r6, r7, pc}
20002d0e:	f240 3201 	movw	r2, #769	@ 0x301
20002d12:	f505 5340 	add.w	r3, r5, #12288	@ 0x3000
20002d16:	631a      	str	r2, [r3, #48]	@ 0x30
20002d18:	6a6b      	ldr	r3, [r5, #36]	@ 0x24
20002d1a:	6aaf      	ldr	r7, [r5, #40]	@ 0x28
20002d1c:	2006      	movs	r0, #6
20002d1e:	eb07 1783 	add.w	r7, r7, r3, lsl #6
20002d22:	f000 f89f 	bl	20002e64 <clock_get_hz>
20002d26:	4b05      	ldr	r3, [pc, #20]	@ (20002d3c <uart_set_format+0x6c>)
20002d28:	02bf      	lsls	r7, r7, #10
20002d2a:	fba3 3000 	umull	r3, r0, r3, r0
20002d2e:	0ac0      	lsrs	r0, r0, #11
20002d30:	2100      	movs	r1, #0
20002d32:	fbb7 f0f0 	udiv	r0, r7, r0
20002d36:	f7ff faeb 	bl	20002310 <busy_wait_us>
20002d3a:	e7dd      	b.n	20002cf8 <uart_set_format+0x28>
20002d3c:	8f2b7b75 	.word	0x8f2b7b75

20002d40 <uart_set_break>:
20002d40:	b5f8      	push	{r3, r4, r5, r6, r7, lr}
20002d42:	6b06      	ldr	r6, [r0, #48]	@ 0x30
20002d44:	4604      	mov	r4, r0
20002d46:	07f3      	lsls	r3, r6, #31
20002d48:	460d      	mov	r5, r1
20002d4a:	d40a      	bmi.n	20002d62 <uart_set_break+0x22>
20002d4c:	4623      	mov	r3, r4
20002d4e:	f853 1f2c 	ldr.w	r1, [r3, #44]!
20002d52:	4069      	eors	r1, r5
20002d54:	f001 0101 	and.w	r1, r1, #1
20002d58:	f503 5380 	add.w	r3, r3, #4096	@ 0x1000
20002d5c:	6019      	str	r1, [r3, #0]
20002d5e:	6326      	str	r6, [r4, #48]	@ 0x30
20002d60:	bdf8      	pop	{r3, r4, r5, r6, r7, pc}
20002d62:	f240 3201 	movw	r2, #769	@ 0x301
20002d66:	f500 5340 	add.w	r3, r0, #12288	@ 0x3000
20002d6a:	631a      	str	r2, [r3, #48]	@ 0x30
20002d6c:	6a63      	ldr	r3, [r4, #36]	@ 0x24
20002d6e:	6aa7      	ldr	r7, [r4, #40]	@ 0x28
20002d70:	2006      	movs	r0, #6
20002d72:	eb07 1783 	add.w	r7, r7, r3, lsl #6
20002d76:	f000 f875 	bl	20002e64 <clock_get_hz>
20002d7a:	4b05      	ldr	r3, [pc, #20]	@ (20002d90 <uart_set_break+0x50>)
20002d7c:	02bf      	lsls	r7, r7, #10
20002d7e:	fba3 3000 	umull	r3, r0, r3, r0
20002d82:	0ac0      	lsrs	r0, r0, #11
20002d84:	2100      	movs	r1, #0
20002d86:	fbb7 f0f0 	udiv	r0, r7, r0
20002d8a:	f7ff fac1 	bl	20002310 <busy_wait_us>
20002d8e:	e7dd      	b.n	20002d4c <uart_set_break+0xc>
20002d90:	8f2b7b75 	.word	0x8f2b7b75

20002d94 <clock_configure_undivided>:
20002d94:	eb00 0c40 	add.w	ip, r0, r0, lsl #1
20002d98:	ea4f 0c8c 	mov.w	ip, ip, lsl #2
20002d9c:	f10c 4c80 	add.w	ip, ip, #1073741824	@ 0x40000000
20002da0:	f50c 3c80 	add.w	ip, ip, #65536	@ 0x10000
20002da4:	b5f0      	push	{r4, r5, r6, r7, lr}
20002da6:	4616      	mov	r6, r2
20002da8:	f8dc 2004 	ldr.w	r2, [ip, #4]
20002dac:	1f05      	subs	r5, r0, #4
20002dae:	f5b2 3f80 	cmp.w	r2, #65536	@ 0x10000
20002db2:	bf38      	it	cc
20002db4:	f44f 3280 	movcc.w	r2, #65536	@ 0x10000
20002db8:	b2ed      	uxtb	r5, r5
20002dba:	bf38      	it	cc
20002dbc:	f8cc 2004 	strcc.w	r2, [ip, #4]
20002dc0:	2d01      	cmp	r5, #1
20002dc2:	d92a      	bls.n	20002e1a <clock_configure_undivided+0x86>
20002dc4:	f44f 6700 	mov.w	r7, #2048	@ 0x800
20002dc8:	4c25      	ldr	r4, [pc, #148]	@ (20002e60 <clock_configure_undivided+0xcc>)
20002dca:	f50c 5240 	add.w	r2, ip, #12288	@ 0x3000
20002dce:	6017      	str	r7, [r2, #0]
20002dd0:	f854 2020 	ldr.w	r2, [r4, r0, lsl #2]
20002dd4:	b9b2      	cbnz	r2, 20002e04 <clock_configure_undivided+0x70>
20002dd6:	f8dc 2000 	ldr.w	r2, [ip]
20002dda:	2d01      	cmp	r5, #1
20002ddc:	ea82 1246 	eor.w	r2, r2, r6, lsl #5
20002de0:	f002 02e0 	and.w	r2, r2, #224	@ 0xe0
20002de4:	f50c 5680 	add.w	r6, ip, #4096	@ 0x1000
20002de8:	6032      	str	r2, [r6, #0]
20002dea:	d92a      	bls.n	20002e42 <clock_configure_undivided+0xae>
20002dec:	f44f 6100 	mov.w	r1, #2048	@ 0x800
20002df0:	f844 3020 	str.w	r3, [r4, r0, lsl #2]
20002df4:	f44f 3380 	mov.w	r3, #65536	@ 0x10000
20002df8:	f50c 5200 	add.w	r2, ip, #8192	@ 0x2000
20002dfc:	6011      	str	r1, [r2, #0]
20002dfe:	f8cc 3004 	str.w	r3, [ip, #4]
20002e02:	bdf0      	pop	{r4, r5, r6, r7, pc}
20002e04:	6967      	ldr	r7, [r4, #20]
20002e06:	fbb7 fef2 	udiv	lr, r7, r2
20002e0a:	f10e 0e01 	add.w	lr, lr, #1
20002e0e:	eb0e 0e4e 	add.w	lr, lr, lr, lsl #1
20002e12:	f1be 0e03 	subs.w	lr, lr, #3
20002e16:	d2fc      	bcs.n	20002e12 <clock_configure_undivided+0x7e>
20002e18:	e7dd      	b.n	20002dd6 <clock_configure_undivided+0x42>
20002e1a:	2901      	cmp	r1, #1
20002e1c:	d1d2      	bne.n	20002dc4 <clock_configure_undivided+0x30>
20002e1e:	2403      	movs	r4, #3
20002e20:	f50c 5240 	add.w	r2, ip, #12288	@ 0x3000
20002e24:	6014      	str	r4, [r2, #0]
20002e26:	f8dc 2008 	ldr.w	r2, [ip, #8]
20002e2a:	07d2      	lsls	r2, r2, #31
20002e2c:	d5fb      	bpl.n	20002e26 <clock_configure_undivided+0x92>
20002e2e:	f8dc 2000 	ldr.w	r2, [ip]
20002e32:	4c0b      	ldr	r4, [pc, #44]	@ (20002e60 <clock_configure_undivided+0xcc>)
20002e34:	ea82 1246 	eor.w	r2, r2, r6, lsl #5
20002e38:	f002 02e0 	and.w	r2, r2, #224	@ 0xe0
20002e3c:	f50c 5680 	add.w	r6, ip, #4096	@ 0x1000
20002e40:	6032      	str	r2, [r6, #0]
20002e42:	2201      	movs	r2, #1
20002e44:	f8dc 5000 	ldr.w	r5, [ip]
20002e48:	404d      	eors	r5, r1
20002e4a:	f005 0503 	and.w	r5, r5, #3
20002e4e:	6035      	str	r5, [r6, #0]
20002e50:	fa02 f101 	lsl.w	r1, r2, r1
20002e54:	f8dc 2008 	ldr.w	r2, [ip, #8]
20002e58:	420a      	tst	r2, r1
20002e5a:	d0fb      	beq.n	20002e54 <clock_configure_undivided+0xc0>
20002e5c:	e7c6      	b.n	20002dec <clock_configure_undivided+0x58>
20002e5e:	bf00      	nop
20002e60:	2000f1fc 	.word	0x2000f1fc

20002e64 <clock_get_hz>:
20002e64:	4b01      	ldr	r3, [pc, #4]	@ (20002e6c <clock_get_hz+0x8>)
20002e66:	f853 0020 	ldr.w	r0, [r3, r0, lsl #2]
20002e6a:	4770      	bx	lr
20002e6c:	2000f1fc 	.word	0x2000f1fc

20002e70 <pll_init>:
20002e70:	b470      	push	{r4, r5, r6}
20002e72:	9d03      	ldr	r5, [sp, #12]
20002e74:	6804      	ldr	r4, [r0, #0]
20002e76:	032d      	lsls	r5, r5, #12
20002e78:	ea45 4503 	orr.w	r5, r5, r3, lsl #16
20002e7c:	4b1b      	ldr	r3, [pc, #108]	@ (20002eec <pll_init+0x7c>)
20002e7e:	2c00      	cmp	r4, #0
20002e80:	fbb3 f3f1 	udiv	r3, r3, r1
20002e84:	fbb2 f6f3 	udiv	r6, r2, r3
20002e88:	db1f      	blt.n	20002eca <pll_init+0x5a>
20002e8a:	4a19      	ldr	r2, [pc, #100]	@ (20002ef0 <pll_init+0x80>)
20002e8c:	4b19      	ldr	r3, [pc, #100]	@ (20002ef4 <pll_init+0x84>)
20002e8e:	4290      	cmp	r0, r2
20002e90:	bf14      	ite	ne
20002e92:	f44f 4280 	movne.w	r2, #16384	@ 0x4000
20002e96:	f44f 4200 	moveq.w	r2, #32768	@ 0x8000
20002e9a:	4c17      	ldr	r4, [pc, #92]	@ (20002ef8 <pll_init+0x88>)
20002e9c:	601a      	str	r2, [r3, #0]
20002e9e:	f503 5380 	add.w	r3, r3, #4096	@ 0x1000
20002ea2:	601a      	str	r2, [r3, #0]
20002ea4:	68a3      	ldr	r3, [r4, #8]
20002ea6:	ea32 0303 	bics.w	r3, r2, r3
20002eaa:	d1fb      	bne.n	20002ea4 <pll_init+0x34>
20002eac:	2221      	movs	r2, #33	@ 0x21
20002eae:	f500 5340 	add.w	r3, r0, #12288	@ 0x3000
20002eb2:	3304      	adds	r3, #4
20002eb4:	6001      	str	r1, [r0, #0]
20002eb6:	6086      	str	r6, [r0, #8]
20002eb8:	601a      	str	r2, [r3, #0]
20002eba:	6802      	ldr	r2, [r0, #0]
20002ebc:	2a00      	cmp	r2, #0
20002ebe:	dafc      	bge.n	20002eba <pll_init+0x4a>
20002ec0:	2208      	movs	r2, #8
20002ec2:	60c5      	str	r5, [r0, #12]
20002ec4:	601a      	str	r2, [r3, #0]
20002ec6:	bc70      	pop	{r4, r5, r6}
20002ec8:	4770      	bx	lr
20002eca:	6803      	ldr	r3, [r0, #0]
20002ecc:	f003 033f 	and.w	r3, r3, #63	@ 0x3f
20002ed0:	428b      	cmp	r3, r1
20002ed2:	d1da      	bne.n	20002e8a <pll_init+0x1a>
20002ed4:	6883      	ldr	r3, [r0, #8]
20002ed6:	f3c3 030b 	ubfx	r3, r3, #0, #12
20002eda:	42b3      	cmp	r3, r6
20002edc:	d1d5      	bne.n	20002e8a <pll_init+0x1a>
20002ede:	68c3      	ldr	r3, [r0, #12]
20002ee0:	f403 23ee 	and.w	r3, r3, #487424	@ 0x77000
20002ee4:	42ab      	cmp	r3, r5
20002ee6:	d1d0      	bne.n	20002e8a <pll_init+0x1a>
20002ee8:	e7ed      	b.n	20002ec6 <pll_init+0x56>
20002eea:	bf00      	nop
20002eec:	00b71b00 	.word	0x00b71b00
20002ef0:	40058000 	.word	0x40058000
20002ef4:	40022000 	.word	0x40022000
20002ef8:	40020000 	.word	0x40020000

20002efc <tick_start>:
20002efc:	2301      	movs	r3, #1
20002efe:	eb00 0040 	add.w	r0, r0, r0, lsl #1
20002f02:	0080      	lsls	r0, r0, #2
20002f04:	f100 4080 	add.w	r0, r0, #1073741824	@ 0x40000000
20002f08:	f500 1084 	add.w	r0, r0, #1081344	@ 0x108000
20002f0c:	6041      	str	r1, [r0, #4]
20002f0e:	6003      	str	r3, [r0, #0]
20002f10:	4770      	bx	lr
20002f12:	bf00      	nop

20002f14 <rom_func_lookup>:
20002f14:	2300      	movs	r3, #0
20002f16:	8adb      	ldrh	r3, [r3, #22]
20002f18:	2200      	movs	r2, #0
20002f1a:	e842 f200 	tt	r2, r2
20002f1e:	0252      	lsls	r2, r2, #9
20002f20:	d401      	bmi.n	20002f26 <rom_func_lookup+0x12>
20002f22:	2110      	movs	r1, #16
20002f24:	4718      	bx	r3
20002f26:	2104      	movs	r1, #4
20002f28:	4718      	bx	r3
20002f2a:	bf00      	nop

20002f2c <runtime_init_bootrom_locking_enable>:
20002f2c:	4a03      	ldr	r2, [pc, #12]	@ (20002f3c <runtime_init_bootrom_locking_enable+0x10>)
20002f2e:	f8d2 3828 	ldr.w	r3, [r2, #2088]	@ 0x828
20002f32:	2b00      	cmp	r3, #0
20002f34:	d0fb      	beq.n	20002f2e <runtime_init_bootrom_locking_enable+0x2>
20002f36:	f3bf 8f5f 	dmb	sy
20002f3a:	4770      	bx	lr
20002f3c:	400e0000 	.word	0x400e0000

20002f40 <runtime_init_boot_locks_reset>:
20002f40:	2100      	movs	r1, #0
20002f42:	4b04      	ldr	r3, [pc, #16]	@ (20002f54 <runtime_init_boot_locks_reset+0x14>)
20002f44:	4a04      	ldr	r2, [pc, #16]	@ (20002f58 <runtime_init_boot_locks_reset+0x18>)
20002f46:	f3bf 8f5f 	dmb	sy
20002f4a:	f843 1b04 	str.w	r1, [r3], #4
20002f4e:	4293      	cmp	r3, r2
20002f50:	d1f9      	bne.n	20002f46 <runtime_init_boot_locks_reset+0x6>
20002f52:	4770      	bx	lr
20002f54:	400e080c 	.word	0x400e080c
20002f58:	400e082c 	.word	0x400e082c

20002f5c <xosc_init>:
20002f5c:	b410      	push	{r4}
20002f5e:	f44f 708d 	mov.w	r0, #282	@ 0x11a
20002f62:	f44f 642a 	mov.w	r4, #2720	@ 0xaa0
20002f66:	4a06      	ldr	r2, [pc, #24]	@ (20002f80 <xosc_init+0x24>)
20002f68:	4b06      	ldr	r3, [pc, #24]	@ (20002f84 <xosc_init+0x28>)
20002f6a:	4907      	ldr	r1, [pc, #28]	@ (20002f88 <xosc_init+0x2c>)
20002f6c:	6014      	str	r4, [r2, #0]
20002f6e:	60d0      	str	r0, [r2, #12]
20002f70:	6019      	str	r1, [r3, #0]
20002f72:	6853      	ldr	r3, [r2, #4]
20002f74:	2b00      	cmp	r3, #0
20002f76:	dafc      	bge.n	20002f72 <xosc_init+0x16>
20002f78:	f85d 4b04 	ldr.w	r4, [sp], #4
20002f7c:	4770      	bx	lr
20002f7e:	bf00      	nop
20002f80:	40048000 	.word	0x40048000
20002f84:	4004a000 	.word	0x4004a000
20002f88:	00fab000 	.word	0x00fab000

20002f8c <first_per_core_initializer>:
20002f8c:	4770      	bx	lr
20002f8e:	bf00      	nop

20002f90 <hard_assertion_failure>:
20002f90:	b508      	push	{r3, lr}
20002f92:	4801      	ldr	r0, [pc, #4]	@ (20002f98 <hard_assertion_failure+0x8>)
20002f94:	f7ff f9ee 	bl	20002374 <panic>
20002f98:	200092f0 	.word	0x200092f0

20002f9c <runtime_run_initializers>:
20002f9c:	b538      	push	{r3, r4, r5, lr}
20002f9e:	4c05      	ldr	r4, [pc, #20]	@ (20002fb4 <runtime_run_initializers+0x18>)
20002fa0:	4d05      	ldr	r5, [pc, #20]	@ (20002fb8 <runtime_run_initializers+0x1c>)
20002fa2:	42ac      	cmp	r4, r5
20002fa4:	d204      	bcs.n	20002fb0 <runtime_run_initializers+0x14>
20002fa6:	f854 3b04 	ldr.w	r3, [r4], #4
20002faa:	4798      	blx	r3
20002fac:	42ac      	cmp	r4, r5
20002fae:	d3fa      	bcc.n	20002fa6 <runtime_run_initializers+0xa>
20002fb0:	bd38      	pop	{r3, r4, r5, pc}
20002fb2:	bf00      	nop
20002fb4:	20009794 	.word	0x20009794
20002fb8:	200097d4 	.word	0x200097d4

20002fbc <runtime_init_early_resets>:
20002fbc:	b410      	push	{r4}
20002fbe:	4807      	ldr	r0, [pc, #28]	@ (20002fdc <runtime_init_early_resets+0x20>)
20002fc0:	4c07      	ldr	r4, [pc, #28]	@ (20002fe0 <runtime_init_early_resets+0x24>)
20002fc2:	4b08      	ldr	r3, [pc, #32]	@ (20002fe4 <runtime_init_early_resets+0x28>)
20002fc4:	4a08      	ldr	r2, [pc, #32]	@ (20002fe8 <runtime_init_early_resets+0x2c>)
20002fc6:	4909      	ldr	r1, [pc, #36]	@ (20002fec <runtime_init_early_resets+0x30>)
20002fc8:	6004      	str	r4, [r0, #0]
20002fca:	601a      	str	r2, [r3, #0]
20002fcc:	688b      	ldr	r3, [r1, #8]
20002fce:	ea32 0303 	bics.w	r3, r2, r3
20002fd2:	d1fb      	bne.n	20002fcc <runtime_init_early_resets+0x10>
20002fd4:	f85d 4b04 	ldr.w	r4, [sp], #4
20002fd8:	4770      	bx	lr
20002fda:	bf00      	nop
20002fdc:	40022000 	.word	0x40022000
20002fe0:	efef3b7f 	.word	0xefef3b7f
20002fe4:	40023000 	.word	0x40023000
20002fe8:	03f3fff6 	.word	0x03f3fff6
20002fec:	40020000 	.word	0x40020000

20002ff0 <runtime_init_usb_power_down>:
20002ff0:	4b04      	ldr	r3, [pc, #16]	@ (20003004 <runtime_init_usb_power_down+0x14>)
20002ff2:	6cdb      	ldr	r3, [r3, #76]	@ 0x4c
20002ff4:	f5b3 4f00 	cmp.w	r3, #32768	@ 0x8000
20002ff8:	d103      	bne.n	20003002 <runtime_init_usb_power_down+0x12>
20002ffa:	f44f 2280 	mov.w	r2, #262144	@ 0x40000
20002ffe:	4b02      	ldr	r3, [pc, #8]	@ (20003008 <runtime_init_usb_power_down+0x18>)
20003000:	64da      	str	r2, [r3, #76]	@ 0x4c
20003002:	4770      	bx	lr
20003004:	50110000 	.word	0x50110000
20003008:	50112000 	.word	0x50112000

2000300c <runtime_init_per_core_enable_coprocessors>:
2000300c:	f04f 22e0 	mov.w	r2, #3758153728	@ 0xe000e000
20003010:	4b04      	ldr	r3, [pc, #16]	@ (20003024 <runtime_init_per_core_enable_coprocessors+0x18>)
20003012:	f8d2 1d88 	ldr.w	r1, [r2, #3464]	@ 0xd88
20003016:	430b      	orrs	r3, r1
20003018:	f8c2 3d88 	str.w	r3, [r2, #3464]	@ 0xd88
2000301c:	ee10 0430 	dcp_rcmp r0
20003020:	4770      	bx	lr
20003022:	bf00      	nop
20003024:	00300303 	.word	0x00300303

20003028 <runtime_init_post_clock_resets>:
20003028:	f06f 4160 	mvn.w	r1, #3758096384	@ 0xe0000000
2000302c:	4b04      	ldr	r3, [pc, #16]	@ (20003040 <runtime_init_post_clock_resets+0x18>)
2000302e:	4a05      	ldr	r2, [pc, #20]	@ (20003044 <runtime_init_post_clock_resets+0x1c>)
20003030:	6019      	str	r1, [r3, #0]
20003032:	6893      	ldr	r3, [r2, #8]
20003034:	43db      	mvns	r3, r3
20003036:	f033 4360 	bics.w	r3, r3, #3758096384	@ 0xe0000000
2000303a:	d1fa      	bne.n	20003032 <runtime_init_post_clock_resets+0xa>
2000303c:	4770      	bx	lr
2000303e:	bf00      	nop
20003040:	40023000 	.word	0x40023000
20003044:	40020000 	.word	0x40020000

20003048 <runtime_init_bootrom_reset>:
20003048:	b510      	push	{r4, lr}
2000304a:	f245 2053 	movw	r0, #21075	@ 0x5253
2000304e:	f7ff ff61 	bl	20002f14 <rom_func_lookup>
20003052:	e8bd 4010 	ldmia.w	sp!, {r4, lr}
20003056:	4603      	mov	r3, r0
20003058:	2004      	movs	r0, #4
2000305a:	4718      	bx	r3

2000305c <runtime_init_per_core_bootrom_reset>:
2000305c:	b510      	push	{r4, lr}
2000305e:	f245 2053 	movw	r0, #21075	@ 0x5253
20003062:	f7ff ff57 	bl	20002f14 <rom_func_lookup>
20003066:	e8bd 4010 	ldmia.w	sp!, {r4, lr}
2000306a:	4603      	mov	r3, r0
2000306c:	2001      	movs	r0, #1
2000306e:	4718      	bx	r3

20003070 <runtime_init_spin_locks_reset>:
20003070:	f7ff ba52 	b.w	20002518 <spin_locks_reset>

20003074 <runtime_init_install_ram_vector_table>:
20003074:	b570      	push	{r4, r5, r6, lr}
20003076:	4914      	ldr	r1, [pc, #80]	@ (200030c8 <runtime_init_install_ram_vector_table+0x54>)
20003078:	4c14      	ldr	r4, [pc, #80]	@ (200030cc <runtime_init_install_ram_vector_table+0x58>)
2000307a:	4d15      	ldr	r5, [pc, #84]	@ (200030d0 <runtime_init_install_ram_vector_table+0x5c>)
2000307c:	1a64      	subs	r4, r4, r1
2000307e:	10a6      	asrs	r6, r4, #2
20003080:	2e44      	cmp	r6, #68	@ 0x44
20003082:	4632      	mov	r2, r6
20003084:	bf28      	it	cs
20003086:	2244      	movcs	r2, #68	@ 0x44
20003088:	4628      	mov	r0, r5
2000308a:	0092      	lsls	r2, r2, #2
2000308c:	f005 f91c 	bl	200082c8 <memcpy>
20003090:	f5b4 7f86 	cmp.w	r4, #268	@ 0x10c
20003094:	d813      	bhi.n	200030be <runtime_init_install_ram_vector_table+0x4a>
20003096:	4a0f      	ldr	r2, [pc, #60]	@ (200030d4 <runtime_init_install_ram_vector_table+0x60>)
20003098:	f1c6 0144 	rsb	r1, r6, #68	@ 0x44
2000309c:	d012      	beq.n	200030c4 <runtime_init_install_ram_vector_table+0x50>
2000309e:	192b      	adds	r3, r5, r4
200030a0:	0848      	lsrs	r0, r1, #1
200030a2:	eb03 00c0 	add.w	r0, r3, r0, lsl #3
200030a6:	e9c3 2200 	strd	r2, r2, [r3]
200030aa:	3308      	adds	r3, #8
200030ac:	4283      	cmp	r3, r0
200030ae:	d1fa      	bne.n	200030a6 <runtime_init_install_ram_vector_table+0x32>
200030b0:	07cb      	lsls	r3, r1, #31
200030b2:	d504      	bpl.n	200030be <runtime_init_install_ram_vector_table+0x4a>
200030b4:	f021 0301 	bic.w	r3, r1, #1
200030b8:	4433      	add	r3, r6
200030ba:	f845 2023 	str.w	r2, [r5, r3, lsl #2]
200030be:	4b06      	ldr	r3, [pc, #24]	@ (200030d8 <runtime_init_install_ram_vector_table+0x64>)
200030c0:	609d      	str	r5, [r3, #8]
200030c2:	bd70      	pop	{r4, r5, r6, pc}
200030c4:	2343      	movs	r3, #67	@ 0x43
200030c6:	e7f8      	b.n	200030ba <runtime_init_install_ram_vector_table+0x46>
200030c8:	10000000 	.word	0x10000000
200030cc:	10000110 	.word	0x10000110
200030d0:	20000000 	.word	0x20000000
200030d4:	10000111 	.word	0x10000111
200030d8:	e000ed00 	.word	0xe000ed00

200030dc <runtime_init_clocks>:
200030dc:	2300      	movs	r3, #0
200030de:	b570      	push	{r4, r5, r6, lr}
200030e0:	4c2b      	ldr	r4, [pc, #172]	@ (20003190 <runtime_init_clocks+0xb4>)
200030e2:	b082      	sub	sp, #8
200030e4:	f8c4 3084 	str.w	r3, [r4, #132]	@ 0x84
200030e8:	f7ff ff38 	bl	20002f5c <xosc_init>
200030ec:	2201      	movs	r2, #1
200030ee:	4b29      	ldr	r3, [pc, #164]	@ (20003194 <runtime_init_clocks+0xb8>)
200030f0:	63da      	str	r2, [r3, #60]	@ 0x3c
200030f2:	6c63      	ldr	r3, [r4, #68]	@ 0x44
200030f4:	2b01      	cmp	r3, #1
200030f6:	d1fc      	bne.n	200030f2 <runtime_init_clocks+0x16>
200030f8:	2103      	movs	r1, #3
200030fa:	4a26      	ldr	r2, [pc, #152]	@ (20003194 <runtime_init_clocks+0xb8>)
200030fc:	4b24      	ldr	r3, [pc, #144]	@ (20003190 <runtime_init_clocks+0xb4>)
200030fe:	6311      	str	r1, [r2, #48]	@ 0x30
20003100:	6b9c      	ldr	r4, [r3, #56]	@ 0x38
20003102:	2c01      	cmp	r4, #1
20003104:	d1fc      	bne.n	20003100 <runtime_init_clocks+0x24>
20003106:	2602      	movs	r6, #2
20003108:	2505      	movs	r5, #5
2000310a:	4621      	mov	r1, r4
2000310c:	2305      	movs	r3, #5
2000310e:	4a22      	ldr	r2, [pc, #136]	@ (20003198 <runtime_init_clocks+0xbc>)
20003110:	4822      	ldr	r0, [pc, #136]	@ (2000319c <runtime_init_clocks+0xc0>)
20003112:	9600      	str	r6, [sp, #0]
20003114:	f7ff feac 	bl	20002e70 <pll_init>
20003118:	4621      	mov	r1, r4
2000311a:	462b      	mov	r3, r5
2000311c:	4a20      	ldr	r2, [pc, #128]	@ (200031a0 <runtime_init_clocks+0xc4>)
2000311e:	4821      	ldr	r0, [pc, #132]	@ (200031a4 <runtime_init_clocks+0xc8>)
20003120:	9500      	str	r5, [sp, #0]
20003122:	f7ff fea5 	bl	20002e70 <pll_init>
20003126:	2200      	movs	r2, #0
20003128:	2004      	movs	r0, #4
2000312a:	4631      	mov	r1, r6
2000312c:	4b1e      	ldr	r3, [pc, #120]	@ (200031a8 <runtime_init_clocks+0xcc>)
2000312e:	f7ff fe31 	bl	20002d94 <clock_configure_undivided>
20003132:	4621      	mov	r1, r4
20003134:	4628      	mov	r0, r5
20003136:	2200      	movs	r2, #0
20003138:	4b1c      	ldr	r3, [pc, #112]	@ (200031ac <runtime_init_clocks+0xd0>)
2000313a:	f7ff fe2b 	bl	20002d94 <clock_configure_undivided>
2000313e:	2200      	movs	r2, #0
20003140:	2008      	movs	r0, #8
20003142:	4611      	mov	r1, r2
20003144:	4b1a      	ldr	r3, [pc, #104]	@ (200031b0 <runtime_init_clocks+0xd4>)
20003146:	f7ff fe25 	bl	20002d94 <clock_configure_undivided>
2000314a:	2200      	movs	r2, #0
2000314c:	2009      	movs	r0, #9
2000314e:	4611      	mov	r1, r2
20003150:	4b17      	ldr	r3, [pc, #92]	@ (200031b0 <runtime_init_clocks+0xd4>)
20003152:	f7ff fe1f 	bl	20002d94 <clock_configure_undivided>
20003156:	2200      	movs	r2, #0
20003158:	2006      	movs	r0, #6
2000315a:	4611      	mov	r1, r2
2000315c:	4b13      	ldr	r3, [pc, #76]	@ (200031ac <runtime_init_clocks+0xd0>)
2000315e:	f7ff fe19 	bl	20002d94 <clock_configure_undivided>
20003162:	2200      	movs	r2, #0
20003164:	4b11      	ldr	r3, [pc, #68]	@ (200031ac <runtime_init_clocks+0xd0>)
20003166:	2007      	movs	r0, #7
20003168:	4611      	mov	r1, r2
2000316a:	f7ff fe13 	bl	20002d94 <clock_configure_undivided>
2000316e:	2004      	movs	r0, #4
20003170:	f7ff fe78 	bl	20002e64 <clock_get_hz>
20003174:	2400      	movs	r4, #0
20003176:	4b0f      	ldr	r3, [pc, #60]	@ (200031b4 <runtime_init_clocks+0xd8>)
20003178:	fba3 3500 	umull	r3, r5, r3, r0
2000317c:	0cad      	lsrs	r5, r5, #18
2000317e:	b2e0      	uxtb	r0, r4
20003180:	4629      	mov	r1, r5
20003182:	3401      	adds	r4, #1
20003184:	f7ff feba 	bl	20002efc <tick_start>
20003188:	2c06      	cmp	r4, #6
2000318a:	d1f8      	bne.n	2000317e <runtime_init_clocks+0xa2>
2000318c:	b002      	add	sp, #8
2000318e:	bd70      	pop	{r4, r5, r6, pc}
20003190:	40010000 	.word	0x40010000
20003194:	40013000 	.word	0x40013000
20003198:	59682f00 	.word	0x59682f00
2000319c:	40050000 	.word	0x40050000
200031a0:	47868c00 	.word	0x47868c00
200031a4:	40058000 	.word	0x40058000
200031a8:	00b71b00 	.word	0x00b71b00
200031ac:	08f0d180 	.word	0x08f0d180
200031b0:	02dc6c00 	.word	0x02dc6c00
200031b4:	431bde83 	.word	0x431bde83

200031b8 <_out_char>:
200031b8:	b900      	cbnz	r0, 200031bc <_out_char+0x4>
200031ba:	4770      	bx	lr
200031bc:	f000 b91a 	b.w	200033f4 <__wrap_putchar>

200031c0 <weak_raw_vprintf>:
200031c0:	b510      	push	{r4, lr}
200031c2:	4b09      	ldr	r3, [pc, #36]	@ (200031e8 <weak_raw_vprintf+0x28>)
200031c4:	b084      	sub	sp, #16
200031c6:	681c      	ldr	r4, [r3, #0]
200031c8:	b14c      	cbz	r4, 200031de <weak_raw_vprintf+0x1e>
200031ca:	4603      	mov	r3, r0
200031cc:	9100      	str	r1, [sp, #0]
200031ce:	f04f 32ff 	mov.w	r2, #4294967295	@ 0xffffffff
200031d2:	a903      	add	r1, sp, #12
200031d4:	4805      	ldr	r0, [pc, #20]	@ (200031ec <weak_raw_vprintf+0x2c>)
200031d6:	47a0      	blx	r4
200031d8:	2001      	movs	r0, #1
200031da:	b004      	add	sp, #16
200031dc:	bd10      	pop	{r4, pc}
200031de:	f000 f94b 	bl	20003478 <__wrap_puts>
200031e2:	4620      	mov	r0, r4
200031e4:	b004      	add	sp, #16
200031e6:	bd10      	pop	{r4, pc}
200031e8:	2000f63c 	.word	0x2000f63c
200031ec:	200031b9 	.word	0x200031b9

200031f0 <_exit>:
200031f0:	be00      	bkpt	0x0000
200031f2:	e7fd      	b.n	200031f0 <_exit>

200031f4 <exit>:
200031f4:	b508      	push	{r3, lr}
200031f6:	f7ff fffb 	bl	200031f0 <_exit>
200031fa:	bf00      	nop

200031fc <runtime_init>:
200031fc:	b538      	push	{r3, r4, r5, lr}
200031fe:	4c06      	ldr	r4, [pc, #24]	@ (20003218 <runtime_init+0x1c>)
20003200:	4d06      	ldr	r5, [pc, #24]	@ (2000321c <runtime_init+0x20>)
20003202:	f7ff fecb 	bl	20002f9c <runtime_run_initializers>
20003206:	42ac      	cmp	r4, r5
20003208:	d204      	bcs.n	20003214 <runtime_init+0x18>
2000320a:	f854 3b04 	ldr.w	r3, [r4], #4
2000320e:	4798      	blx	r3
20003210:	42ac      	cmp	r4, r5
20003212:	d3fa      	bcc.n	2000320a <runtime_init+0xe>
20003214:	bd38      	pop	{r3, r4, r5, pc}
20003216:	bf00      	nop
20003218:	200097d4 	.word	0x200097d4
2000321c:	200097e4 	.word	0x200097e4

20003220 <stdio_out_chars_no_crlf>:
20003220:	6803      	ldr	r3, [r0, #0]
20003222:	4608      	mov	r0, r1
20003224:	4611      	mov	r1, r2
20003226:	4718      	bx	r3

20003228 <stdio_out_chars_crlf>:
20003228:	7d43      	ldrb	r3, [r0, #21]
2000322a:	e92d 47f0 	stmdb	sp!, {r4, r5, r6, r7, r8, r9, sl, lr}
2000322e:	4681      	mov	r9, r0
20003230:	460f      	mov	r7, r1
20003232:	4616      	mov	r6, r2
20003234:	2b00      	cmp	r3, #0
20003236:	d043      	beq.n	200032c0 <stdio_out_chars_crlf+0x98>
20003238:	2a00      	cmp	r2, #0
2000323a:	dd3b      	ble.n	200032b4 <stdio_out_chars_crlf+0x8c>
2000323c:	7d03      	ldrb	r3, [r0, #20]
2000323e:	2000      	movs	r0, #0
20003240:	1e4d      	subs	r5, r1, #1
20003242:	4601      	mov	r1, r0
20003244:	f815 2f01 	ldrb.w	r2, [r5, #1]!
20003248:	f8df 8084 	ldr.w	r8, [pc, #132]	@ 200032d0 <stdio_out_chars_crlf+0xa8>
2000324c:	2a0a      	cmp	r2, #10
2000324e:	f101 0401 	add.w	r4, r1, #1
20003252:	d00e      	beq.n	20003272 <stdio_out_chars_crlf+0x4a>
20003254:	42a6      	cmp	r6, r4
20003256:	d01c      	beq.n	20003292 <stdio_out_chars_crlf+0x6a>
20003258:	782b      	ldrb	r3, [r5, #0]
2000325a:	4621      	mov	r1, r4
2000325c:	f1a3 030d 	sub.w	r3, r3, #13
20003260:	fab3 f383 	clz	r3, r3
20003264:	f815 2f01 	ldrb.w	r2, [r5, #1]!
20003268:	095b      	lsrs	r3, r3, #5
2000326a:	2a0a      	cmp	r2, #10
2000326c:	f101 0401 	add.w	r4, r1, #1
20003270:	d1f0      	bne.n	20003254 <stdio_out_chars_crlf+0x2c>
20003272:	2b00      	cmp	r3, #0
20003274:	d1ee      	bne.n	20003254 <stdio_out_chars_crlf+0x2c>
20003276:	4281      	cmp	r1, r0
20003278:	eba1 0100 	sub.w	r1, r1, r0
2000327c:	4438      	add	r0, r7
2000327e:	dc1b      	bgt.n	200032b8 <stdio_out_chars_crlf+0x90>
20003280:	2102      	movs	r1, #2
20003282:	4640      	mov	r0, r8
20003284:	f8d9 3000 	ldr.w	r3, [r9]
20003288:	4798      	blx	r3
2000328a:	42a6      	cmp	r6, r4
2000328c:	d008      	beq.n	200032a0 <stdio_out_chars_crlf+0x78>
2000328e:	4620      	mov	r0, r4
20003290:	e7e2      	b.n	20003258 <stdio_out_chars_crlf+0x30>
20003292:	4286      	cmp	r6, r0
20003294:	dd04      	ble.n	200032a0 <stdio_out_chars_crlf+0x78>
20003296:	1a31      	subs	r1, r6, r0
20003298:	f8d9 3000 	ldr.w	r3, [r9]
2000329c:	4438      	add	r0, r7
2000329e:	4798      	blx	r3
200032a0:	4437      	add	r7, r6
200032a2:	f817 3c01 	ldrb.w	r3, [r7, #-1]
200032a6:	f1a3 030d 	sub.w	r3, r3, #13
200032aa:	fab3 f383 	clz	r3, r3
200032ae:	095b      	lsrs	r3, r3, #5
200032b0:	f889 3014 	strb.w	r3, [r9, #20]
200032b4:	e8bd 87f0 	ldmia.w	sp!, {r4, r5, r6, r7, r8, r9, sl, pc}
200032b8:	f8d9 3000 	ldr.w	r3, [r9]
200032bc:	4798      	blx	r3
200032be:	e7df      	b.n	20003280 <stdio_out_chars_crlf+0x58>
200032c0:	4638      	mov	r0, r7
200032c2:	f8d9 3000 	ldr.w	r3, [r9]
200032c6:	4611      	mov	r1, r2
200032c8:	e8bd 47f0 	ldmia.w	sp!, {r4, r5, r6, r7, r8, r9, sl, lr}
200032cc:	4718      	bx	r3
200032ce:	bf00      	nop
200032d0:	200095c8 	.word	0x200095c8

200032d4 <stdio_put_string>:
200032d4:	e92d 47f0 	stmdb	sp!, {r4, r5, r6, r7, r8, r9, sl, lr}
200032d8:	b082      	sub	sp, #8
200032da:	460d      	mov	r5, r1
200032dc:	4692      	mov	sl, r2
200032de:	4699      	mov	r9, r3
200032e0:	4607      	mov	r7, r0
200032e2:	f7ff f80b 	bl	200022fc <time_us_64>
200032e6:	f04f 36ff 	mov.w	r6, #4294967295	@ 0xffffffff
200032ea:	f06f 4400 	mvn.w	r4, #2147483648	@ 0x80000000
200032ee:	4a2f      	ldr	r2, [pc, #188]	@ (200033ac <stdio_put_string+0xd8>)
200032f0:	1882      	adds	r2, r0, r2
200032f2:	f141 0300 	adc.w	r3, r1, #0
200032f6:	4296      	cmp	r6, r2
200032f8:	eb74 0103 	sbcs.w	r1, r4, r3
200032fc:	bf3c      	itt	cc
200032fe:	4632      	movcc	r2, r6
20003300:	4623      	movcc	r3, r4
20003302:	482b      	ldr	r0, [pc, #172]	@ (200033b0 <stdio_put_string+0xdc>)
20003304:	f005 f8dc 	bl	200084c0 <__EH_FRAME_BEGIN__>
20003308:	1c6b      	adds	r3, r5, #1
2000330a:	4680      	mov	r8, r0
2000330c:	d103      	bne.n	20003316 <stdio_put_string+0x42>
2000330e:	4638      	mov	r0, r7
20003310:	f005 f856 	bl	200083c0 <strlen>
20003314:	4605      	mov	r5, r0
20003316:	4b27      	ldr	r3, [pc, #156]	@ (200033b4 <stdio_put_string+0xe0>)
20003318:	4e27      	ldr	r6, [pc, #156]	@ (200033b8 <stdio_put_string+0xe4>)
2000331a:	681c      	ldr	r4, [r3, #0]
2000331c:	4b27      	ldr	r3, [pc, #156]	@ (200033bc <stdio_put_string+0xe8>)
2000331e:	f1b9 0f00 	cmp.w	r9, #0
20003322:	bf18      	it	ne
20003324:	461e      	movne	r6, r3
20003326:	b1b4      	cbz	r4, 20003356 <stdio_put_string+0x82>
20003328:	f1ba 0f00 	cmp.w	sl, #0
2000332c:	d11a      	bne.n	20003364 <stdio_put_string+0x90>
2000332e:	f8df 9090 	ldr.w	r9, [pc, #144]	@ 200033c0 <stdio_put_string+0xec>
20003332:	e001      	b.n	20003338 <stdio_put_string+0x64>
20003334:	6924      	ldr	r4, [r4, #16]
20003336:	b174      	cbz	r4, 20003356 <stdio_put_string+0x82>
20003338:	6823      	ldr	r3, [r4, #0]
2000333a:	2b00      	cmp	r3, #0
2000333c:	d0fa      	beq.n	20003334 <stdio_put_string+0x60>
2000333e:	f8d9 3000 	ldr.w	r3, [r9]
20003342:	b10b      	cbz	r3, 20003348 <stdio_put_string+0x74>
20003344:	429c      	cmp	r4, r3
20003346:	d1f5      	bne.n	20003334 <stdio_put_string+0x60>
20003348:	4620      	mov	r0, r4
2000334a:	462a      	mov	r2, r5
2000334c:	4639      	mov	r1, r7
2000334e:	47b0      	blx	r6
20003350:	6924      	ldr	r4, [r4, #16]
20003352:	2c00      	cmp	r4, #0
20003354:	d1f0      	bne.n	20003338 <stdio_put_string+0x64>
20003356:	f1b8 0f00 	cmp.w	r8, #0
2000335a:	d11f      	bne.n	2000339c <stdio_put_string+0xc8>
2000335c:	4628      	mov	r0, r5
2000335e:	b002      	add	sp, #8
20003360:	e8bd 87f0 	ldmia.w	sp!, {r4, r5, r6, r7, r8, r9, sl, pc}
20003364:	f04f 0a0a 	mov.w	sl, #10
20003368:	f8df 9054 	ldr.w	r9, [pc, #84]	@ 200033c0 <stdio_put_string+0xec>
2000336c:	e002      	b.n	20003374 <stdio_put_string+0xa0>
2000336e:	6924      	ldr	r4, [r4, #16]
20003370:	2c00      	cmp	r4, #0
20003372:	d0f0      	beq.n	20003356 <stdio_put_string+0x82>
20003374:	6823      	ldr	r3, [r4, #0]
20003376:	2b00      	cmp	r3, #0
20003378:	d0f9      	beq.n	2000336e <stdio_put_string+0x9a>
2000337a:	f8d9 3000 	ldr.w	r3, [r9]
2000337e:	b10b      	cbz	r3, 20003384 <stdio_put_string+0xb0>
20003380:	42a3      	cmp	r3, r4
20003382:	d1f4      	bne.n	2000336e <stdio_put_string+0x9a>
20003384:	462a      	mov	r2, r5
20003386:	4639      	mov	r1, r7
20003388:	4620      	mov	r0, r4
2000338a:	47b0      	blx	r6
2000338c:	2201      	movs	r2, #1
2000338e:	4620      	mov	r0, r4
20003390:	f10d 0107 	add.w	r1, sp, #7
20003394:	f88d a007 	strb.w	sl, [sp, #7]
20003398:	47b0      	blx	r6
2000339a:	e7e8      	b.n	2000336e <stdio_put_string+0x9a>
2000339c:	4804      	ldr	r0, [pc, #16]	@ (200033b0 <stdio_put_string+0xdc>)
2000339e:	f005 f921 	bl	200085e4 <mutex_exit>
200033a2:	4628      	mov	r0, r5
200033a4:	b002      	add	sp, #8
200033a6:	e8bd 87f0 	ldmia.w	sp!, {r4, r5, r6, r7, r8, r9, sl, pc}
200033aa:	bf00      	nop
200033ac:	000f4240 	.word	0x000f4240
200033b0:	2000978c 	.word	0x2000978c
200033b4:	2000f22c 	.word	0x2000f22c
200033b8:	20003221 	.word	0x20003221
200033bc:	20003229 	.word	0x20003229
200033c0:	2000f234 	.word	0x2000f234

200033c4 <stdio_set_driver_enabled>:
200033c4:	4a0a      	ldr	r2, [pc, #40]	@ (200033f0 <stdio_set_driver_enabled+0x2c>)
200033c6:	6813      	ldr	r3, [r2, #0]
200033c8:	b14b      	cbz	r3, 200033de <stdio_set_driver_enabled+0x1a>
200033ca:	4283      	cmp	r3, r0
200033cc:	d102      	bne.n	200033d4 <stdio_set_driver_enabled+0x10>
200033ce:	e009      	b.n	200033e4 <stdio_set_driver_enabled+0x20>
200033d0:	4298      	cmp	r0, r3
200033d2:	d007      	beq.n	200033e4 <stdio_set_driver_enabled+0x20>
200033d4:	f103 0210 	add.w	r2, r3, #16
200033d8:	691b      	ldr	r3, [r3, #16]
200033da:	2b00      	cmp	r3, #0
200033dc:	d1f8      	bne.n	200033d0 <stdio_set_driver_enabled+0xc>
200033de:	b101      	cbz	r1, 200033e2 <stdio_set_driver_enabled+0x1e>
200033e0:	6010      	str	r0, [r2, #0]
200033e2:	4770      	bx	lr
200033e4:	2900      	cmp	r1, #0
200033e6:	d1fc      	bne.n	200033e2 <stdio_set_driver_enabled+0x1e>
200033e8:	6903      	ldr	r3, [r0, #16]
200033ea:	6013      	str	r3, [r2, #0]
200033ec:	6101      	str	r1, [r0, #16]
200033ee:	4770      	bx	lr
200033f0:	2000f22c 	.word	0x2000f22c

200033f4 <__wrap_putchar>:
200033f4:	b5f0      	push	{r4, r5, r6, r7, lr}
200033f6:	b083      	sub	sp, #12
200033f8:	4606      	mov	r6, r0
200033fa:	f88d 0007 	strb.w	r0, [sp, #7]
200033fe:	f7fe ff7d 	bl	200022fc <time_us_64>
20003402:	f04f 35ff 	mov.w	r5, #4294967295	@ 0xffffffff
20003406:	f06f 4400 	mvn.w	r4, #2147483648	@ 0x80000000
2000340a:	4a17      	ldr	r2, [pc, #92]	@ (20003468 <__wrap_putchar+0x74>)
2000340c:	1882      	adds	r2, r0, r2
2000340e:	f141 0300 	adc.w	r3, r1, #0
20003412:	4295      	cmp	r5, r2
20003414:	eb74 0103 	sbcs.w	r1, r4, r3
20003418:	bf3c      	itt	cc
2000341a:	4623      	movcc	r3, r4
2000341c:	462a      	movcc	r2, r5
2000341e:	4813      	ldr	r0, [pc, #76]	@ (2000346c <__wrap_putchar+0x78>)
20003420:	f005 f84e 	bl	200084c0 <__EH_FRAME_BEGIN__>
20003424:	4b12      	ldr	r3, [pc, #72]	@ (20003470 <__wrap_putchar+0x7c>)
20003426:	4607      	mov	r7, r0
20003428:	681c      	ldr	r4, [r3, #0]
2000342a:	b19c      	cbz	r4, 20003454 <__wrap_putchar+0x60>
2000342c:	4d11      	ldr	r5, [pc, #68]	@ (20003474 <__wrap_putchar+0x80>)
2000342e:	e001      	b.n	20003434 <__wrap_putchar+0x40>
20003430:	6924      	ldr	r4, [r4, #16]
20003432:	b17c      	cbz	r4, 20003454 <__wrap_putchar+0x60>
20003434:	6823      	ldr	r3, [r4, #0]
20003436:	2b00      	cmp	r3, #0
20003438:	d0fa      	beq.n	20003430 <__wrap_putchar+0x3c>
2000343a:	682b      	ldr	r3, [r5, #0]
2000343c:	b10b      	cbz	r3, 20003442 <__wrap_putchar+0x4e>
2000343e:	429c      	cmp	r4, r3
20003440:	d1f6      	bne.n	20003430 <__wrap_putchar+0x3c>
20003442:	4620      	mov	r0, r4
20003444:	2201      	movs	r2, #1
20003446:	f10d 0107 	add.w	r1, sp, #7
2000344a:	f7ff feed 	bl	20003228 <stdio_out_chars_crlf>
2000344e:	6924      	ldr	r4, [r4, #16]
20003450:	2c00      	cmp	r4, #0
20003452:	d1ef      	bne.n	20003434 <__wrap_putchar+0x40>
20003454:	b917      	cbnz	r7, 2000345c <__wrap_putchar+0x68>
20003456:	4630      	mov	r0, r6
20003458:	b003      	add	sp, #12
2000345a:	bdf0      	pop	{r4, r5, r6, r7, pc}
2000345c:	4803      	ldr	r0, [pc, #12]	@ (2000346c <__wrap_putchar+0x78>)
2000345e:	f005 f8c1 	bl	200085e4 <mutex_exit>
20003462:	4630      	mov	r0, r6
20003464:	b003      	add	sp, #12
20003466:	bdf0      	pop	{r4, r5, r6, r7, pc}
20003468:	000f4240 	.word	0x000f4240
2000346c:	2000978c 	.word	0x2000978c
20003470:	2000f22c 	.word	0x2000f22c
20003474:	2000f234 	.word	0x2000f234

20003478 <__wrap_puts>:
20003478:	b538      	push	{r3, r4, r5, lr}
2000347a:	4604      	mov	r4, r0
2000347c:	f004 ffa0 	bl	200083c0 <strlen>
20003480:	2301      	movs	r3, #1
20003482:	4605      	mov	r5, r0
20003484:	461a      	mov	r2, r3
20003486:	4620      	mov	r0, r4
20003488:	4629      	mov	r1, r5
2000348a:	f7ff ff23 	bl	200032d4 <stdio_put_string>
2000348e:	4b08      	ldr	r3, [pc, #32]	@ (200034b0 <__wrap_puts+0x38>)
20003490:	681c      	ldr	r4, [r3, #0]
20003492:	b12c      	cbz	r4, 200034a0 <__wrap_puts+0x28>
20003494:	6863      	ldr	r3, [r4, #4]
20003496:	b12b      	cbz	r3, 200034a4 <__wrap_puts+0x2c>
20003498:	4798      	blx	r3
2000349a:	6924      	ldr	r4, [r4, #16]
2000349c:	2c00      	cmp	r4, #0
2000349e:	d1f9      	bne.n	20003494 <__wrap_puts+0x1c>
200034a0:	4628      	mov	r0, r5
200034a2:	bd38      	pop	{r3, r4, r5, pc}
200034a4:	6924      	ldr	r4, [r4, #16]
200034a6:	2c00      	cmp	r4, #0
200034a8:	d1f4      	bne.n	20003494 <__wrap_puts+0x1c>
200034aa:	4628      	mov	r0, r5
200034ac:	bd38      	pop	{r3, r4, r5, pc}
200034ae:	bf00      	nop
200034b0:	2000f22c 	.word	0x2000f22c

200034b4 <stdio_uart_out_chars>:
200034b4:	f1b1 0c00 	subs.w	ip, r1, #0
200034b8:	dd1d      	ble.n	200034f6 <stdio_uart_out_chars+0x42>
200034ba:	4a0f      	ldr	r2, [pc, #60]	@ (200034f8 <stdio_uart_out_chars+0x44>)
200034bc:	4b0f      	ldr	r3, [pc, #60]	@ (200034fc <stdio_uart_out_chars+0x48>)
200034be:	6812      	ldr	r2, [r2, #0]
200034c0:	b530      	push	{r4, r5, lr}
200034c2:	1ad3      	subs	r3, r2, r3
200034c4:	fab3 f383 	clz	r3, r3
200034c8:	240d      	movs	r4, #13
200034ca:	4d0d      	ldr	r5, [pc, #52]	@ (20003500 <stdio_uart_out_chars+0x4c>)
200034cc:	095b      	lsrs	r3, r3, #5
200034ce:	1e41      	subs	r1, r0, #1
200034d0:	f935 e013 	ldrsh.w	lr, [r5, r3, lsl #1]
200034d4:	448c      	add	ip, r1
200034d6:	f811 0f01 	ldrb.w	r0, [r1, #1]!
200034da:	4586      	cmp	lr, r0
200034dc:	d006      	beq.n	200034ec <stdio_uart_out_chars+0x38>
200034de:	6993      	ldr	r3, [r2, #24]
200034e0:	069b      	lsls	r3, r3, #26
200034e2:	d4fc      	bmi.n	200034de <stdio_uart_out_chars+0x2a>
200034e4:	4561      	cmp	r1, ip
200034e6:	6010      	str	r0, [r2, #0]
200034e8:	d1f5      	bne.n	200034d6 <stdio_uart_out_chars+0x22>
200034ea:	bd30      	pop	{r4, r5, pc}
200034ec:	6993      	ldr	r3, [r2, #24]
200034ee:	069d      	lsls	r5, r3, #26
200034f0:	d4fc      	bmi.n	200034ec <stdio_uart_out_chars+0x38>
200034f2:	6014      	str	r4, [r2, #0]
200034f4:	e7f3      	b.n	200034de <stdio_uart_out_chars+0x2a>
200034f6:	4770      	bx	lr
200034f8:	2000f968 	.word	0x2000f968
200034fc:	40078000 	.word	0x40078000
20003500:	2000f960 	.word	0x2000f960

20003504 <stdio_uart_in_chars>:
20003504:	4b22      	ldr	r3, [pc, #136]	@ (20003590 <stdio_uart_in_chars+0x8c>)
20003506:	f1b1 0c00 	subs.w	ip, r1, #0
2000350a:	b410      	push	{r4}
2000350c:	681c      	ldr	r4, [r3, #0]
2000350e:	dd2e      	ble.n	2000356e <stdio_uart_in_chars+0x6a>
20003510:	4603      	mov	r3, r0
20003512:	2000      	movs	r0, #0
20003514:	4a1f      	ldr	r2, [pc, #124]	@ (20003594 <stdio_uart_in_chars+0x90>)
20003516:	1e59      	subs	r1, r3, #1
20003518:	6812      	ldr	r2, [r2, #0]
2000351a:	6993      	ldr	r3, [r2, #24]
2000351c:	06db      	lsls	r3, r3, #27
2000351e:	d417      	bmi.n	20003550 <stdio_uart_in_chars+0x4c>
20003520:	3001      	adds	r0, #1
20003522:	6993      	ldr	r3, [r2, #24]
20003524:	06db      	lsls	r3, r3, #27
20003526:	d4fc      	bmi.n	20003522 <stdio_uart_in_chars+0x1e>
20003528:	6813      	ldr	r3, [r2, #0]
2000352a:	4584      	cmp	ip, r0
2000352c:	f801 3f01 	strb.w	r3, [r1, #1]!
20003530:	d1f3      	bne.n	2000351a <stdio_uart_in_chars+0x16>
20003532:	b14c      	cbz	r4, 20003548 <stdio_uart_in_chars+0x44>
20003534:	2150      	movs	r1, #80	@ 0x50
20003536:	4613      	mov	r3, r2
20003538:	6391      	str	r1, [r2, #56]	@ 0x38
2000353a:	f853 2f34 	ldr.w	r2, [r3, #52]!
2000353e:	f002 0238 	and.w	r2, r2, #56	@ 0x38
20003542:	f503 5380 	add.w	r3, r3, #4096	@ 0x1000
20003546:	601a      	str	r2, [r3, #0]
20003548:	4660      	mov	r0, ip
2000354a:	f85d 4b04 	ldr.w	r4, [sp], #4
2000354e:	4770      	bx	lr
20003550:	b14c      	cbz	r4, 20003566 <stdio_uart_in_chars+0x62>
20003552:	2150      	movs	r1, #80	@ 0x50
20003554:	4613      	mov	r3, r2
20003556:	6391      	str	r1, [r2, #56]	@ 0x38
20003558:	f853 2f34 	ldr.w	r2, [r3, #52]!
2000355c:	f002 0238 	and.w	r2, r2, #56	@ 0x38
20003560:	f503 5380 	add.w	r3, r3, #4096	@ 0x1000
20003564:	601a      	str	r2, [r3, #0]
20003566:	b178      	cbz	r0, 20003588 <stdio_uart_in_chars+0x84>
20003568:	f85d 4b04 	ldr.w	r4, [sp], #4
2000356c:	4770      	bx	lr
2000356e:	b15c      	cbz	r4, 20003588 <stdio_uart_in_chars+0x84>
20003570:	4b08      	ldr	r3, [pc, #32]	@ (20003594 <stdio_uart_in_chars+0x90>)
20003572:	2150      	movs	r1, #80	@ 0x50
20003574:	681a      	ldr	r2, [r3, #0]
20003576:	4613      	mov	r3, r2
20003578:	6391      	str	r1, [r2, #56]	@ 0x38
2000357a:	f853 2f34 	ldr.w	r2, [r3, #52]!
2000357e:	f002 0238 	and.w	r2, r2, #56	@ 0x38
20003582:	f503 5380 	add.w	r3, r3, #4096	@ 0x1000
20003586:	601a      	str	r2, [r3, #0]
20003588:	f06f 0002 	mvn.w	r0, #2
2000358c:	e7ec      	b.n	20003568 <stdio_uart_in_chars+0x64>
2000358e:	bf00      	nop
20003590:	2000f1ec 	.word	0x2000f1ec
20003594:	2000f968 	.word	0x2000f968

20003598 <on_uart_rx>:
20003598:	4b05      	ldr	r3, [pc, #20]	@ (200035b0 <on_uart_rx+0x18>)
2000359a:	681b      	ldr	r3, [r3, #0]
2000359c:	b133      	cbz	r3, 200035ac <on_uart_rx+0x14>
2000359e:	2100      	movs	r1, #0
200035a0:	4a04      	ldr	r2, [pc, #16]	@ (200035b4 <on_uart_rx+0x1c>)
200035a2:	4805      	ldr	r0, [pc, #20]	@ (200035b8 <on_uart_rx+0x20>)
200035a4:	6812      	ldr	r2, [r2, #0]
200035a6:	6800      	ldr	r0, [r0, #0]
200035a8:	6391      	str	r1, [r2, #56]	@ 0x38
200035aa:	4718      	bx	r3
200035ac:	4770      	bx	lr
200035ae:	bf00      	nop
200035b0:	2000f1ec 	.word	0x2000f1ec
200035b4:	2000f968 	.word	0x2000f968
200035b8:	2000f1f0 	.word	0x2000f1f0

200035bc <stdio_uart_out_flush>:
200035bc:	4b02      	ldr	r3, [pc, #8]	@ (200035c8 <stdio_uart_out_flush+0xc>)
200035be:	681a      	ldr	r2, [r3, #0]
200035c0:	6993      	ldr	r3, [r2, #24]
200035c2:	071b      	lsls	r3, r3, #28
200035c4:	d4fc      	bmi.n	200035c0 <stdio_uart_out_flush+0x4>
200035c6:	4770      	bx	lr
200035c8:	2000f968 	.word	0x2000f968

200035cc <stdio_uart_set_chars_available_callback>:
200035cc:	b5f8      	push	{r3, r4, r5, r6, r7, lr}
200035ce:	4f1c      	ldr	r7, [pc, #112]	@ (20003640 <stdio_uart_set_chars_available_callback+0x74>)
200035d0:	4d1c      	ldr	r5, [pc, #112]	@ (20003644 <stdio_uart_set_chars_available_callback+0x78>)
200035d2:	683a      	ldr	r2, [r7, #0]
200035d4:	4e1c      	ldr	r6, [pc, #112]	@ (20003648 <stdio_uart_set_chars_available_callback+0x7c>)
200035d6:	42aa      	cmp	r2, r5
200035d8:	bf14      	ite	ne
200035da:	2521      	movne	r5, #33	@ 0x21
200035dc:	2522      	moveq	r5, #34	@ 0x22
200035de:	4604      	mov	r4, r0
200035e0:	f8d6 c000 	ldr.w	ip, [r6]
200035e4:	b118      	cbz	r0, 200035ee <stdio_uart_set_chars_available_callback+0x22>
200035e6:	f1bc 0f00 	cmp.w	ip, #0
200035ea:	d010      	beq.n	2000360e <stdio_uart_set_chars_available_callback+0x42>
200035ec:	bdf8      	pop	{r3, r4, r5, r6, r7, pc}
200035ee:	f1bc 0f00 	cmp.w	ip, #0
200035f2:	d0fb      	beq.n	200035ec <stdio_uart_set_chars_available_callback+0x20>
200035f4:	4601      	mov	r1, r0
200035f6:	6390      	str	r0, [r2, #56]	@ 0x38
200035f8:	4628      	mov	r0, r5
200035fa:	f7fe ffb9 	bl	20002570 <irq_set_enabled>
200035fe:	4628      	mov	r0, r5
20003600:	4912      	ldr	r1, [pc, #72]	@ (2000364c <stdio_uart_set_chars_available_callback+0x80>)
20003602:	f7ff f8ef 	bl	200027e4 <irq_remove_handler>
20003606:	4b12      	ldr	r3, [pc, #72]	@ (20003650 <stdio_uart_set_chars_available_callback+0x84>)
20003608:	6034      	str	r4, [r6, #0]
2000360a:	601c      	str	r4, [r3, #0]
2000360c:	bdf8      	pop	{r3, r4, r5, r6, r7, pc}
2000360e:	460b      	mov	r3, r1
20003610:	4a0f      	ldr	r2, [pc, #60]	@ (20003650 <stdio_uart_set_chars_available_callback+0x84>)
20003612:	490e      	ldr	r1, [pc, #56]	@ (2000364c <stdio_uart_set_chars_available_callback+0x80>)
20003614:	6030      	str	r0, [r6, #0]
20003616:	4628      	mov	r0, r5
20003618:	6013      	str	r3, [r2, #0]
2000361a:	f7fe ffbf 	bl	2000259c <irq_set_exclusive_handler>
2000361e:	2101      	movs	r1, #1
20003620:	4628      	mov	r0, r5
20003622:	f7fe ffa5 	bl	20002570 <irq_set_enabled>
20003626:	683a      	ldr	r2, [r7, #0]
20003628:	2150      	movs	r1, #80	@ 0x50
2000362a:	4613      	mov	r3, r2
2000362c:	6391      	str	r1, [r2, #56]	@ 0x38
2000362e:	f853 2f34 	ldr.w	r2, [r3, #52]!
20003632:	f002 0238 	and.w	r2, r2, #56	@ 0x38
20003636:	f503 5380 	add.w	r3, r3, #4096	@ 0x1000
2000363a:	601a      	str	r2, [r3, #0]
2000363c:	bdf8      	pop	{r3, r4, r5, r6, r7, pc}
2000363e:	bf00      	nop
20003640:	2000f968 	.word	0x2000f968
20003644:	40078000 	.word	0x40078000
20003648:	2000f1ec 	.word	0x2000f1ec
2000364c:	20003599 	.word	0x20003599
20003650:	2000f1f0 	.word	0x2000f1f0

20003654 <stdio_uart_init>:
20003654:	b510      	push	{r4, lr}
20003656:	490e      	ldr	r1, [pc, #56]	@ (20003690 <stdio_uart_init+0x3c>)
20003658:	4c0e      	ldr	r4, [pc, #56]	@ (20003694 <stdio_uart_init+0x40>)
2000365a:	480f      	ldr	r0, [pc, #60]	@ (20003698 <stdio_uart_init+0x44>)
2000365c:	4a0f      	ldr	r2, [pc, #60]	@ (2000369c <stdio_uart_init+0x48>)
2000365e:	4b10      	ldr	r3, [pc, #64]	@ (200036a0 <stdio_uart_init+0x4c>)
20003660:	7800      	ldrb	r0, [r0, #0]
20003662:	6021      	str	r1, [r4, #0]
20003664:	2000      	movs	r0, #0
20003666:	2102      	movs	r1, #2
20003668:	7812      	ldrb	r2, [r2, #0]
2000366a:	781b      	ldrb	r3, [r3, #0]
2000366c:	f7ff fa2a 	bl	20002ac4 <gpio_set_function>
20003670:	2102      	movs	r1, #2
20003672:	2001      	movs	r0, #1
20003674:	f7ff fa26 	bl	20002ac4 <gpio_set_function>
20003678:	f44f 31e1 	mov.w	r1, #115200	@ 0x1c200
2000367c:	6820      	ldr	r0, [r4, #0]
2000367e:	f7ff fa97 	bl	20002bb0 <uart_init>
20003682:	e8bd 4010 	ldmia.w	sp!, {r4, lr}
20003686:	2101      	movs	r1, #1
20003688:	4806      	ldr	r0, [pc, #24]	@ (200036a4 <stdio_uart_init+0x50>)
2000368a:	f7ff be9b 	b.w	200033c4 <stdio_set_driver_enabled>
2000368e:	bf00      	nop
20003690:	40070000 	.word	0x40070000
20003694:	2000f968 	.word	0x2000f968
20003698:	1000023c 	.word	0x1000023c
2000369c:	10000238 	.word	0x10000238
200036a0:	10000234 	.word	0x10000234
200036a4:	20009748 	.word	0x20009748

200036a8 <stdio_uart_init_full>:
200036a8:	b570      	push	{r4, r5, r6, lr}
200036aa:	4e10      	ldr	r6, [pc, #64]	@ (200036ec <stdio_uart_init_full+0x44>)
200036ac:	460d      	mov	r5, r1
200036ae:	6030      	str	r0, [r6, #0]
200036b0:	1e10      	subs	r0, r2, #0
200036b2:	461c      	mov	r4, r3
200036b4:	db06      	blt.n	200036c4 <stdio_uart_init_full+0x1c>
200036b6:	f010 0f02 	tst.w	r0, #2
200036ba:	bf0c      	ite	eq
200036bc:	2102      	moveq	r1, #2
200036be:	210b      	movne	r1, #11
200036c0:	f7ff fa00 	bl	20002ac4 <gpio_set_function>
200036c4:	2c00      	cmp	r4, #0
200036c6:	db07      	blt.n	200036d8 <stdio_uart_init_full+0x30>
200036c8:	f014 0f02 	tst.w	r4, #2
200036cc:	bf0c      	ite	eq
200036ce:	2102      	moveq	r1, #2
200036d0:	210b      	movne	r1, #11
200036d2:	4620      	mov	r0, r4
200036d4:	f7ff f9f6 	bl	20002ac4 <gpio_set_function>
200036d8:	4629      	mov	r1, r5
200036da:	6830      	ldr	r0, [r6, #0]
200036dc:	f7ff fa68 	bl	20002bb0 <uart_init>
200036e0:	e8bd 4070 	ldmia.w	sp!, {r4, r5, r6, lr}
200036e4:	2101      	movs	r1, #1
200036e6:	4802      	ldr	r0, [pc, #8]	@ (200036f0 <stdio_uart_init_full+0x48>)
200036e8:	f7ff be6c 	b.w	200033c4 <stdio_set_driver_enabled>
200036ec:	2000f968 	.word	0x2000f968
200036f0:	20009748 	.word	0x20009748

200036f4 <_retrieve_unique_id_on_boot>:
200036f4:	b500      	push	{lr}
200036f6:	f245 3047 	movw	r0, #21319	@ 0x5347
200036fa:	b08b      	sub	sp, #44	@ 0x2c
200036fc:	f7ff fc0a 	bl	20002f14 <rom_func_lookup>
20003700:	2201      	movs	r2, #1
20003702:	4603      	mov	r3, r0
20003704:	2109      	movs	r1, #9
20003706:	a801      	add	r0, sp, #4
20003708:	4798      	blx	r3
2000370a:	e9dd 3203 	ldrd	r3, r2, [sp, #12]
2000370e:	4904      	ldr	r1, [pc, #16]	@ (20003720 <_retrieve_unique_id_on_boot+0x2c>)
20003710:	ba12      	rev	r2, r2
20003712:	ba1b      	rev	r3, r3
20003714:	e9c1 2300 	strd	r2, r3, [r1]
20003718:	b00b      	add	sp, #44	@ 0x2c
2000371a:	f85d fb04 	ldr.w	pc, [sp], #4
2000371e:	bf00      	nop
20003720:	2000f908 	.word	0x2000f908

20003724 <pico_get_unique_board_id>:
20003724:	4603      	mov	r3, r0
20003726:	4a02      	ldr	r2, [pc, #8]	@ (20003730 <pico_get_unique_board_id+0xc>)
20003728:	ca03      	ldmia	r2!, {r0, r1}
2000372a:	6018      	str	r0, [r3, #0]
2000372c:	6059      	str	r1, [r3, #4]
2000372e:	4770      	bx	lr
20003730:	2000f908 	.word	0x2000f908

20003734 <dcd_init>:
20003734:	b570      	push	{r4, r5, r6, lr}
20003736:	f000 f933 	bl	200039a0 <rp2040_usb_init>
2000373a:	230c      	movs	r3, #12
2000373c:	2640      	movs	r6, #64	@ 0x40
2000373e:	4c1b      	ldr	r4, [pc, #108]	@ (200037ac <dcd_init+0x78>)
20003740:	22ff      	movs	r2, #255	@ 0xff
20003742:	67a3      	str	r3, [r4, #120]	@ 0x78
20003744:	200e      	movs	r0, #14
20003746:	491a      	ldr	r1, [pc, #104]	@ (200037b0 <dcd_init+0x7c>)
20003748:	f7fe ff58 	bl	200025fc <irq_add_shared_handler>
2000374c:	4b19      	ldr	r3, [pc, #100]	@ (200037b4 <dcd_init+0x80>)
2000374e:	4632      	mov	r2, r6
20003750:	2100      	movs	r1, #0
20003752:	4618      	mov	r0, r3
20003754:	f004 fd66 	bl	20008224 <memset>
20003758:	4603      	mov	r3, r0
2000375a:	2100      	movs	r1, #0
2000375c:	2501      	movs	r5, #1
2000375e:	2080      	movs	r0, #128	@ 0x80
20003760:	4a15      	ldr	r2, [pc, #84]	@ (200037b8 <dcd_init+0x84>)
20003762:	8458      	strh	r0, [r3, #34]	@ 0x22
20003764:	609a      	str	r2, [r3, #8]
20003766:	3a84      	subs	r2, #132	@ 0x84
20003768:	705d      	strb	r5, [r3, #1]
2000376a:	831e      	strh	r6, [r3, #24]
2000376c:	871e      	strh	r6, [r3, #56]	@ 0x38
2000376e:	6059      	str	r1, [r3, #4]
20003770:	f8c2 1084 	str.w	r1, [r2, #132]	@ 0x84
20003774:	f8c2 1080 	str.w	r1, [r2, #128]	@ 0x80
20003778:	f502 7280 	add.w	r2, r2, #256	@ 0x100
2000377c:	60da      	str	r2, [r3, #12]
2000377e:	62da      	str	r2, [r3, #44]	@ 0x2c
20003780:	3a80      	subs	r2, #128	@ 0x80
20003782:	f883 1021 	strb.w	r1, [r3, #33]	@ 0x21
20003786:	f883 103b 	strb.w	r1, [r3, #59]	@ 0x3b
2000378a:	6259      	str	r1, [r3, #36]	@ 0x24
2000378c:	629a      	str	r2, [r3, #40]	@ 0x28
2000378e:	f04f 5600 	mov.w	r6, #536870912	@ 0x20000000
20003792:	f004 ff41 	bl	20008618 <reset_non_control_endpoints>
20003796:	f44f 3280 	mov.w	r2, #65536	@ 0x10000
2000379a:	4908      	ldr	r1, [pc, #32]	@ (200037bc <dcd_init+0x88>)
2000379c:	4b08      	ldr	r3, [pc, #32]	@ (200037c0 <dcd_init+0x8c>)
2000379e:	6425      	str	r5, [r4, #64]	@ 0x40
200037a0:	4628      	mov	r0, r5
200037a2:	64e6      	str	r6, [r4, #76]	@ 0x4c
200037a4:	f8c4 1090 	str.w	r1, [r4, #144]	@ 0x90
200037a8:	64da      	str	r2, [r3, #76]	@ 0x4c
200037aa:	bd70      	pop	{r4, r5, r6, pc}
200037ac:	50110000 	.word	0x50110000
200037b0:	20008711 	.word	0x20008711
200037b4:	2000f238 	.word	0x2000f238
200037b8:	50100084 	.word	0x50100084
200037bc:	0001d010 	.word	0x0001d010
200037c0:	50112000 	.word	0x50112000

200037c4 <dcd_int_enable>:
200037c4:	2101      	movs	r1, #1
200037c6:	200e      	movs	r0, #14
200037c8:	f7fe bed2 	b.w	20002570 <irq_set_enabled>

200037cc <dcd_set_address>:
200037cc:	2200      	movs	r2, #0
200037ce:	4802      	ldr	r0, [pc, #8]	@ (200037d8 <dcd_set_address+0xc>)
200037d0:	4611      	mov	r1, r2
200037d2:	f000 b905 	b.w	200039e0 <hw_endpoint_xfer_start>
200037d6:	bf00      	nop
200037d8:	2000f258 	.word	0x2000f258

200037dc <dcd_sof_enable>:
200037dc:	4b04      	ldr	r3, [pc, #16]	@ (200037f0 <dcd_sof_enable+0x14>)
200037de:	7019      	strb	r1, [r3, #0]
200037e0:	b121      	cbz	r1, 200037ec <dcd_sof_enable+0x10>
200037e2:	f44f 3200 	mov.w	r2, #131072	@ 0x20000
200037e6:	4b03      	ldr	r3, [pc, #12]	@ (200037f4 <dcd_sof_enable+0x18>)
200037e8:	f8c3 2090 	str.w	r2, [r3, #144]	@ 0x90
200037ec:	4770      	bx	lr
200037ee:	bf00      	nop
200037f0:	2001fa68 	.word	0x2001fa68
200037f4:	50112000 	.word	0x50112000

200037f8 <dcd_edpt0_status_complete>:
200037f8:	780b      	ldrb	r3, [r1, #0]
200037fa:	065b      	lsls	r3, r3, #25
200037fc:	d102      	bne.n	20003804 <dcd_edpt0_status_complete+0xc>
200037fe:	784b      	ldrb	r3, [r1, #1]
20003800:	2b05      	cmp	r3, #5
20003802:	d000      	beq.n	20003806 <dcd_edpt0_status_complete+0xe>
20003804:	4770      	bx	lr
20003806:	884b      	ldrh	r3, [r1, #2]
20003808:	4a01      	ldr	r2, [pc, #4]	@ (20003810 <dcd_edpt0_status_complete+0x18>)
2000380a:	b2db      	uxtb	r3, r3
2000380c:	6013      	str	r3, [r2, #0]
2000380e:	4770      	bx	lr
20003810:	50110000 	.word	0x50110000

20003814 <dcd_edpt_open>:
20003814:	78cb      	ldrb	r3, [r1, #3]
20003816:	e92d 41f0 	stmdb	sp!, {r4, r5, r6, r7, r8, lr}
2000381a:	f003 0e03 	and.w	lr, r3, #3
2000381e:	f1be 0f01 	cmp.w	lr, #1
20003822:	f3c3 0001 	ubfx	r0, r3, #0, #2
20003826:	d05d      	beq.n	200038e4 <dcd_edpt_open+0xd0>
20003828:	2700      	movs	r7, #0
2000382a:	f891 c002 	ldrb.w	ip, [r1, #2]
2000382e:	4c35      	ldr	r4, [pc, #212]	@ (20003904 <dcd_edpt_open+0xf0>)
20003830:	f00c 037f 	and.w	r3, ip, #127	@ 0x7f
20003834:	005e      	lsls	r6, r3, #1
20003836:	8889      	ldrh	r1, [r1, #4]
20003838:	eb06 12dc 	add.w	r2, r6, ip, lsr #7
2000383c:	eb04 1242 	add.w	r2, r4, r2, lsl #5
20003840:	ea4f 15dc 	mov.w	r5, ip, lsr #7
20003844:	76d0      	strb	r0, [r2, #27]
20003846:	f3c1 010a 	ubfx	r1, r1, #0, #11
2000384a:	f085 0001 	eor.w	r0, r5, #1
2000384e:	7050      	strb	r0, [r2, #1]
20003850:	f882 c002 	strb.w	ip, [r2, #2]
20003854:	8311      	strh	r1, [r2, #24]
20003856:	70d7      	strb	r7, [r2, #3]
20003858:	b218      	sxth	r0, r3
2000385a:	00da      	lsls	r2, r3, #3
2000385c:	bb8d      	cbnz	r5, 200038c2 <dcd_edpt_open+0xae>
2000385e:	482a      	ldr	r0, [pc, #168]	@ (20003908 <dcd_edpt_open+0xf4>)
20003860:	3204      	adds	r2, #4
20003862:	eb04 1c83 	add.w	ip, r4, r3, lsl #6
20003866:	eb02 0800 	add.w	r8, r2, r0
2000386a:	f8cc 8008 	str.w	r8, [ip, #8]
2000386e:	5017      	str	r7, [r2, r0]
20003870:	b38b      	cbz	r3, 200038d6 <dcd_edpt_open+0xc2>
20003872:	4a26      	ldr	r2, [pc, #152]	@ (2000390c <dcd_edpt_open+0xf8>)
20003874:	00db      	lsls	r3, r3, #3
20003876:	441a      	add	r2, r3
20003878:	f8cc 2004 	str.w	r2, [ip, #4]
2000387c:	4b24      	ldr	r3, [pc, #144]	@ (20003910 <dcd_edpt_open+0xfc>)
2000387e:	313f      	adds	r1, #63	@ 0x3f
20003880:	681a      	ldr	r2, [r3, #0]
20003882:	f021 013f 	bic.w	r1, r1, #63	@ 0x3f
20003886:	f1be 0f02 	cmp.w	lr, #2
2000388a:	bf08      	it	eq
2000388c:	0049      	lsleq	r1, r1, #1
2000388e:	4411      	add	r1, r2
20003890:	6019      	str	r1, [r3, #0]
20003892:	4b20      	ldr	r3, [pc, #128]	@ (20003914 <dcd_edpt_open+0x100>)
20003894:	1977      	adds	r7, r6, r5
20003896:	eb04 1747 	add.w	r7, r4, r7, lsl #5
2000389a:	4299      	cmp	r1, r3
2000389c:	60fa      	str	r2, [r7, #12]
2000389e:	d82c      	bhi.n	200038fa <dcd_edpt_open+0xe6>
200038a0:	442e      	add	r6, r5
200038a2:	eb04 1346 	add.w	r3, r4, r6, lsl #5
200038a6:	7ed9      	ldrb	r1, [r3, #27]
200038a8:	f082 42a0 	eor.w	r2, r2, #1342177280	@ 0x50000000
200038ac:	f482 1280 	eor.w	r2, r2, #1048576	@ 0x100000
200038b0:	685b      	ldr	r3, [r3, #4]
200038b2:	ea42 6281 	orr.w	r2, r2, r1, lsl #26
200038b6:	f042 4200 	orr.w	r2, r2, #2147483648	@ 0x80000000
200038ba:	601a      	str	r2, [r3, #0]
200038bc:	2001      	movs	r0, #1
200038be:	e8bd 81f0 	ldmia.w	sp!, {r4, r5, r6, r7, r8, pc}
200038c2:	f8df c044 	ldr.w	ip, [pc, #68]	@ 20003908 <dcd_edpt_open+0xf4>
200038c6:	eb04 1883 	add.w	r8, r4, r3, lsl #6
200038ca:	4462      	add	r2, ip
200038cc:	f8c8 2028 	str.w	r2, [r8, #40]	@ 0x28
200038d0:	f84c 7030 	str.w	r7, [ip, r0, lsl #3]
200038d4:	b94b      	cbnz	r3, 200038ea <dcd_edpt_open+0xd6>
200038d6:	2200      	movs	r2, #0
200038d8:	490f      	ldr	r1, [pc, #60]	@ (20003918 <dcd_edpt_open+0x104>)
200038da:	eb04 1345 	add.w	r3, r4, r5, lsl #5
200038de:	60d9      	str	r1, [r3, #12]
200038e0:	605a      	str	r2, [r3, #4]
200038e2:	e7eb      	b.n	200038bc <dcd_edpt_open+0xa8>
200038e4:	2000      	movs	r0, #0
200038e6:	e8bd 81f0 	ldmia.w	sp!, {r4, r5, r6, r7, r8, pc}
200038ea:	00db      	lsls	r3, r3, #3
200038ec:	f103 43a0 	add.w	r3, r3, #1342177280	@ 0x50000000
200038f0:	f503 1380 	add.w	r3, r3, #1048576	@ 0x100000
200038f4:	f8c8 3024 	str.w	r3, [r8, #36]	@ 0x24
200038f8:	e7c0      	b.n	2000387c <dcd_edpt_open+0x68>
200038fa:	f7ff fb49 	bl	20002f90 <hard_assertion_failure>
200038fe:	68fa      	ldr	r2, [r7, #12]
20003900:	e7ce      	b.n	200038a0 <dcd_edpt_open+0x8c>
20003902:	bf00      	nop
20003904:	2000f238 	.word	0x2000f238
20003908:	50100080 	.word	0x50100080
2000390c:	50100004 	.word	0x50100004
20003910:	2000f640 	.word	0x2000f640
20003914:	50100fff 	.word	0x50100fff
20003918:	50100100 	.word	0x50100100

2000391c <dcd_edpt_close_all>:
2000391c:	f004 be7c 	b.w	20008618 <reset_non_control_endpoints>

20003920 <dcd_edpt_xfer>:
20003920:	468c      	mov	ip, r1
20003922:	b508      	push	{r3, lr}
20003924:	4611      	mov	r1, r2
20003926:	4807      	ldr	r0, [pc, #28]	@ (20003944 <dcd_edpt_xfer+0x24>)
20003928:	461a      	mov	r2, r3
2000392a:	f00c 037f 	and.w	r3, ip, #127	@ 0x7f
2000392e:	ea4f 1cdc 	mov.w	ip, ip, lsr #7
20003932:	eb0c 0c43 	add.w	ip, ip, r3, lsl #1
20003936:	eb00 104c 	add.w	r0, r0, ip, lsl #5
2000393a:	f000 f851 	bl	200039e0 <hw_endpoint_xfer_start>
2000393e:	2001      	movs	r0, #1
20003940:	bd08      	pop	{r3, pc}
20003942:	bf00      	nop
20003944:	2000f238 	.word	0x2000f238

20003948 <dcd_edpt_stall>:
20003948:	09cb      	lsrs	r3, r1, #7
2000394a:	f011 017f 	ands.w	r1, r1, #127	@ 0x7f
2000394e:	d103      	bne.n	20003958 <dcd_edpt_stall+0x10>
20003950:	4a06      	ldr	r2, [pc, #24]	@ (2000396c <dcd_edpt_stall+0x24>)
20003952:	f1c3 0002 	rsb	r0, r3, #2
20003956:	6690      	str	r0, [r2, #104]	@ 0x68
20003958:	4805      	ldr	r0, [pc, #20]	@ (20003970 <dcd_edpt_stall+0x28>)
2000395a:	eb03 0341 	add.w	r3, r3, r1, lsl #1
2000395e:	f44f 6200 	mov.w	r2, #2048	@ 0x800
20003962:	2100      	movs	r1, #0
20003964:	eb00 1043 	add.w	r0, r0, r3, lsl #5
20003968:	f005 ba68 	b.w	20008e3c <_hw_endpoint_buffer_control_update32>
2000396c:	50112000 	.word	0x50112000
20003970:	2000f238 	.word	0x2000f238

20003974 <dcd_edpt_clear_stall>:
20003974:	f011 037f 	ands.w	r3, r1, #127	@ 0x7f
20003978:	d100      	bne.n	2000397c <dcd_edpt_clear_stall+0x8>
2000397a:	4770      	bx	lr
2000397c:	2200      	movs	r2, #0
2000397e:	b410      	push	{r4}
20003980:	09c8      	lsrs	r0, r1, #7
20003982:	4c06      	ldr	r4, [pc, #24]	@ (2000399c <dcd_edpt_clear_stall+0x28>)
20003984:	eb00 0043 	add.w	r0, r0, r3, lsl #1
20003988:	eb04 1340 	add.w	r3, r4, r0, lsl #5
2000398c:	f46f 6100 	mvn.w	r1, #2048	@ 0x800
20003990:	4618      	mov	r0, r3
20003992:	f85d 4b04 	ldr.w	r4, [sp], #4
20003996:	70da      	strb	r2, [r3, #3]
20003998:	f005 ba50 	b.w	20008e3c <_hw_endpoint_buffer_control_update32>
2000399c:	2000f238 	.word	0x2000f238

200039a0 <rp2040_usb_init>:
200039a0:	f04f 5280 	mov.w	r2, #268435456	@ 0x10000000
200039a4:	4809      	ldr	r0, [pc, #36]	@ (200039cc <rp2040_usb_init+0x2c>)
200039a6:	490a      	ldr	r1, [pc, #40]	@ (200039d0 <rp2040_usb_init+0x30>)
200039a8:	b508      	push	{r3, lr}
200039aa:	4b0a      	ldr	r3, [pc, #40]	@ (200039d4 <rp2040_usb_init+0x34>)
200039ac:	6002      	str	r2, [r0, #0]
200039ae:	600a      	str	r2, [r1, #0]
200039b0:	6899      	ldr	r1, [r3, #8]
200039b2:	43c9      	mvns	r1, r1
200039b4:	f011 5180 	ands.w	r1, r1, #268435456	@ 0x10000000
200039b8:	d1fa      	bne.n	200039b0 <rp2040_usb_init+0x10>
200039ba:	f44f 5280 	mov.w	r2, #4096	@ 0x1000
200039be:	4806      	ldr	r0, [pc, #24]	@ (200039d8 <rp2040_usb_init+0x38>)
200039c0:	f004 fc30 	bl	20008224 <memset>
200039c4:	2209      	movs	r2, #9
200039c6:	4b05      	ldr	r3, [pc, #20]	@ (200039dc <rp2040_usb_init+0x3c>)
200039c8:	675a      	str	r2, [r3, #116]	@ 0x74
200039ca:	bd08      	pop	{r3, pc}
200039cc:	40022000 	.word	0x40022000
200039d0:	40023000 	.word	0x40023000
200039d4:	40020000 	.word	0x40020000
200039d8:	50100000 	.word	0x50100000
200039dc:	50110000 	.word	0x50110000

200039e0 <hw_endpoint_xfer_start>:
200039e0:	2300      	movs	r3, #0
200039e2:	f04f 0c01 	mov.w	ip, #1
200039e6:	b510      	push	{r4, lr}
200039e8:	f880 c01a 	strb.w	ip, [r0, #26]
200039ec:	8282      	strh	r2, [r0, #20]
200039ee:	82c3      	strh	r3, [r0, #22]
200039f0:	6101      	str	r1, [r0, #16]
200039f2:	4604      	mov	r4, r0
200039f4:	f005 f9f4 	bl	20008de0 <e15_is_bulkin_ep>
200039f8:	b120      	cbz	r0, 20003a04 <hw_endpoint_xfer_start+0x24>
200039fa:	f44f 3200 	mov.w	r2, #131072	@ 0x20000
200039fe:	4b07      	ldr	r3, [pc, #28]	@ (20003a1c <hw_endpoint_xfer_start+0x3c>)
20003a00:	f8c3 2090 	str.w	r2, [r3, #144]	@ 0x90
20003a04:	4620      	mov	r0, r4
20003a06:	f005 f9ff 	bl	20008e08 <e15_is_critical_frame_period>
20003a0a:	b110      	cbz	r0, 20003a12 <hw_endpoint_xfer_start+0x32>
20003a0c:	2301      	movs	r3, #1
20003a0e:	7723      	strb	r3, [r4, #28]
20003a10:	bd10      	pop	{r4, pc}
20003a12:	4620      	mov	r0, r4
20003a14:	e8bd 4010 	ldmia.w	sp!, {r4, lr}
20003a18:	f005 ba32 	b.w	20008e80 <hw_endpoint_start_next_buffer>
20003a1c:	50112000 	.word	0x50112000

20003a20 <configuration_reset>:
20003a20:	e92d 41f0 	stmdb	sp!, {r4, r5, r6, r7, r8, lr}
20003a24:	2400      	movs	r4, #0
20003a26:	4e1d      	ldr	r6, [pc, #116]	@ (20003a9c <configuration_reset+0x7c>)
20003a28:	4605      	mov	r5, r0
20003a2a:	4623      	mov	r3, r4
20003a2c:	7832      	ldrb	r2, [r6, #0]
20003a2e:	f8df 8078 	ldr.w	r8, [pc, #120]	@ 20003aa8 <configuration_reset+0x88>
20003a32:	4f1b      	ldr	r7, [pc, #108]	@ (20003aa0 <configuration_reset+0x80>)
20003a34:	e00d      	b.n	20003a52 <configuration_reset+0x32>
20003a36:	683b      	ldr	r3, [r7, #0]
20003a38:	eb13 1344 	adds.w	r3, r3, r4, lsl #5
20003a3c:	d025      	beq.n	20003a8a <configuration_reset+0x6a>
20003a3e:	68db      	ldr	r3, [r3, #12]
20003a40:	4628      	mov	r0, r5
20003a42:	4798      	blx	r3
20003a44:	7832      	ldrb	r2, [r6, #0]
20003a46:	3401      	adds	r4, #1
20003a48:	b2e4      	uxtb	r4, r4
20003a4a:	1c91      	adds	r1, r2, #2
20003a4c:	42a1      	cmp	r1, r4
20003a4e:	4623      	mov	r3, r4
20003a50:	db06      	blt.n	20003a60 <configuration_reset+0x40>
20003a52:	42a2      	cmp	r2, r4
20003a54:	eba3 0302 	sub.w	r3, r3, r2
20003a58:	d8ed      	bhi.n	20003a36 <configuration_reset+0x16>
20003a5a:	eb08 1343 	add.w	r3, r8, r3, lsl #5
20003a5e:	e7ee      	b.n	20003a3e <configuration_reset+0x1e>
20003a60:	4c10      	ldr	r4, [pc, #64]	@ (20003aa4 <configuration_reset+0x84>)
20003a62:	2254      	movs	r2, #84	@ 0x54
20003a64:	2100      	movs	r1, #0
20003a66:	4620      	mov	r0, r4
20003a68:	f004 fbdc 	bl	20008224 <memset>
20003a6c:	f04f 33ff 	mov.w	r3, #4294967295	@ 0xffffffff
20003a70:	1d25      	adds	r5, r4, #4
20003a72:	6063      	str	r3, [r4, #4]
20003a74:	e9c5 3301 	strd	r3, r3, [r5, #4]
20003a78:	60eb      	str	r3, [r5, #12]
20003a7a:	f104 0014 	add.w	r0, r4, #20
20003a7e:	2220      	movs	r2, #32
20003a80:	e8bd 41f0 	ldmia.w	sp!, {r4, r5, r6, r7, r8, lr}
20003a84:	21ff      	movs	r1, #255	@ 0xff
20003a86:	f004 bbcd 	b.w	20008224 <memset>
20003a8a:	f04f 23e0 	mov.w	r3, #3758153728	@ 0xe000e000
20003a8e:	f8d3 3df0 	ldr.w	r3, [r3, #3568]	@ 0xdf0
20003a92:	07db      	lsls	r3, r3, #31
20003a94:	d500      	bpl.n	20003a98 <configuration_reset+0x78>
20003a96:	be00      	bkpt	0x0000
20003a98:	e8bd 81f0 	ldmia.w	sp!, {r4, r5, r6, r7, r8, pc}
20003a9c:	2001fa65 	.word	0x2001fa65
20003aa0:	2000add4 	.word	0x2000add4
20003aa4:	2000afec 	.word	0x2000afec
20003aa8:	200095e8 	.word	0x200095e8

20003aac <tud_event_hook_cb>:
20003aac:	4770      	bx	lr
20003aae:	bf00      	nop

20003ab0 <tud_sof_cb>:
20003ab0:	4770      	bx	lr
20003ab2:	bf00      	nop

20003ab4 <tud_descriptor_device_qualifier_cb>:
20003ab4:	2000      	movs	r0, #0
20003ab6:	4770      	bx	lr

20003ab8 <tud_descriptor_other_speed_configuration_cb>:
20003ab8:	2000      	movs	r0, #0
20003aba:	4770      	bx	lr

20003abc <tud_umount_cb>:
20003abc:	4770      	bx	lr
20003abe:	bf00      	nop

20003ac0 <tud_connected>:
20003ac0:	4b02      	ldr	r3, [pc, #8]	@ (20003acc <tud_connected+0xc>)
20003ac2:	7818      	ldrb	r0, [r3, #0]
20003ac4:	f000 0001 	and.w	r0, r0, #1
20003ac8:	4770      	bx	lr
20003aca:	bf00      	nop
20003acc:	2000afec 	.word	0x2000afec

20003ad0 <tud_mounted>:
20003ad0:	4b02      	ldr	r3, [pc, #8]	@ (20003adc <tud_mounted+0xc>)
20003ad2:	7858      	ldrb	r0, [r3, #1]
20003ad4:	3800      	subs	r0, #0
20003ad6:	bf18      	it	ne
20003ad8:	2001      	movne	r0, #1
20003ada:	4770      	bx	lr
20003adc:	2000afec 	.word	0x2000afec

20003ae0 <tud_suspended>:
20003ae0:	4b02      	ldr	r3, [pc, #8]	@ (20003aec <tud_suspended+0xc>)
20003ae2:	7818      	ldrb	r0, [r3, #0]
20003ae4:	f3c0 0080 	ubfx	r0, r0, #2, #1
20003ae8:	4770      	bx	lr
20003aea:	bf00      	nop
20003aec:	2000afec 	.word	0x2000afec

20003af0 <tud_rhport_init>:
20003af0:	e92d 47f0 	stmdb	sp!, {r4, r5, r6, r7, r8, r9, sl, lr}
20003af4:	f8df a0e8 	ldr.w	sl, [pc, #232]	@ 20003be0 <tud_rhport_init+0xf0>
20003af8:	f89a 3000 	ldrb.w	r3, [sl]
20003afc:	2bff      	cmp	r3, #255	@ 0xff
20003afe:	d002      	beq.n	20003b06 <tud_rhport_init+0x16>
20003b00:	2001      	movs	r0, #1
20003b02:	e8bd 87f0 	ldmia.w	sp!, {r4, r5, r6, r7, r8, r9, sl, pc}
20003b06:	460e      	mov	r6, r1
20003b08:	2900      	cmp	r1, #0
20003b0a:	d03e      	beq.n	20003b8a <tud_rhport_init+0x9a>
20003b0c:	2100      	movs	r1, #0
20003b0e:	2254      	movs	r2, #84	@ 0x54
20003b10:	4607      	mov	r7, r0
20003b12:	4829      	ldr	r0, [pc, #164]	@ (20003bb8 <tud_rhport_init+0xc8>)
20003b14:	f004 fb86 	bl	20008224 <memset>
20003b18:	2200      	movs	r2, #0
20003b1a:	4c28      	ldr	r4, [pc, #160]	@ (20003bbc <tud_rhport_init+0xcc>)
20003b1c:	4b28      	ldr	r3, [pc, #160]	@ (20003bc0 <tud_rhport_init+0xd0>)
20003b1e:	4620      	mov	r0, r4
20003b20:	701a      	strb	r2, [r3, #0]
20003b22:	f7fe f8a1 	bl	20001c68 <mutex_init>
20003b26:	4b27      	ldr	r3, [pc, #156]	@ (20003bc4 <tud_rhport_init+0xd4>)
20003b28:	4827      	ldr	r0, [pc, #156]	@ (20003bc8 <tud_rhport_init+0xd8>)
20003b2a:	601c      	str	r4, [r3, #0]
20003b2c:	4c27      	ldr	r4, [pc, #156]	@ (20003bcc <tud_rhport_init+0xdc>)
20003b2e:	f7fe f8a9 	bl	20001c84 <critical_section_init>
20003b32:	4620      	mov	r0, r4
20003b34:	f002 f802 	bl	20005b3c <tu_fifo_clear>
20003b38:	4a25      	ldr	r2, [pc, #148]	@ (20003bd0 <tud_rhport_init+0xe0>)
20003b3a:	4b26      	ldr	r3, [pc, #152]	@ (20003bd4 <tud_rhport_init+0xe4>)
20003b3c:	4d26      	ldr	r5, [pc, #152]	@ (20003bd8 <tud_rhport_init+0xe8>)
20003b3e:	6014      	str	r4, [r2, #0]
20003b40:	b363      	cbz	r3, 20003b9c <tud_rhport_init+0xac>
20003b42:	4628      	mov	r0, r5
20003b44:	f7fd fa94 	bl	20001070 <usbd_app_driver_get_cb>
20003b48:	4b24      	ldr	r3, [pc, #144]	@ (20003bdc <tud_rhport_init+0xec>)
20003b4a:	782a      	ldrb	r2, [r5, #0]
20003b4c:	6018      	str	r0, [r3, #0]
20003b4e:	2400      	movs	r4, #0
20003b50:	f8df 9090 	ldr.w	r9, [pc, #144]	@ 20003be4 <tud_rhport_init+0xf4>
20003b54:	4623      	mov	r3, r4
20003b56:	f8df 8084 	ldr.w	r8, [pc, #132]	@ 20003bdc <tud_rhport_init+0xec>
20003b5a:	e00e      	b.n	20003b7a <tud_rhport_init+0x8a>
20003b5c:	f8d8 3000 	ldr.w	r3, [r8]
20003b60:	eb13 1344 	adds.w	r3, r3, r4, lsl #5
20003b64:	d011      	beq.n	20003b8a <tud_rhport_init+0x9a>
20003b66:	685b      	ldr	r3, [r3, #4]
20003b68:	b17b      	cbz	r3, 20003b8a <tud_rhport_init+0x9a>
20003b6a:	4798      	blx	r3
20003b6c:	782a      	ldrb	r2, [r5, #0]
20003b6e:	3401      	adds	r4, #1
20003b70:	b2e4      	uxtb	r4, r4
20003b72:	1c91      	adds	r1, r2, #2
20003b74:	42a1      	cmp	r1, r4
20003b76:	4623      	mov	r3, r4
20003b78:	db12      	blt.n	20003ba0 <tud_rhport_init+0xb0>
20003b7a:	42a2      	cmp	r2, r4
20003b7c:	d8ee      	bhi.n	20003b5c <tud_rhport_init+0x6c>
20003b7e:	1a9b      	subs	r3, r3, r2
20003b80:	eb09 1343 	add.w	r3, r9, r3, lsl #5
20003b84:	685b      	ldr	r3, [r3, #4]
20003b86:	2b00      	cmp	r3, #0
20003b88:	d1ef      	bne.n	20003b6a <tud_rhport_init+0x7a>
20003b8a:	f04f 23e0 	mov.w	r3, #3758153728	@ 0xe000e000
20003b8e:	f8d3 3df0 	ldr.w	r3, [r3, #3568]	@ 0xdf0
20003b92:	07db      	lsls	r3, r3, #31
20003b94:	d500      	bpl.n	20003b98 <tud_rhport_init+0xa8>
20003b96:	be00      	bkpt	0x0000
20003b98:	2000      	movs	r0, #0
20003b9a:	e7b2      	b.n	20003b02 <tud_rhport_init+0x12>
20003b9c:	782a      	ldrb	r2, [r5, #0]
20003b9e:	e7d6      	b.n	20003b4e <tud_rhport_init+0x5e>
20003ba0:	4631      	mov	r1, r6
20003ba2:	4638      	mov	r0, r7
20003ba4:	f88a 7000 	strb.w	r7, [sl]
20003ba8:	f7ff fdc4 	bl	20003734 <dcd_init>
20003bac:	2800      	cmp	r0, #0
20003bae:	d0ec      	beq.n	20003b8a <tud_rhport_init+0x9a>
20003bb0:	4638      	mov	r0, r7
20003bb2:	f7ff fe07 	bl	200037c4 <dcd_int_enable>
20003bb6:	e7a3      	b.n	20003b00 <tud_rhport_init+0x10>
20003bb8:	2000afec 	.word	0x2000afec
20003bbc:	2000afe4 	.word	0x2000afe4
20003bc0:	2001fa69 	.word	0x2001fa69
20003bc4:	2000b040 	.word	0x2000b040
20003bc8:	20009774 	.word	0x20009774
20003bcc:	20009760 	.word	0x20009760
20003bd0:	2000b044 	.word	0x2000b044
20003bd4:	20001071 	.word	0x20001071
20003bd8:	2001fa65 	.word	0x2001fa65
20003bdc:	2000add4 	.word	0x2000add4
20003be0:	2000977c 	.word	0x2000977c
20003be4:	200095e8 	.word	0x200095e8

20003be8 <tud_task_event_ready>:
20003be8:	b508      	push	{r3, lr}
20003bea:	4b07      	ldr	r3, [pc, #28]	@ (20003c08 <tud_task_event_ready+0x20>)
20003bec:	781b      	ldrb	r3, [r3, #0]
20003bee:	2bff      	cmp	r3, #255	@ 0xff
20003bf0:	d007      	beq.n	20003c02 <tud_task_event_ready+0x1a>
20003bf2:	4b06      	ldr	r3, [pc, #24]	@ (20003c0c <tud_task_event_ready+0x24>)
20003bf4:	6818      	ldr	r0, [r3, #0]
20003bf6:	f001 fdd3 	bl	200057a0 <tu_fifo_empty>
20003bfa:	f080 0001 	eor.w	r0, r0, #1
20003bfe:	b2c0      	uxtb	r0, r0
20003c00:	bd08      	pop	{r3, pc}
20003c02:	2000      	movs	r0, #0
20003c04:	bd08      	pop	{r3, pc}
20003c06:	bf00      	nop
20003c08:	2000977c 	.word	0x2000977c
20003c0c:	2000b044 	.word	0x2000b044

20003c10 <tud_task_ext>:
20003c10:	e92d 4ff0 	stmdb	sp!, {r4, r5, r6, r7, r8, r9, sl, fp, lr}
20003c14:	f8df 92c8 	ldr.w	r9, [pc, #712]	@ 20003ee0 <tud_task_ext+0x2d0>
20003c18:	b08b      	sub	sp, #44	@ 0x2c
20003c1a:	f899 3000 	ldrb.w	r3, [r9]
20003c1e:	2bff      	cmp	r3, #255	@ 0xff
20003c20:	f000 80f1 	beq.w	20003e06 <tud_task_ext+0x1f6>
20003c24:	4ca8      	ldr	r4, [pc, #672]	@ (20003ec8 <tud_task_ext+0x2b8>)
20003c26:	4da9      	ldr	r5, [pc, #676]	@ (20003ecc <tud_task_ext+0x2bc>)
20003c28:	f8df a2b0 	ldr.w	sl, [pc, #688]	@ 20003edc <tud_task_ext+0x2cc>
20003c2c:	f8df b2b4 	ldr.w	fp, [pc, #692]	@ 20003ee4 <tud_task_ext+0x2d4>
20003c30:	6826      	ldr	r6, [r4, #0]
20003c32:	6973      	ldr	r3, [r6, #20]
20003c34:	f3ef 8210 	mrs	r2, PRIMASK
20003c38:	b672      	cpsid	i
20003c3a:	e8d3 0fcf 	ldaexb	r0, [r3]
20003c3e:	2101      	movs	r1, #1
20003c40:	2800      	cmp	r0, #0
20003c42:	d1fa      	bne.n	20003c3a <tud_task_ext+0x2a>
20003c44:	e8c3 1f40 	strexb	r0, r1, [r3]
20003c48:	2800      	cmp	r0, #0
20003c4a:	d1f6      	bne.n	20003c3a <tud_task_ext+0x2a>
20003c4c:	f3bf 8f5f 	dmb	sy
20003c50:	61b2      	str	r2, [r6, #24]
20003c52:	4630      	mov	r0, r6
20003c54:	a907      	add	r1, sp, #28
20003c56:	f001 fdbf 	bl	200057d8 <tu_fifo_read>
20003c5a:	2300      	movs	r3, #0
20003c5c:	6972      	ldr	r2, [r6, #20]
20003c5e:	e8c2 3f8f 	stlb	r3, [r2]
20003c62:	69b3      	ldr	r3, [r6, #24]
20003c64:	f383 8810 	msr	PRIMASK, r3
20003c68:	2800      	cmp	r0, #0
20003c6a:	f000 80cc 	beq.w	20003e06 <tud_task_ext+0x1f6>
20003c6e:	f89d 301d 	ldrb.w	r3, [sp, #29]
20003c72:	3b01      	subs	r3, #1
20003c74:	2b07      	cmp	r3, #7
20003c76:	f200 837d 	bhi.w	20004374 <tud_task_ext+0x764>
20003c7a:	e8df f003 	tbb	[pc, r3]
20003c7e:	b1a7      	.short	0xb1a7
20003c80:	358e9d95 	.word	0x358e9d95
20003c84:	040a      	.short	0x040a
20003c86:	9b08      	ldr	r3, [sp, #32]
20003c88:	2b00      	cmp	r3, #0
20003c8a:	d0d1      	beq.n	20003c30 <tud_task_ext+0x20>
20003c8c:	9809      	ldr	r0, [sp, #36]	@ 0x24
20003c8e:	4798      	blx	r3
20003c90:	e7ce      	b.n	20003c30 <tud_task_ext+0x20>
20003c92:	f89d 1020 	ldrb.w	r1, [sp, #32]
20003c96:	f001 067f 	and.w	r6, r1, #127	@ 0x7f
20003c9a:	eb05 0046 	add.w	r0, r5, r6, lsl #1
20003c9e:	eb00 10d1 	add.w	r0, r0, r1, lsr #7
20003ca2:	f890 3034 	ldrb.w	r3, [r0, #52]	@ 0x34
20003ca6:	f023 0301 	bic.w	r3, r3, #1
20003caa:	f880 3034 	strb.w	r3, [r0, #52]	@ 0x34
20003cae:	f890 3034 	ldrb.w	r3, [r0, #52]	@ 0x34
20003cb2:	f023 0304 	bic.w	r3, r3, #4
20003cb6:	f880 3034 	strb.w	r3, [r0, #52]	@ 0x34
20003cba:	2e00      	cmp	r6, #0
20003cbc:	f000 80a6 	beq.w	20003e0c <tud_task_ext+0x1fc>
20003cc0:	7d03      	ldrb	r3, [r0, #20]
20003cc2:	f89a 2000 	ldrb.w	r2, [sl]
20003cc6:	4293      	cmp	r3, r2
20003cc8:	f080 8093 	bcs.w	20003df2 <tud_task_ext+0x1e2>
20003ccc:	4a80      	ldr	r2, [pc, #512]	@ (20003ed0 <tud_task_ext+0x2c0>)
20003cce:	6812      	ldr	r2, [r2, #0]
20003cd0:	eb12 1343 	adds.w	r3, r2, r3, lsl #5
20003cd4:	f000 8090 	beq.w	20003df8 <tud_task_ext+0x1e8>
20003cd8:	699e      	ldr	r6, [r3, #24]
20003cda:	f89d 2021 	ldrb.w	r2, [sp, #33]	@ 0x21
20003cde:	9b09      	ldr	r3, [sp, #36]	@ 0x24
20003ce0:	f89d 001c 	ldrb.w	r0, [sp, #28]
20003ce4:	47b0      	blx	r6
20003ce6:	e7a3      	b.n	20003c30 <tud_task_ext+0x20>
20003ce8:	f89b 3000 	ldrb.w	r3, [fp]
20003cec:	2b00      	cmp	r3, #0
20003cee:	f000 8083 	beq.w	20003df8 <tud_task_ext+0x1e8>
20003cf2:	f89b 3000 	ldrb.w	r3, [fp]
20003cf6:	3b01      	subs	r3, #1
20003cf8:	b2db      	uxtb	r3, r3
20003cfa:	f88b 3000 	strb.w	r3, [fp]
20003cfe:	f89b 3000 	ldrb.w	r3, [fp]
20003d02:	f003 00ff 	and.w	r0, r3, #255	@ 0xff
20003d06:	2b00      	cmp	r3, #0
20003d08:	d192      	bne.n	20003c30 <tud_task_ext+0x20>
20003d0a:	4f70      	ldr	r7, [pc, #448]	@ (20003ecc <tud_task_ext+0x2bc>)
20003d0c:	f89d 801c 	ldrb.w	r8, [sp, #28]
20003d10:	783b      	ldrb	r3, [r7, #0]
20003d12:	f043 0301 	orr.w	r3, r3, #1
20003d16:	703b      	strb	r3, [r7, #0]
20003d18:	f897 3034 	ldrb.w	r3, [r7, #52]	@ 0x34
20003d1c:	f360 0300 	bfi	r3, r0, #0, #1
20003d20:	f887 3034 	strb.w	r3, [r7, #52]	@ 0x34
20003d24:	f897 3034 	ldrb.w	r3, [r7, #52]	@ 0x34
20003d28:	f360 0382 	bfi	r3, r0, #2, #1
20003d2c:	f887 3034 	strb.w	r3, [r7, #52]	@ 0x34
20003d30:	f897 3035 	ldrb.w	r3, [r7, #53]	@ 0x35
20003d34:	f360 0300 	bfi	r3, r0, #0, #1
20003d38:	f887 3035 	strb.w	r3, [r7, #53]	@ 0x35
20003d3c:	f897 3035 	ldrb.w	r3, [r7, #53]	@ 0x35
20003d40:	f360 0382 	bfi	r3, r0, #2, #1
20003d44:	f887 3035 	strb.w	r3, [r7, #53]	@ 0x35
20003d48:	f000 fc6a 	bl	20004620 <usbd_control_set_complete_callback>
20003d4c:	f89d 3020 	ldrb.w	r3, [sp, #32]
20003d50:	f003 0260 	and.w	r2, r3, #96	@ 0x60
20003d54:	2a60      	cmp	r2, #96	@ 0x60
20003d56:	d06c      	beq.n	20003e32 <tud_task_ext+0x222>
20003d58:	2a40      	cmp	r2, #64	@ 0x40
20003d5a:	d07c      	beq.n	20003e56 <tud_task_ext+0x246>
20003d5c:	f003 031f 	and.w	r3, r3, #31
20003d60:	2b01      	cmp	r3, #1
20003d62:	f000 80c1 	beq.w	20003ee8 <tud_task_ext+0x2d8>
20003d66:	2b02      	cmp	r3, #2
20003d68:	f000 8081 	beq.w	20003e6e <tud_task_ext+0x25e>
20003d6c:	2b00      	cmp	r3, #0
20003d6e:	d160      	bne.n	20003e32 <tud_task_ext+0x222>
20003d70:	2a20      	cmp	r2, #32
20003d72:	f000 81e9 	beq.w	20004148 <tud_task_ext+0x538>
20003d76:	2a00      	cmp	r2, #0
20003d78:	d15b      	bne.n	20003e32 <tud_task_ext+0x222>
20003d7a:	f89d 3021 	ldrb.w	r3, [sp, #33]	@ 0x21
20003d7e:	2b09      	cmp	r3, #9
20003d80:	d857      	bhi.n	20003e32 <tud_task_ext+0x222>
20003d82:	e8df f013 	tbh	[pc, r3, lsl #1]
20003d86:	01b0      	.short	0x01b0
20003d88:	005601a2 	.word	0x005601a2
20003d8c:	005601c1 	.word	0x005601c1
20003d90:	016b0195 	.word	0x016b0195
20003d94:	01600056 	.word	0x01600056
20003d98:	00f4      	.short	0x00f4
20003d9a:	782b      	ldrb	r3, [r5, #0]
20003d9c:	07d9      	lsls	r1, r3, #31
20003d9e:	f57f af47 	bpl.w	20003c30 <tud_task_ext+0x20>
20003da2:	f7fc faaf 	bl	20000304 <tud_resume_cb>
20003da6:	e743      	b.n	20003c30 <tud_task_ext+0x20>
20003da8:	78eb      	ldrb	r3, [r5, #3]
20003daa:	07da      	lsls	r2, r3, #31
20003dac:	f57f af40 	bpl.w	20003c30 <tud_task_ext+0x20>
20003db0:	9808      	ldr	r0, [sp, #32]
20003db2:	f7ff fe7d 	bl	20003ab0 <tud_sof_cb>
20003db6:	e73b      	b.n	20003c30 <tud_task_ext+0x20>
20003db8:	782b      	ldrb	r3, [r5, #0]
20003dba:	07d8      	lsls	r0, r3, #31
20003dbc:	f57f af38 	bpl.w	20003c30 <tud_task_ext+0x20>
20003dc0:	7828      	ldrb	r0, [r5, #0]
20003dc2:	f3c0 00c0 	ubfx	r0, r0, #3, #1
20003dc6:	f7fc fa87 	bl	200002d8 <tud_suspend_cb>
20003dca:	e731      	b.n	20003c30 <tud_task_ext+0x20>
20003dcc:	f89d 001c 	ldrb.w	r0, [sp, #28]
20003dd0:	f7ff fe26 	bl	20003a20 <configuration_reset>
20003dd4:	f000 fc1a 	bl	2000460c <usbd_control_reset>
20003dd8:	f89d 3020 	ldrb.w	r3, [sp, #32]
20003ddc:	70ab      	strb	r3, [r5, #2]
20003dde:	e727      	b.n	20003c30 <tud_task_ext+0x20>
20003de0:	f89d 001c 	ldrb.w	r0, [sp, #28]
20003de4:	f7ff fe1c 	bl	20003a20 <configuration_reset>
20003de8:	f000 fc10 	bl	2000460c <usbd_control_reset>
20003dec:	f7ff fe66 	bl	20003abc <tud_umount_cb>
20003df0:	e71e      	b.n	20003c30 <tud_task_ext+0x20>
20003df2:	1c90      	adds	r0, r2, #2
20003df4:	4298      	cmp	r0, r3
20003df6:	da11      	bge.n	20003e1c <tud_task_ext+0x20c>
20003df8:	f04f 23e0 	mov.w	r3, #3758153728	@ 0xe000e000
20003dfc:	f8d3 3df0 	ldr.w	r3, [r3, #3568]	@ 0xdf0
20003e00:	07dc      	lsls	r4, r3, #31
20003e02:	d500      	bpl.n	20003e06 <tud_task_ext+0x1f6>
20003e04:	be00      	bkpt	0x0000
20003e06:	b00b      	add	sp, #44	@ 0x2c
20003e08:	e8bd 8ff0 	ldmia.w	sp!, {r4, r5, r6, r7, r8, r9, sl, fp, pc}
20003e0c:	9b09      	ldr	r3, [sp, #36]	@ 0x24
20003e0e:	f89d 2021 	ldrb.w	r2, [sp, #33]	@ 0x21
20003e12:	f89d 001c 	ldrb.w	r0, [sp, #28]
20003e16:	f000 fc17 	bl	20004648 <usbd_control_xfer_cb>
20003e1a:	e709      	b.n	20003c30 <tud_task_ext+0x20>
20003e1c:	1a9b      	subs	r3, r3, r2
20003e1e:	4a2d      	ldr	r2, [pc, #180]	@ (20003ed4 <tud_task_ext+0x2c4>)
20003e20:	eb02 1343 	add.w	r3, r2, r3, lsl #5
20003e24:	e758      	b.n	20003cd8 <tud_task_ext+0xc8>
20003e26:	f7fc fac9 	bl	200003bc <tud_descriptor_configuration_cb>
20003e2a:	4602      	mov	r2, r0
20003e2c:	2800      	cmp	r0, #0
20003e2e:	f040 8182 	bne.w	20004136 <tud_task_ext+0x526>
20003e32:	f04f 23e0 	mov.w	r3, #3758153728	@ 0xe000e000
20003e36:	f8d3 3df0 	ldr.w	r3, [r3, #3568]	@ 0xdf0
20003e3a:	07de      	lsls	r6, r3, #31
20003e3c:	d500      	bpl.n	20003e40 <tud_task_ext+0x230>
20003e3e:	be00      	bkpt	0x0000
20003e40:	f89d 001c 	ldrb.w	r0, [sp, #28]
20003e44:	2100      	movs	r1, #0
20003e46:	f7ff fd7f 	bl	20003948 <dcd_edpt_stall>
20003e4a:	2180      	movs	r1, #128	@ 0x80
20003e4c:	f89d 001c 	ldrb.w	r0, [sp, #28]
20003e50:	f7ff fd7a 	bl	20003948 <dcd_edpt_stall>
20003e54:	e6ec      	b.n	20003c30 <tud_task_ext+0x20>
20003e56:	4820      	ldr	r0, [pc, #128]	@ (20003ed8 <tud_task_ext+0x2c8>)
20003e58:	f000 fbe2 	bl	20004620 <usbd_control_set_complete_callback>
20003e5c:	2101      	movs	r1, #1
20003e5e:	4640      	mov	r0, r8
20003e60:	aa08      	add	r2, sp, #32
20003e62:	f7fc fa1f 	bl	200002a4 <tud_vendor_control_xfer_cb>
20003e66:	2800      	cmp	r0, #0
20003e68:	f47f aee2 	bne.w	20003c30 <tud_task_ext+0x20>
20003e6c:	e7e8      	b.n	20003e40 <tud_task_ext+0x230>
20003e6e:	f89d 1024 	ldrb.w	r1, [sp, #36]	@ 0x24
20003e72:	f011 0f70 	tst.w	r1, #112	@ 0x70
20003e76:	d1dc      	bne.n	20003e32 <tud_task_ext+0x222>
20003e78:	f001 067f 	and.w	r6, r1, #127	@ 0x7f
20003e7c:	eb07 0046 	add.w	r0, r7, r6, lsl #1
20003e80:	4b16      	ldr	r3, [pc, #88]	@ (20003edc <tud_task_ext+0x2cc>)
20003e82:	eb00 10d1 	add.w	r0, r0, r1, lsr #7
20003e86:	781b      	ldrb	r3, [r3, #0]
20003e88:	7d00      	ldrb	r0, [r0, #20]
20003e8a:	0076      	lsls	r6, r6, #1
20003e8c:	9601      	str	r6, [sp, #4]
20003e8e:	4298      	cmp	r0, r3
20003e90:	ea4f 16d1 	mov.w	r6, r1, lsr #7
20003e94:	9600      	str	r6, [sp, #0]
20003e96:	d359      	bcc.n	20003f4c <tud_task_ext+0x33c>
20003e98:	1c9e      	adds	r6, r3, #2
20003e9a:	4286      	cmp	r6, r0
20003e9c:	f2c0 8166 	blt.w	2000416c <tud_task_ext+0x55c>
20003ea0:	1ac0      	subs	r0, r0, r3
20003ea2:	4b0c      	ldr	r3, [pc, #48]	@ (20003ed4 <tud_task_ext+0x2c4>)
20003ea4:	eb03 1640 	add.w	r6, r3, r0, lsl #5
20003ea8:	2a00      	cmp	r2, #0
20003eaa:	f000 8163 	beq.w	20004174 <tud_task_ext+0x564>
20003eae:	6970      	ldr	r0, [r6, #20]
20003eb0:	f000 fbb6 	bl	20004620 <usbd_control_set_complete_callback>
20003eb4:	2101      	movs	r1, #1
20003eb6:	4640      	mov	r0, r8
20003eb8:	6973      	ldr	r3, [r6, #20]
20003eba:	aa08      	add	r2, sp, #32
20003ebc:	4798      	blx	r3
20003ebe:	2800      	cmp	r0, #0
20003ec0:	f47f aeb6 	bne.w	20003c30 <tud_task_ext+0x20>
20003ec4:	e7bc      	b.n	20003e40 <tud_task_ext+0x230>
20003ec6:	bf00      	nop
20003ec8:	2000b044 	.word	0x2000b044
20003ecc:	2000afec 	.word	0x2000afec
20003ed0:	2000add4 	.word	0x2000add4
20003ed4:	200095e8 	.word	0x200095e8
20003ed8:	200002a5 	.word	0x200002a5
20003edc:	2001fa65 	.word	0x2001fa65
20003ee0:	2000977c 	.word	0x2000977c
20003ee4:	2001fa69 	.word	0x2001fa69
20003ee8:	f89d 3024 	ldrb.w	r3, [sp, #36]	@ 0x24
20003eec:	2b0f      	cmp	r3, #15
20003eee:	d8a7      	bhi.n	20003e40 <tud_task_ext+0x230>
20003ef0:	4aae      	ldr	r2, [pc, #696]	@ (200041ac <tud_task_ext+0x59c>)
20003ef2:	443b      	add	r3, r7
20003ef4:	791b      	ldrb	r3, [r3, #4]
20003ef6:	7812      	ldrb	r2, [r2, #0]
20003ef8:	4293      	cmp	r3, r2
20003efa:	d332      	bcc.n	20003f62 <tud_task_ext+0x352>
20003efc:	1c91      	adds	r1, r2, #2
20003efe:	4299      	cmp	r1, r3
20003f00:	db9e      	blt.n	20003e40 <tud_task_ext+0x230>
20003f02:	4eab      	ldr	r6, [pc, #684]	@ (200041b0 <tud_task_ext+0x5a0>)
20003f04:	1a9b      	subs	r3, r3, r2
20003f06:	eb06 1643 	add.w	r6, r6, r3, lsl #5
20003f0a:	6970      	ldr	r0, [r6, #20]
20003f0c:	f000 fb88 	bl	20004620 <usbd_control_set_complete_callback>
20003f10:	2101      	movs	r1, #1
20003f12:	4640      	mov	r0, r8
20003f14:	6973      	ldr	r3, [r6, #20]
20003f16:	aa08      	add	r2, sp, #32
20003f18:	4798      	blx	r3
20003f1a:	2800      	cmp	r0, #0
20003f1c:	f47f ae88 	bne.w	20003c30 <tud_task_ext+0x20>
20003f20:	f89d 3020 	ldrb.w	r3, [sp, #32]
20003f24:	f013 0660 	ands.w	r6, r3, #96	@ 0x60
20003f28:	d18a      	bne.n	20003e40 <tud_task_ext+0x230>
20003f2a:	f89d 3021 	ldrb.w	r3, [sp, #33]	@ 0x21
20003f2e:	3b0a      	subs	r3, #10
20003f30:	2b01      	cmp	r3, #1
20003f32:	d885      	bhi.n	20003e40 <tud_task_ext+0x230>
20003f34:	f000 fb74 	bl	20004620 <usbd_control_set_complete_callback>
20003f38:	f89d 3021 	ldrb.w	r3, [sp, #33]	@ 0x21
20003f3c:	2b0a      	cmp	r3, #10
20003f3e:	f000 81f2 	beq.w	20004326 <tud_task_ext+0x716>
20003f42:	4640      	mov	r0, r8
20003f44:	a908      	add	r1, sp, #32
20003f46:	f000 faf1 	bl	2000452c <tud_control_status>
20003f4a:	e671      	b.n	20003c30 <tud_task_ext+0x20>
20003f4c:	4b99      	ldr	r3, [pc, #612]	@ (200041b4 <tud_task_ext+0x5a4>)
20003f4e:	681b      	ldr	r3, [r3, #0]
20003f50:	eb03 1640 	add.w	r6, r3, r0, lsl #5
20003f54:	2a00      	cmp	r2, #0
20003f56:	f000 810d 	beq.w	20004174 <tud_task_ext+0x564>
20003f5a:	2e00      	cmp	r6, #0
20003f5c:	f43f af70 	beq.w	20003e40 <tud_task_ext+0x230>
20003f60:	e7a5      	b.n	20003eae <tud_task_ext+0x29e>
20003f62:	4a94      	ldr	r2, [pc, #592]	@ (200041b4 <tud_task_ext+0x5a4>)
20003f64:	6816      	ldr	r6, [r2, #0]
20003f66:	eb16 1643 	adds.w	r6, r6, r3, lsl #5
20003f6a:	d1ce      	bne.n	20003f0a <tud_task_ext+0x2fa>
20003f6c:	e768      	b.n	20003e40 <tud_task_ext+0x230>
20003f6e:	787b      	ldrb	r3, [r7, #1]
20003f70:	f89d 6022 	ldrb.w	r6, [sp, #34]	@ 0x22
20003f74:	429e      	cmp	r6, r3
20003f76:	f000 814f 	beq.w	20004218 <tud_task_ext+0x608>
20003f7a:	787b      	ldrb	r3, [r7, #1]
20003f7c:	2b00      	cmp	r3, #0
20003f7e:	f040 81be 	bne.w	200042fe <tud_task_ext+0x6ee>
20003f82:	707e      	strb	r6, [r7, #1]
20003f84:	2e00      	cmp	r6, #0
20003f86:	f000 8145 	beq.w	20004214 <tud_task_ext+0x604>
20003f8a:	1e70      	subs	r0, r6, #1
20003f8c:	b2c0      	uxtb	r0, r0
20003f8e:	f7fc fa15 	bl	200003bc <tud_descriptor_configuration_cb>
20003f92:	4603      	mov	r3, r0
20003f94:	2800      	cmp	r0, #0
20003f96:	f000 815f 	beq.w	20004258 <tud_task_ext+0x648>
20003f9a:	7842      	ldrb	r2, [r0, #1]
20003f9c:	2a02      	cmp	r2, #2
20003f9e:	f040 815b 	bne.w	20004258 <tud_task_ext+0x648>
20003fa2:	79c1      	ldrb	r1, [r0, #7]
20003fa4:	f103 0609 	add.w	r6, r3, #9
20003fa8:	f3c1 1240 	ubfx	r2, r1, #5, #1
20003fac:	0112      	lsls	r2, r2, #4
20003fae:	f3c1 1180 	ubfx	r1, r1, #6, #1
20003fb2:	ea42 1241 	orr.w	r2, r2, r1, lsl #5
20003fb6:	4631      	mov	r1, r6
20003fb8:	7838      	ldrb	r0, [r7, #0]
20003fba:	f020 0030 	bic.w	r0, r0, #48	@ 0x30
20003fbe:	4302      	orrs	r2, r0
20003fc0:	703a      	strb	r2, [r7, #0]
20003fc2:	885a      	ldrh	r2, [r3, #2]
20003fc4:	f8cd 800c 	str.w	r8, [sp, #12]
20003fc8:	189a      	adds	r2, r3, r2
20003fca:	9201      	str	r2, [sp, #4]
20003fcc:	9b01      	ldr	r3, [sp, #4]
20003fce:	428b      	cmp	r3, r1
20003fd0:	f240 81a4 	bls.w	2000431c <tud_task_ext+0x70c>
20003fd4:	784a      	ldrb	r2, [r1, #1]
20003fd6:	2a0b      	cmp	r2, #11
20003fd8:	f000 81af 	beq.w	2000433a <tud_task_ext+0x72a>
20003fdc:	2301      	movs	r3, #1
20003fde:	2a04      	cmp	r2, #4
20003fe0:	f040 813a 	bne.w	20004258 <tud_task_ext+0x648>
20003fe4:	2600      	movs	r6, #0
20003fe6:	9a01      	ldr	r2, [sp, #4]
20003fe8:	9600      	str	r6, [sp, #0]
20003fea:	1a52      	subs	r2, r2, r1
20003fec:	b292      	uxth	r2, r2
20003fee:	9202      	str	r2, [sp, #8]
20003ff0:	4a6e      	ldr	r2, [pc, #440]	@ (200041ac <tud_task_ext+0x59c>)
20003ff2:	9304      	str	r3, [sp, #16]
20003ff4:	7812      	ldrb	r2, [r2, #0]
20003ff6:	e01d      	b.n	20004034 <tud_task_ext+0x424>
20003ff8:	4b6e      	ldr	r3, [pc, #440]	@ (200041b4 <tud_task_ext+0x5a4>)
20003ffa:	681b      	ldr	r3, [r3, #0]
20003ffc:	eb13 1846 	adds.w	r8, r3, r6, lsl #5
20004000:	f000 812a 	beq.w	20004258 <tud_task_ext+0x648>
20004004:	9a02      	ldr	r2, [sp, #8]
20004006:	f8d8 3010 	ldr.w	r3, [r8, #16]
2000400a:	9803      	ldr	r0, [sp, #12]
2000400c:	9105      	str	r1, [sp, #20]
2000400e:	4798      	blx	r3
20004010:	2808      	cmp	r0, #8
20004012:	4602      	mov	r2, r0
20004014:	9905      	ldr	r1, [sp, #20]
20004016:	f106 0301 	add.w	r3, r6, #1
2000401a:	d903      	bls.n	20004024 <tud_task_ext+0x414>
2000401c:	9802      	ldr	r0, [sp, #8]
2000401e:	4290      	cmp	r0, r2
20004020:	f080 80ff 	bcs.w	20004222 <tud_task_ext+0x612>
20004024:	b2de      	uxtb	r6, r3
20004026:	4b61      	ldr	r3, [pc, #388]	@ (200041ac <tud_task_ext+0x59c>)
20004028:	9600      	str	r6, [sp, #0]
2000402a:	781a      	ldrb	r2, [r3, #0]
2000402c:	1c93      	adds	r3, r2, #2
2000402e:	429e      	cmp	r6, r3
20004030:	f300 8112 	bgt.w	20004258 <tud_task_ext+0x648>
20004034:	9b00      	ldr	r3, [sp, #0]
20004036:	42b2      	cmp	r2, r6
20004038:	eba3 0202 	sub.w	r2, r3, r2
2000403c:	d8dc      	bhi.n	20003ff8 <tud_task_ext+0x3e8>
2000403e:	4b5c      	ldr	r3, [pc, #368]	@ (200041b0 <tud_task_ext+0x5a0>)
20004040:	eb03 1842 	add.w	r8, r3, r2, lsl #5
20004044:	e7de      	b.n	20004004 <tud_task_ext+0x3f4>
20004046:	787b      	ldrb	r3, [r7, #1]
20004048:	4640      	mov	r0, r8
2000404a:	f88d 301a 	strb.w	r3, [sp, #26]
2000404e:	f10d 021a 	add.w	r2, sp, #26
20004052:	2301      	movs	r3, #1
20004054:	a908      	add	r1, sp, #32
20004056:	f000 fa83 	bl	20004560 <tud_control_xfer>
2000405a:	e5e9      	b.n	20003c30 <tud_task_ext+0x20>
2000405c:	f8bd 0022 	ldrh.w	r0, [sp, #34]	@ 0x22
20004060:	0a03      	lsrs	r3, r0, #8
20004062:	3b01      	subs	r3, #1
20004064:	0a02      	lsrs	r2, r0, #8
20004066:	b2c0      	uxtb	r0, r0
20004068:	2b0e      	cmp	r3, #14
2000406a:	f63f aee9 	bhi.w	20003e40 <tud_task_ext+0x230>
2000406e:	a101      	add	r1, pc, #4	@ (adr r1, 20004074 <tud_task_ext+0x464>)
20004070:	f851 f023 	ldr.w	pc, [r1, r3, lsl #2]
20004074:	20004289 	.word	0x20004289
20004078:	20004125 	.word	0x20004125
2000407c:	200042c5 	.word	0x200042c5
20004080:	20003e41 	.word	0x20003e41
20004084:	20003e41 	.word	0x20003e41
20004088:	200042a7 	.word	0x200042a7
2000408c:	20004125 	.word	0x20004125
20004090:	20003e41 	.word	0x20003e41
20004094:	20003e41 	.word	0x20003e41
20004098:	20003e41 	.word	0x20003e41
2000409c:	20003e41 	.word	0x20003e41
200040a0:	20003e41 	.word	0x20003e41
200040a4:	20003e41 	.word	0x20003e41
200040a8:	20003e41 	.word	0x20003e41
200040ac:	2000427b 	.word	0x2000427b
200040b0:	a808      	add	r0, sp, #32
200040b2:	f000 fabb 	bl	2000462c <usbd_control_set_request>
200040b6:	4640      	mov	r0, r8
200040b8:	f89d 1022 	ldrb.w	r1, [sp, #34]	@ 0x22
200040bc:	f7ff fb86 	bl	200037cc <dcd_set_address>
200040c0:	783b      	ldrb	r3, [r7, #0]
200040c2:	f043 0302 	orr.w	r3, r3, #2
200040c6:	703b      	strb	r3, [r7, #0]
200040c8:	e5b2      	b.n	20003c30 <tud_task_ext+0x20>
200040ca:	f8bd 3022 	ldrh.w	r3, [sp, #34]	@ 0x22
200040ce:	2b01      	cmp	r3, #1
200040d0:	f47f aeb6 	bne.w	20003e40 <tud_task_ext+0x230>
200040d4:	783b      	ldrb	r3, [r7, #0]
200040d6:	4640      	mov	r0, r8
200040d8:	f023 0308 	bic.w	r3, r3, #8
200040dc:	a908      	add	r1, sp, #32
200040de:	703b      	strb	r3, [r7, #0]
200040e0:	f000 fa24 	bl	2000452c <tud_control_status>
200040e4:	e5a4      	b.n	20003c30 <tud_task_ext+0x20>
200040e6:	4640      	mov	r0, r8
200040e8:	783b      	ldrb	r3, [r7, #0]
200040ea:	089a      	lsrs	r2, r3, #2
200040ec:	f002 0202 	and.w	r2, r2, #2
200040f0:	f3c3 1340 	ubfx	r3, r3, #5, #1
200040f4:	4313      	orrs	r3, r2
200040f6:	f8ad 301a 	strh.w	r3, [sp, #26]
200040fa:	f10d 021a 	add.w	r2, sp, #26
200040fe:	2302      	movs	r3, #2
20004100:	a908      	add	r1, sp, #32
20004102:	f000 fa2d 	bl	20004560 <tud_control_xfer>
20004106:	e593      	b.n	20003c30 <tud_task_ext+0x20>
20004108:	f8bd 3022 	ldrh.w	r3, [sp, #34]	@ 0x22
2000410c:	2b01      	cmp	r3, #1
2000410e:	f47f ae97 	bne.w	20003e40 <tud_task_ext+0x230>
20004112:	783b      	ldrb	r3, [r7, #0]
20004114:	4640      	mov	r0, r8
20004116:	f043 0308 	orr.w	r3, r3, #8
2000411a:	a908      	add	r1, sp, #32
2000411c:	703b      	strb	r3, [r7, #0]
2000411e:	f000 fa05 	bl	2000452c <tud_control_status>
20004122:	e585      	b.n	20003c30 <tud_task_ext+0x20>
20004124:	2a02      	cmp	r2, #2
20004126:	f43f ae7e 	beq.w	20003e26 <tud_task_ext+0x216>
2000412a:	f7ff fcc5 	bl	20003ab8 <tud_descriptor_other_speed_configuration_cb>
2000412e:	4602      	mov	r2, r0
20004130:	2800      	cmp	r0, #0
20004132:	f43f ae85 	beq.w	20003e40 <tud_task_ext+0x230>
20004136:	4640      	mov	r0, r8
20004138:	8853      	ldrh	r3, [r2, #2]
2000413a:	a908      	add	r1, sp, #32
2000413c:	f000 fa10 	bl	20004560 <tud_control_xfer>
20004140:	2800      	cmp	r0, #0
20004142:	f47f ad75 	bne.w	20003c30 <tud_task_ext+0x20>
20004146:	e67b      	b.n	20003e40 <tud_task_ext+0x230>
20004148:	f89d 3024 	ldrb.w	r3, [sp, #36]	@ 0x24
2000414c:	2b0f      	cmp	r3, #15
2000414e:	f63f ae77 	bhi.w	20003e40 <tud_task_ext+0x230>
20004152:	4a16      	ldr	r2, [pc, #88]	@ (200041ac <tud_task_ext+0x59c>)
20004154:	443b      	add	r3, r7
20004156:	791b      	ldrb	r3, [r3, #4]
20004158:	7812      	ldrb	r2, [r2, #0]
2000415a:	4293      	cmp	r3, r2
2000415c:	d21d      	bcs.n	2000419a <tud_task_ext+0x58a>
2000415e:	4a15      	ldr	r2, [pc, #84]	@ (200041b4 <tud_task_ext+0x5a4>)
20004160:	6816      	ldr	r6, [r2, #0]
20004162:	eb16 1643 	adds.w	r6, r6, r3, lsl #5
20004166:	f47f aea2 	bne.w	20003eae <tud_task_ext+0x29e>
2000416a:	e669      	b.n	20003e40 <tud_task_ext+0x230>
2000416c:	2a00      	cmp	r2, #0
2000416e:	f47f ae67 	bne.w	20003e40 <tud_task_ext+0x230>
20004172:	2600      	movs	r6, #0
20004174:	f89d 2021 	ldrb.w	r2, [sp, #33]	@ 0x21
20004178:	f002 03fd 	and.w	r3, r2, #253	@ 0xfd
2000417c:	2b01      	cmp	r3, #1
2000417e:	d01b      	beq.n	200041b8 <tud_task_ext+0x5a8>
20004180:	2a00      	cmp	r2, #0
20004182:	f47f ae56 	bne.w	20003e32 <tud_task_ext+0x222>
20004186:	9b01      	ldr	r3, [sp, #4]
20004188:	9a00      	ldr	r2, [sp, #0]
2000418a:	443b      	add	r3, r7
2000418c:	4413      	add	r3, r2
2000418e:	f893 3034 	ldrb.w	r3, [r3, #52]	@ 0x34
20004192:	4640      	mov	r0, r8
20004194:	f3c3 0340 	ubfx	r3, r3, #1, #1
20004198:	e7ad      	b.n	200040f6 <tud_task_ext+0x4e6>
2000419a:	1c91      	adds	r1, r2, #2
2000419c:	4299      	cmp	r1, r3
2000419e:	f6ff ae4f 	blt.w	20003e40 <tud_task_ext+0x230>
200041a2:	4e03      	ldr	r6, [pc, #12]	@ (200041b0 <tud_task_ext+0x5a0>)
200041a4:	1a9b      	subs	r3, r3, r2
200041a6:	eb06 1643 	add.w	r6, r6, r3, lsl #5
200041aa:	e680      	b.n	20003eae <tud_task_ext+0x29e>
200041ac:	2001fa65 	.word	0x2001fa65
200041b0:	200095e8 	.word	0x200095e8
200041b4:	2000add4 	.word	0x2000add4
200041b8:	f8bd 3022 	ldrh.w	r3, [sp, #34]	@ 0x22
200041bc:	b9b3      	cbnz	r3, 200041ec <tud_task_ext+0x5dc>
200041be:	2a01      	cmp	r2, #1
200041c0:	f899 0000 	ldrb.w	r0, [r9]
200041c4:	f000 8086 	beq.w	200042d4 <tud_task_ext+0x6c4>
200041c8:	f7ff fbbe 	bl	20003948 <dcd_edpt_stall>
200041cc:	9b01      	ldr	r3, [sp, #4]
200041ce:	9a00      	ldr	r2, [sp, #0]
200041d0:	443b      	add	r3, r7
200041d2:	4413      	add	r3, r2
200041d4:	f893 2034 	ldrb.w	r2, [r3, #52]	@ 0x34
200041d8:	f042 0202 	orr.w	r2, r2, #2
200041dc:	f883 2034 	strb.w	r2, [r3, #52]	@ 0x34
200041e0:	f893 2034 	ldrb.w	r2, [r3, #52]	@ 0x34
200041e4:	f042 0201 	orr.w	r2, r2, #1
200041e8:	f883 2034 	strb.w	r2, [r3, #52]	@ 0x34
200041ec:	2e00      	cmp	r6, #0
200041ee:	f43f ad1f 	beq.w	20003c30 <tud_task_ext+0x20>
200041f2:	6970      	ldr	r0, [r6, #20]
200041f4:	f000 fa14 	bl	20004620 <usbd_control_set_complete_callback>
200041f8:	6973      	ldr	r3, [r6, #20]
200041fa:	2101      	movs	r1, #1
200041fc:	aa08      	add	r2, sp, #32
200041fe:	4640      	mov	r0, r8
20004200:	4798      	blx	r3
20004202:	2000      	movs	r0, #0
20004204:	f000 fa0c 	bl	20004620 <usbd_control_set_complete_callback>
20004208:	f897 3035 	ldrb.w	r3, [r7, #53]	@ 0x35
2000420c:	07df      	lsls	r7, r3, #31
2000420e:	f53f ad0f 	bmi.w	20003c30 <tud_task_ext+0x20>
20004212:	e696      	b.n	20003f42 <tud_task_ext+0x332>
20004214:	f7ff fc52 	bl	20003abc <tud_umount_cb>
20004218:	4640      	mov	r0, r8
2000421a:	a908      	add	r1, sp, #32
2000421c:	f000 f986 	bl	2000452c <tud_control_status>
20004220:	e506      	b.n	20003c30 <tud_task_ext+0x20>
20004222:	9b04      	ldr	r3, [sp, #16]
20004224:	2b01      	cmp	r3, #1
20004226:	f000 809e 	beq.w	20004366 <tud_task_ext+0x756>
2000422a:	2b00      	cmp	r3, #0
2000422c:	f000 808a 	beq.w	20004344 <tud_task_ext+0x734>
20004230:	2000      	movs	r0, #0
20004232:	f891 8002 	ldrb.w	r8, [r1, #2]
20004236:	e005      	b.n	20004244 <tud_task_ext+0x634>
20004238:	f88c 6004 	strb.w	r6, [ip, #4]
2000423c:	fa5f fc80 	uxtb.w	ip, r0
20004240:	4563      	cmp	r3, ip
20004242:	d97f      	bls.n	20004344 <tud_task_ext+0x734>
20004244:	eb08 0c00 	add.w	ip, r8, r0
20004248:	fa57 fc8c 	uxtab	ip, r7, ip
2000424c:	f89c e004 	ldrb.w	lr, [ip, #4]
20004250:	3001      	adds	r0, #1
20004252:	f1be 0fff 	cmp.w	lr, #255	@ 0xff
20004256:	d0ef      	beq.n	20004238 <tud_task_ext+0x628>
20004258:	f04f 23e0 	mov.w	r3, #3758153728	@ 0xe000e000
2000425c:	f8d3 3df0 	ldr.w	r3, [r3, #3568]	@ 0xdf0
20004260:	07da      	lsls	r2, r3, #31
20004262:	d500      	bpl.n	20004266 <tud_task_ext+0x656>
20004264:	be00      	bkpt	0x0000
20004266:	f04f 23e0 	mov.w	r3, #3758153728	@ 0xe000e000
2000426a:	f8d3 3df0 	ldr.w	r3, [r3, #3568]	@ 0xdf0
2000426e:	07db      	lsls	r3, r3, #31
20004270:	d500      	bpl.n	20004274 <tud_task_ext+0x664>
20004272:	be00      	bkpt	0x0000
20004274:	2300      	movs	r3, #0
20004276:	707b      	strb	r3, [r7, #1]
20004278:	e5e2      	b.n	20003e40 <tud_task_ext+0x230>
2000427a:	f7fc f8e3 	bl	20000444 <tud_descriptor_bos_cb>
2000427e:	4602      	mov	r2, r0
20004280:	2800      	cmp	r0, #0
20004282:	f47f af58 	bne.w	20004136 <tud_task_ext+0x526>
20004286:	e5db      	b.n	20003e40 <tud_task_ext+0x230>
20004288:	f7fc f890 	bl	200003ac <tud_descriptor_device_cb>
2000428c:	4602      	mov	r2, r0
2000428e:	2800      	cmp	r0, #0
20004290:	f43f adcf 	beq.w	20003e32 <tud_task_ext+0x222>
20004294:	4640      	mov	r0, r8
20004296:	2312      	movs	r3, #18
20004298:	a908      	add	r1, sp, #32
2000429a:	f000 f961 	bl	20004560 <tud_control_xfer>
2000429e:	2800      	cmp	r0, #0
200042a0:	f47f acc6 	bne.w	20003c30 <tud_task_ext+0x20>
200042a4:	e5cc      	b.n	20003e40 <tud_task_ext+0x230>
200042a6:	f7ff fc05 	bl	20003ab4 <tud_descriptor_device_qualifier_cb>
200042aa:	4602      	mov	r2, r0
200042ac:	2800      	cmp	r0, #0
200042ae:	f43f adc7 	beq.w	20003e40 <tud_task_ext+0x230>
200042b2:	4640      	mov	r0, r8
200042b4:	7813      	ldrb	r3, [r2, #0]
200042b6:	a908      	add	r1, sp, #32
200042b8:	f000 f952 	bl	20004560 <tud_control_xfer>
200042bc:	2800      	cmp	r0, #0
200042be:	f47f acb7 	bne.w	20003c30 <tud_task_ext+0x20>
200042c2:	e5bd      	b.n	20003e40 <tud_task_ext+0x230>
200042c4:	f8bd 1024 	ldrh.w	r1, [sp, #36]	@ 0x24
200042c8:	f7fc f880 	bl	200003cc <tud_descriptor_string_cb>
200042cc:	4602      	mov	r2, r0
200042ce:	2800      	cmp	r0, #0
200042d0:	d1ef      	bne.n	200042b2 <tud_task_ext+0x6a2>
200042d2:	e5b5      	b.n	20003e40 <tud_task_ext+0x230>
200042d4:	9302      	str	r3, [sp, #8]
200042d6:	f7ff fb4d 	bl	20003974 <dcd_edpt_clear_stall>
200042da:	9a01      	ldr	r2, [sp, #4]
200042dc:	9b00      	ldr	r3, [sp, #0]
200042de:	443a      	add	r2, r7
200042e0:	441a      	add	r2, r3
200042e2:	f892 1034 	ldrb.w	r1, [r2, #52]	@ 0x34
200042e6:	9b02      	ldr	r3, [sp, #8]
200042e8:	f363 0141 	bfi	r1, r3, #1, #1
200042ec:	f882 1034 	strb.w	r1, [r2, #52]	@ 0x34
200042f0:	f892 1034 	ldrb.w	r1, [r2, #52]	@ 0x34
200042f4:	f363 0100 	bfi	r1, r3, #0, #1
200042f8:	f882 1034 	strb.w	r1, [r2, #52]	@ 0x34
200042fc:	e776      	b.n	200041ec <tud_task_ext+0x5dc>
200042fe:	2100      	movs	r1, #0
20004300:	4640      	mov	r0, r8
20004302:	f7ff fa6b 	bl	200037dc <dcd_sof_enable>
20004306:	4640      	mov	r0, r8
20004308:	f7ff fb08 	bl	2000391c <dcd_edpt_close_all>
2000430c:	78bb      	ldrb	r3, [r7, #2]
2000430e:	4640      	mov	r0, r8
20004310:	9300      	str	r3, [sp, #0]
20004312:	f7ff fb85 	bl	20003a20 <configuration_reset>
20004316:	9b00      	ldr	r3, [sp, #0]
20004318:	70bb      	strb	r3, [r7, #2]
2000431a:	e632      	b.n	20003f82 <tud_task_ext+0x372>
2000431c:	f8dd 800c 	ldr.w	r8, [sp, #12]
20004320:	f7fc f806 	bl	20000330 <tud_mount_cb>
20004324:	e778      	b.n	20004218 <tud_task_ext+0x608>
20004326:	4640      	mov	r0, r8
20004328:	2301      	movs	r3, #1
2000432a:	a908      	add	r1, sp, #32
2000432c:	f10d 021a 	add.w	r2, sp, #26
20004330:	f88d 601a 	strb.w	r6, [sp, #26]
20004334:	f000 f914 	bl	20004560 <tud_control_xfer>
20004338:	e47a      	b.n	20003c30 <tud_task_ext+0x20>
2000433a:	780a      	ldrb	r2, [r1, #0]
2000433c:	78cb      	ldrb	r3, [r1, #3]
2000433e:	4411      	add	r1, r2
20004340:	784a      	ldrb	r2, [r1, #1]
20004342:	e64c      	b.n	20003fde <tud_task_ext+0x3ce>
20004344:	4633      	mov	r3, r6
20004346:	4810      	ldr	r0, [pc, #64]	@ (20004388 <tud_task_ext+0x778>)
20004348:	9204      	str	r2, [sp, #16]
2000434a:	9102      	str	r1, [sp, #8]
2000434c:	f001 f8ba 	bl	200054c4 <tu_edpt_bind_driver>
20004350:	4b0e      	ldr	r3, [pc, #56]	@ (2000438c <tud_task_ext+0x77c>)
20004352:	9a04      	ldr	r2, [sp, #16]
20004354:	9902      	ldr	r1, [sp, #8]
20004356:	781b      	ldrb	r3, [r3, #0]
20004358:	4411      	add	r1, r2
2000435a:	9a00      	ldr	r2, [sp, #0]
2000435c:	3302      	adds	r3, #2
2000435e:	4293      	cmp	r3, r2
20004360:	f6bf ae34 	bge.w	20003fcc <tud_task_ext+0x3bc>
20004364:	e778      	b.n	20004258 <tud_task_ext+0x648>
20004366:	f8d8 c010 	ldr.w	ip, [r8, #16]
2000436a:	4809      	ldr	r0, [pc, #36]	@ (20004390 <tud_task_ext+0x780>)
2000436c:	4584      	cmp	ip, r0
2000436e:	bf08      	it	eq
20004370:	2302      	moveq	r3, #2
20004372:	e75d      	b.n	20004230 <tud_task_ext+0x620>
20004374:	f04f 23e0 	mov.w	r3, #3758153728	@ 0xe000e000
20004378:	f8d3 3df0 	ldr.w	r3, [r3, #3568]	@ 0xdf0
2000437c:	07db      	lsls	r3, r3, #31
2000437e:	f57f ac57 	bpl.w	20003c30 <tud_task_ext+0x20>
20004382:	be00      	bkpt	0x0000
20004384:	e454      	b.n	20003c30 <tud_task_ext+0x20>
20004386:	bf00      	nop
20004388:	2000b000 	.word	0x2000b000
2000438c:	2001fa65 	.word	0x2001fa65
20004390:	20004b01 	.word	0x20004b01

20004394 <usbd_open_edpt_pair>:
20004394:	e92d 4ff8 	stmdb	sp!, {r3, r4, r5, r6, r7, r8, r9, sl, fp, lr}
20004398:	f8dd 8028 	ldr.w	r8, [sp, #40]	@ 0x28
2000439c:	2a00      	cmp	r2, #0
2000439e:	d03f      	beq.n	20004420 <usbd_open_edpt_pair+0x8c>
200043a0:	460c      	mov	r4, r1
200043a2:	461e      	mov	r6, r3
200043a4:	4615      	mov	r5, r2
200043a6:	f04f 0b00 	mov.w	fp, #0
200043aa:	4f1f      	ldr	r7, [pc, #124]	@ (20004428 <usbd_open_edpt_pair+0x94>)
200043ac:	f8df 907c 	ldr.w	r9, [pc, #124]	@ 2000442c <usbd_open_edpt_pair+0x98>
200043b0:	e017      	b.n	200043e2 <usbd_open_edpt_pair+0x4e>
200043b2:	4620      	mov	r0, r4
200043b4:	f899 1002 	ldrb.w	r1, [r9, #2]
200043b8:	f001 f852 	bl	20005460 <tu_edpt_validate>
200043bc:	b1f8      	cbz	r0, 200043fe <usbd_open_edpt_pair+0x6a>
200043be:	4621      	mov	r1, r4
200043c0:	4650      	mov	r0, sl
200043c2:	f7ff fa27 	bl	20003814 <dcd_edpt_open>
200043c6:	b308      	cbz	r0, 2000440c <usbd_open_edpt_pair+0x78>
200043c8:	78a3      	ldrb	r3, [r4, #2]
200043ca:	f10b 0b01 	add.w	fp, fp, #1
200043ce:	09da      	lsrs	r2, r3, #7
200043d0:	bf16      	itet	ne
200043d2:	9a0b      	ldrne	r2, [sp, #44]	@ 0x2c
200043d4:	f888 3000 	strbeq.w	r3, [r8]
200043d8:	7013      	strbne	r3, [r2, #0]
200043da:	7823      	ldrb	r3, [r4, #0]
200043dc:	45ab      	cmp	fp, r5
200043de:	441c      	add	r4, r3
200043e0:	d01e      	beq.n	20004420 <usbd_open_edpt_pair+0x8c>
200043e2:	7863      	ldrb	r3, [r4, #1]
200043e4:	2b05      	cmp	r3, #5
200043e6:	d111      	bne.n	2000440c <usbd_open_edpt_pair+0x78>
200043e8:	78e1      	ldrb	r1, [r4, #3]
200043ea:	f001 0103 	and.w	r1, r1, #3
200043ee:	42b1      	cmp	r1, r6
200043f0:	d10c      	bne.n	2000440c <usbd_open_edpt_pair+0x78>
200043f2:	78a3      	ldrb	r3, [r4, #2]
200043f4:	f897 a000 	ldrb.w	sl, [r7]
200043f8:	f013 0f70 	tst.w	r3, #112	@ 0x70
200043fc:	d0d9      	beq.n	200043b2 <usbd_open_edpt_pair+0x1e>
200043fe:	f04f 23e0 	mov.w	r3, #3758153728	@ 0xe000e000
20004402:	f8d3 3df0 	ldr.w	r3, [r3, #3568]	@ 0xdf0
20004406:	07da      	lsls	r2, r3, #31
20004408:	d500      	bpl.n	2000440c <usbd_open_edpt_pair+0x78>
2000440a:	be00      	bkpt	0x0000
2000440c:	f04f 23e0 	mov.w	r3, #3758153728	@ 0xe000e000
20004410:	f8d3 3df0 	ldr.w	r3, [r3, #3568]	@ 0xdf0
20004414:	07db      	lsls	r3, r3, #31
20004416:	d500      	bpl.n	2000441a <usbd_open_edpt_pair+0x86>
20004418:	be00      	bkpt	0x0000
2000441a:	2000      	movs	r0, #0
2000441c:	e8bd 8ff8 	ldmia.w	sp!, {r3, r4, r5, r6, r7, r8, r9, sl, fp, pc}
20004420:	2001      	movs	r0, #1
20004422:	e8bd 8ff8 	ldmia.w	sp!, {r3, r4, r5, r6, r7, r8, r9, sl, fp, pc}
20004426:	bf00      	nop
20004428:	2000977c 	.word	0x2000977c
2000442c:	2000afec 	.word	0x2000afec

20004430 <usbd_edpt_open>:
20004430:	b538      	push	{r3, r4, r5, lr}
20004432:	4b0e      	ldr	r3, [pc, #56]	@ (2000446c <usbd_edpt_open+0x3c>)
20004434:	781d      	ldrb	r5, [r3, #0]
20004436:	788b      	ldrb	r3, [r1, #2]
20004438:	f013 0f70 	tst.w	r3, #112	@ 0x70
2000443c:	d008      	beq.n	20004450 <usbd_edpt_open+0x20>
2000443e:	f04f 23e0 	mov.w	r3, #3758153728	@ 0xe000e000
20004442:	f8d3 3df0 	ldr.w	r3, [r3, #3568]	@ 0xdf0
20004446:	07db      	lsls	r3, r3, #31
20004448:	d500      	bpl.n	2000444c <usbd_edpt_open+0x1c>
2000444a:	be00      	bkpt	0x0000
2000444c:	2000      	movs	r0, #0
2000444e:	bd38      	pop	{r3, r4, r5, pc}
20004450:	4b07      	ldr	r3, [pc, #28]	@ (20004470 <usbd_edpt_open+0x40>)
20004452:	460c      	mov	r4, r1
20004454:	4608      	mov	r0, r1
20004456:	7899      	ldrb	r1, [r3, #2]
20004458:	f001 f802 	bl	20005460 <tu_edpt_validate>
2000445c:	2800      	cmp	r0, #0
2000445e:	d0ee      	beq.n	2000443e <usbd_edpt_open+0xe>
20004460:	4621      	mov	r1, r4
20004462:	4628      	mov	r0, r5
20004464:	e8bd 4038 	ldmia.w	sp!, {r3, r4, r5, lr}
20004468:	f7ff b9d4 	b.w	20003814 <dcd_edpt_open>
2000446c:	2000977c 	.word	0x2000977c
20004470:	2000afec 	.word	0x2000afec

20004474 <usbd_edpt_claim>:
20004474:	460b      	mov	r3, r1
20004476:	4a06      	ldr	r2, [pc, #24]	@ (20004490 <usbd_edpt_claim+0x1c>)
20004478:	4806      	ldr	r0, [pc, #24]	@ (20004494 <usbd_edpt_claim+0x20>)
2000447a:	6811      	ldr	r1, [r2, #0]
2000447c:	09da      	lsrs	r2, r3, #7
2000447e:	3234      	adds	r2, #52	@ 0x34
20004480:	f003 037f 	and.w	r3, r3, #127	@ 0x7f
20004484:	eb02 0343 	add.w	r3, r2, r3, lsl #1
20004488:	4418      	add	r0, r3
2000448a:	f000 bfa3 	b.w	200053d4 <tu_edpt_claim>
2000448e:	bf00      	nop
20004490:	2000b040 	.word	0x2000b040
20004494:	2000afec 	.word	0x2000afec

20004498 <usbd_edpt_release>:
20004498:	460b      	mov	r3, r1
2000449a:	4a06      	ldr	r2, [pc, #24]	@ (200044b4 <usbd_edpt_release+0x1c>)
2000449c:	4806      	ldr	r0, [pc, #24]	@ (200044b8 <usbd_edpt_release+0x20>)
2000449e:	6811      	ldr	r1, [r2, #0]
200044a0:	09da      	lsrs	r2, r3, #7
200044a2:	3234      	adds	r2, #52	@ 0x34
200044a4:	f003 037f 	and.w	r3, r3, #127	@ 0x7f
200044a8:	eb02 0343 	add.w	r3, r2, r3, lsl #1
200044ac:	4418      	add	r0, r3
200044ae:	f000 bfbb 	b.w	20005428 <tu_edpt_release>
200044b2:	bf00      	nop
200044b4:	2000b040 	.word	0x2000b040
200044b8:	2000afec 	.word	0x2000afec

200044bc <usbd_edpt_xfer>:
200044bc:	b510      	push	{r4, lr}
200044be:	4c19      	ldr	r4, [pc, #100]	@ (20004524 <usbd_edpt_xfer+0x68>)
200044c0:	f001 0e7f 	and.w	lr, r1, #127	@ 0x7f
200044c4:	eb04 044e 	add.w	r4, r4, lr, lsl #1
200044c8:	eb04 14d1 	add.w	r4, r4, r1, lsr #7
200044cc:	f894 c034 	ldrb.w	ip, [r4, #52]	@ 0x34
200044d0:	4815      	ldr	r0, [pc, #84]	@ (20004528 <usbd_edpt_xfer+0x6c>)
200044d2:	f01c 0f01 	tst.w	ip, #1
200044d6:	f104 0430 	add.w	r4, r4, #48	@ 0x30
200044da:	7800      	ldrb	r0, [r0, #0]
200044dc:	d008      	beq.n	200044f0 <usbd_edpt_xfer+0x34>
200044de:	f04f 23e0 	mov.w	r3, #3758153728	@ 0xe000e000
200044e2:	f8d3 3df0 	ldr.w	r3, [r3, #3568]	@ 0xdf0
200044e6:	07da      	lsls	r2, r3, #31
200044e8:	d500      	bpl.n	200044ec <usbd_edpt_xfer+0x30>
200044ea:	be00      	bkpt	0x0000
200044ec:	2000      	movs	r0, #0
200044ee:	bd10      	pop	{r4, pc}
200044f0:	f894 c004 	ldrb.w	ip, [r4, #4]
200044f4:	f04c 0c01 	orr.w	ip, ip, #1
200044f8:	f884 c004 	strb.w	ip, [r4, #4]
200044fc:	f7ff fa10 	bl	20003920 <dcd_edpt_xfer>
20004500:	2800      	cmp	r0, #0
20004502:	d1f4      	bne.n	200044ee <usbd_edpt_xfer+0x32>
20004504:	f04f 21e0 	mov.w	r1, #3758153728	@ 0xe000e000
20004508:	7922      	ldrb	r2, [r4, #4]
2000450a:	f360 0200 	bfi	r2, r0, #0, #1
2000450e:	7122      	strb	r2, [r4, #4]
20004510:	7922      	ldrb	r2, [r4, #4]
20004512:	f360 0282 	bfi	r2, r0, #2, #1
20004516:	7122      	strb	r2, [r4, #4]
20004518:	f8d1 3df0 	ldr.w	r3, [r1, #3568]	@ 0xdf0
2000451c:	07db      	lsls	r3, r3, #31
2000451e:	d5e5      	bpl.n	200044ec <usbd_edpt_xfer+0x30>
20004520:	e7e3      	b.n	200044ea <usbd_edpt_xfer+0x2e>
20004522:	bf00      	nop
20004524:	2000afec 	.word	0x2000afec
20004528:	2000977c 	.word	0x2000977c

2000452c <tud_control_status>:
2000452c:	b530      	push	{r4, r5, lr}
2000452e:	4c0b      	ldr	r4, [pc, #44]	@ (2000455c <tud_control_status+0x30>)
20004530:	468c      	mov	ip, r1
20004532:	46a6      	mov	lr, r4
20004534:	4605      	mov	r5, r0
20004536:	6808      	ldr	r0, [r1, #0]
20004538:	6849      	ldr	r1, [r1, #4]
2000453a:	2300      	movs	r3, #0
2000453c:	e8ae 0003 	stmia.w	lr!, {r0, r1}
20004540:	f89c 1000 	ldrb.w	r1, [ip]
20004544:	4628      	mov	r0, r5
20004546:	43c9      	mvns	r1, r1
20004548:	e9c4 3302 	strd	r3, r3, [r4, #8]
2000454c:	e8bd 4030 	ldmia.w	sp!, {r4, r5, lr}
20004550:	461a      	mov	r2, r3
20004552:	f001 0180 	and.w	r1, r1, #128	@ 0x80
20004556:	f7ff bfb1 	b.w	200044bc <usbd_edpt_xfer>
2000455a:	bf00      	nop
2000455c:	2000ae9c 	.word	0x2000ae9c

20004560 <tud_control_xfer>:
20004560:	e92d 41f0 	stmdb	sp!, {r4, r5, r6, r7, r8, lr}
20004564:	4f27      	ldr	r7, [pc, #156]	@ (20004604 <tud_control_xfer+0xa4>)
20004566:	f04f 0800 	mov.w	r8, #0
2000456a:	46be      	mov	lr, r7
2000456c:	468c      	mov	ip, r1
2000456e:	4606      	mov	r6, r0
20004570:	6808      	ldr	r0, [r1, #0]
20004572:	6849      	ldr	r1, [r1, #4]
20004574:	60ba      	str	r2, [r7, #8]
20004576:	e8ae 0003 	stmia.w	lr!, {r0, r1}
2000457a:	f8a7 800e 	strh.w	r8, [r7, #14]
2000457e:	4615      	mov	r5, r2
20004580:	f8bc 2006 	ldrh.w	r2, [ip, #6]
20004584:	4293      	cmp	r3, r2
20004586:	bf28      	it	cs
20004588:	4613      	movcs	r3, r2
2000458a:	81bb      	strh	r3, [r7, #12]
2000458c:	b19a      	cbz	r2, 200045b6 <tud_control_xfer+0x56>
2000458e:	461c      	mov	r4, r3
20004590:	b32b      	cbz	r3, 200045de <tud_control_xfer+0x7e>
20004592:	b1dd      	cbz	r5, 200045cc <tud_control_xfer+0x6c>
20004594:	f997 3000 	ldrsb.w	r3, [r7]
20004598:	2c40      	cmp	r4, #64	@ 0x40
2000459a:	bf28      	it	cs
2000459c:	2440      	movcs	r4, #64	@ 0x40
2000459e:	2b00      	cmp	r3, #0
200045a0:	db28      	blt.n	200045f4 <tud_control_xfer+0x94>
200045a2:	4641      	mov	r1, r8
200045a4:	4623      	mov	r3, r4
200045a6:	4630      	mov	r0, r6
200045a8:	4a17      	ldr	r2, [pc, #92]	@ (20004608 <tud_control_xfer+0xa8>)
200045aa:	f7ff ff87 	bl	200044bc <usbd_edpt_xfer>
200045ae:	b168      	cbz	r0, 200045cc <tud_control_xfer+0x6c>
200045b0:	2001      	movs	r0, #1
200045b2:	e8bd 81f0 	ldmia.w	sp!, {r4, r5, r6, r7, r8, pc}
200045b6:	f89c 1000 	ldrb.w	r1, [ip]
200045ba:	4613      	mov	r3, r2
200045bc:	43c9      	mvns	r1, r1
200045be:	4630      	mov	r0, r6
200045c0:	f001 0180 	and.w	r1, r1, #128	@ 0x80
200045c4:	f7ff ff7a 	bl	200044bc <usbd_edpt_xfer>
200045c8:	2800      	cmp	r0, #0
200045ca:	d1f1      	bne.n	200045b0 <tud_control_xfer+0x50>
200045cc:	f04f 23e0 	mov.w	r3, #3758153728	@ 0xe000e000
200045d0:	f8d3 3df0 	ldr.w	r3, [r3, #3568]	@ 0xdf0
200045d4:	07db      	lsls	r3, r3, #31
200045d6:	d500      	bpl.n	200045da <tud_control_xfer+0x7a>
200045d8:	be00      	bkpt	0x0000
200045da:	2000      	movs	r0, #0
200045dc:	e7e9      	b.n	200045b2 <tud_control_xfer+0x52>
200045de:	461a      	mov	r2, r3
200045e0:	7839      	ldrb	r1, [r7, #0]
200045e2:	f001 0180 	and.w	r1, r1, #128	@ 0x80
200045e6:	4623      	mov	r3, r4
200045e8:	4630      	mov	r0, r6
200045ea:	f7ff ff67 	bl	200044bc <usbd_edpt_xfer>
200045ee:	2800      	cmp	r0, #0
200045f0:	d1de      	bne.n	200045b0 <tud_control_xfer+0x50>
200045f2:	e7eb      	b.n	200045cc <tud_control_xfer+0x6c>
200045f4:	4622      	mov	r2, r4
200045f6:	4629      	mov	r1, r5
200045f8:	4803      	ldr	r0, [pc, #12]	@ (20004608 <tud_control_xfer+0xa8>)
200045fa:	f003 fe65 	bl	200082c8 <memcpy>
200045fe:	2180      	movs	r1, #128	@ 0x80
20004600:	4a01      	ldr	r2, [pc, #4]	@ (20004608 <tud_control_xfer+0xa8>)
20004602:	e7f0      	b.n	200045e6 <tud_control_xfer+0x86>
20004604:	2000ae9c 	.word	0x2000ae9c
20004608:	2000ae5c 	.word	0x2000ae5c

2000460c <usbd_control_reset>:
2000460c:	2200      	movs	r2, #0
2000460e:	4b03      	ldr	r3, [pc, #12]	@ (2000461c <usbd_control_reset+0x10>)
20004610:	e9c3 2200 	strd	r2, r2, [r3]
20004614:	e9c3 2202 	strd	r2, r2, [r3, #8]
20004618:	611a      	str	r2, [r3, #16]
2000461a:	4770      	bx	lr
2000461c:	2000ae9c 	.word	0x2000ae9c

20004620 <usbd_control_set_complete_callback>:
20004620:	4b01      	ldr	r3, [pc, #4]	@ (20004628 <usbd_control_set_complete_callback+0x8>)
20004622:	6118      	str	r0, [r3, #16]
20004624:	4770      	bx	lr
20004626:	bf00      	nop
20004628:	2000ae9c 	.word	0x2000ae9c

2000462c <usbd_control_set_request>:
2000462c:	b430      	push	{r4, r5}
2000462e:	4602      	mov	r2, r0
20004630:	4c04      	ldr	r4, [pc, #16]	@ (20004644 <usbd_control_set_request+0x18>)
20004632:	2500      	movs	r5, #0
20004634:	4623      	mov	r3, r4
20004636:	6800      	ldr	r0, [r0, #0]
20004638:	6851      	ldr	r1, [r2, #4]
2000463a:	e9c4 5502 	strd	r5, r5, [r4, #8]
2000463e:	bc30      	pop	{r4, r5}
20004640:	c303      	stmia	r3!, {r0, r1}
20004642:	4770      	bx	lr
20004644:	2000ae9c 	.word	0x2000ae9c

20004648 <usbd_control_xfer_cb>:
20004648:	b570      	push	{r4, r5, r6, lr}
2000464a:	4c3c      	ldr	r4, [pc, #240]	@ (2000473c <usbd_control_xfer_cb+0xf4>)
2000464c:	09c9      	lsrs	r1, r1, #7
2000464e:	7822      	ldrb	r2, [r4, #0]
20004650:	4606      	mov	r6, r0
20004652:	ebb1 1fd2 	cmp.w	r1, r2, lsr #7
20004656:	461d      	mov	r5, r3
20004658:	b082      	sub	sp, #8
2000465a:	d017      	beq.n	2000468c <usbd_control_xfer_cb+0x44>
2000465c:	b153      	cbz	r3, 20004674 <usbd_control_xfer_cb+0x2c>
2000465e:	f04f 23e0 	mov.w	r3, #3758153728	@ 0xe000e000
20004662:	f8d3 3df0 	ldr.w	r3, [r3, #3568]	@ 0xdf0
20004666:	07db      	lsls	r3, r3, #31
20004668:	d402      	bmi.n	20004670 <usbd_control_xfer_cb+0x28>
2000466a:	2000      	movs	r0, #0
2000466c:	b002      	add	sp, #8
2000466e:	bd70      	pop	{r4, r5, r6, pc}
20004670:	be00      	bkpt	0x0000
20004672:	e7fa      	b.n	2000466a <usbd_control_xfer_cb+0x22>
20004674:	4621      	mov	r1, r4
20004676:	f7ff f8bf 	bl	200037f8 <dcd_edpt0_status_complete>
2000467a:	6923      	ldr	r3, [r4, #16]
2000467c:	b11b      	cbz	r3, 20004686 <usbd_control_xfer_cb+0x3e>
2000467e:	4622      	mov	r2, r4
20004680:	2103      	movs	r1, #3
20004682:	4630      	mov	r0, r6
20004684:	4798      	blx	r3
20004686:	2001      	movs	r0, #1
20004688:	b002      	add	sp, #8
2000468a:	bd70      	pop	{r4, r5, r6, pc}
2000468c:	f994 3000 	ldrsb.w	r3, [r4]
20004690:	68a0      	ldr	r0, [r4, #8]
20004692:	2b00      	cmp	r3, #0
20004694:	db05      	blt.n	200046a2 <usbd_control_xfer_cb+0x5a>
20004696:	2800      	cmp	r0, #0
20004698:	d0e7      	beq.n	2000466a <usbd_control_xfer_cb+0x22>
2000469a:	462a      	mov	r2, r5
2000469c:	4928      	ldr	r1, [pc, #160]	@ (20004740 <usbd_control_xfer_cb+0xf8>)
2000469e:	f003 fe13 	bl	200082c8 <memcpy>
200046a2:	89e0      	ldrh	r0, [r4, #14]
200046a4:	68a1      	ldr	r1, [r4, #8]
200046a6:	88e3      	ldrh	r3, [r4, #6]
200046a8:	4428      	add	r0, r5
200046aa:	b280      	uxth	r0, r0
200046ac:	4429      	add	r1, r5
200046ae:	4283      	cmp	r3, r0
200046b0:	81e0      	strh	r0, [r4, #14]
200046b2:	60a1      	str	r1, [r4, #8]
200046b4:	d016      	beq.n	200046e4 <usbd_control_xfer_cb+0x9c>
200046b6:	2d3f      	cmp	r5, #63	@ 0x3f
200046b8:	d914      	bls.n	200046e4 <usbd_control_xfer_cb+0x9c>
200046ba:	89a2      	ldrh	r2, [r4, #12]
200046bc:	f994 4000 	ldrsb.w	r4, [r4]
200046c0:	1a13      	subs	r3, r2, r0
200046c2:	b29b      	uxth	r3, r3
200046c4:	2b40      	cmp	r3, #64	@ 0x40
200046c6:	bf28      	it	cs
200046c8:	2340      	movcs	r3, #64	@ 0x40
200046ca:	2c00      	cmp	r4, #0
200046cc:	db26      	blt.n	2000471c <usbd_control_xfer_cb+0xd4>
200046ce:	4290      	cmp	r0, r2
200046d0:	f04f 0100 	mov.w	r1, #0
200046d4:	d030      	beq.n	20004738 <usbd_control_xfer_cb+0xf0>
200046d6:	4a1a      	ldr	r2, [pc, #104]	@ (20004740 <usbd_control_xfer_cb+0xf8>)
200046d8:	4630      	mov	r0, r6
200046da:	f7ff feef 	bl	200044bc <usbd_edpt_xfer>
200046de:	2800      	cmp	r0, #0
200046e0:	d1d1      	bne.n	20004686 <usbd_control_xfer_cb+0x3e>
200046e2:	e7bc      	b.n	2000465e <usbd_control_xfer_cb+0x16>
200046e4:	6923      	ldr	r3, [r4, #16]
200046e6:	b123      	cbz	r3, 200046f2 <usbd_control_xfer_cb+0xaa>
200046e8:	2102      	movs	r1, #2
200046ea:	4630      	mov	r0, r6
200046ec:	4a13      	ldr	r2, [pc, #76]	@ (2000473c <usbd_control_xfer_cb+0xf4>)
200046ee:	4798      	blx	r3
200046f0:	b158      	cbz	r0, 2000470a <usbd_control_xfer_cb+0xc2>
200046f2:	7821      	ldrb	r1, [r4, #0]
200046f4:	2300      	movs	r3, #0
200046f6:	43c9      	mvns	r1, r1
200046f8:	4630      	mov	r0, r6
200046fa:	461a      	mov	r2, r3
200046fc:	f001 0180 	and.w	r1, r1, #128	@ 0x80
20004700:	f7ff fedc 	bl	200044bc <usbd_edpt_xfer>
20004704:	2800      	cmp	r0, #0
20004706:	d1be      	bne.n	20004686 <usbd_control_xfer_cb+0x3e>
20004708:	e7a9      	b.n	2000465e <usbd_control_xfer_cb+0x16>
2000470a:	4601      	mov	r1, r0
2000470c:	4630      	mov	r0, r6
2000470e:	f7ff f91b 	bl	20003948 <dcd_edpt_stall>
20004712:	2180      	movs	r1, #128	@ 0x80
20004714:	4630      	mov	r0, r6
20004716:	f7ff f917 	bl	20003948 <dcd_edpt_stall>
2000471a:	e7b4      	b.n	20004686 <usbd_control_xfer_cb+0x3e>
2000471c:	4290      	cmp	r0, r2
2000471e:	d008      	beq.n	20004732 <usbd_control_xfer_cb+0xea>
20004720:	461a      	mov	r2, r3
20004722:	4807      	ldr	r0, [pc, #28]	@ (20004740 <usbd_control_xfer_cb+0xf8>)
20004724:	9301      	str	r3, [sp, #4]
20004726:	f003 fdcf 	bl	200082c8 <memcpy>
2000472a:	2180      	movs	r1, #128	@ 0x80
2000472c:	4a04      	ldr	r2, [pc, #16]	@ (20004740 <usbd_control_xfer_cb+0xf8>)
2000472e:	9b01      	ldr	r3, [sp, #4]
20004730:	e7d2      	b.n	200046d8 <usbd_control_xfer_cb+0x90>
20004732:	2180      	movs	r1, #128	@ 0x80
20004734:	2200      	movs	r2, #0
20004736:	e7cf      	b.n	200046d8 <usbd_control_xfer_cb+0x90>
20004738:	460a      	mov	r2, r1
2000473a:	e7cd      	b.n	200046d8 <usbd_control_xfer_cb+0x90>
2000473c:	2000ae9c 	.word	0x2000ae9c
20004740:	2000ae5c 	.word	0x2000ae5c

20004744 <_prep_out_transaction.isra.0>:
20004744:	e92d 41f0 	stmdb	sp!, {r4, r5, r6, r7, r8, lr}
20004748:	4605      	mov	r5, r0
2000474a:	f7ff f9c1 	bl	20003ad0 <tud_mounted>
2000474e:	b908      	cbnz	r0, 20004754 <_prep_out_transaction.isra.0+0x10>
20004750:	e8bd 81f0 	ldmia.w	sp!, {r4, r5, r6, r7, r8, pc}
20004754:	f7ff f9c4 	bl	20003ae0 <tud_suspended>
20004758:	4607      	mov	r7, r0
2000475a:	2800      	cmp	r0, #0
2000475c:	d1f8      	bne.n	20004750 <_prep_out_transaction.isra.0+0xc>
2000475e:	f241 0388 	movw	r3, #4232	@ 0x1088
20004762:	fb05 f303 	mul.w	r3, r5, r3
20004766:	4c13      	ldr	r4, [pc, #76]	@ (200047b4 <_prep_out_transaction.isra.0+0x70>)
20004768:	18e6      	adds	r6, r4, r3
2000476a:	78f1      	ldrb	r1, [r6, #3]
2000476c:	2900      	cmp	r1, #0
2000476e:	d0ef      	beq.n	20004750 <_prep_out_transaction.isra.0+0xc>
20004770:	3310      	adds	r3, #16
20004772:	441c      	add	r4, r3
20004774:	4620      	mov	r0, r4
20004776:	f001 f81d 	bl	200057b4 <tu_fifo_remaining>
2000477a:	283f      	cmp	r0, #63	@ 0x3f
2000477c:	d9e8      	bls.n	20004750 <_prep_out_transaction.isra.0+0xc>
2000477e:	4638      	mov	r0, r7
20004780:	78f1      	ldrb	r1, [r6, #3]
20004782:	f7ff fe77 	bl	20004474 <usbd_edpt_claim>
20004786:	2800      	cmp	r0, #0
20004788:	d0e2      	beq.n	20004750 <_prep_out_transaction.isra.0+0xc>
2000478a:	4620      	mov	r0, r4
2000478c:	f001 f812 	bl	200057b4 <tu_fifo_remaining>
20004790:	283f      	cmp	r0, #63	@ 0x3f
20004792:	d909      	bls.n	200047a8 <_prep_out_transaction.isra.0+0x64>
20004794:	4a08      	ldr	r2, [pc, #32]	@ (200047b8 <_prep_out_transaction.isra.0+0x74>)
20004796:	4638      	mov	r0, r7
20004798:	78f1      	ldrb	r1, [r6, #3]
2000479a:	eb02 12c5 	add.w	r2, r2, r5, lsl #7
2000479e:	2340      	movs	r3, #64	@ 0x40
200047a0:	e8bd 41f0 	ldmia.w	sp!, {r4, r5, r6, r7, r8, lr}
200047a4:	f7ff be8a 	b.w	200044bc <usbd_edpt_xfer>
200047a8:	4638      	mov	r0, r7
200047aa:	78f1      	ldrb	r1, [r6, #3]
200047ac:	e8bd 41f0 	ldmia.w	sp!, {r4, r5, r6, r7, r8, lr}
200047b0:	f7ff be72 	b.w	20004498 <usbd_edpt_release>
200047b4:	200097e8 	.word	0x200097e8
200047b8:	2000add8 	.word	0x2000add8

200047bc <tud_cdc_n_connected>:
200047bc:	b510      	push	{r4, lr}
200047be:	4604      	mov	r4, r0
200047c0:	f7ff f986 	bl	20003ad0 <tud_mounted>
200047c4:	b908      	cbnz	r0, 200047ca <tud_cdc_n_connected+0xe>
200047c6:	2000      	movs	r0, #0
200047c8:	bd10      	pop	{r4, pc}
200047ca:	f7ff f989 	bl	20003ae0 <tud_suspended>
200047ce:	2800      	cmp	r0, #0
200047d0:	d1f9      	bne.n	200047c6 <tud_cdc_n_connected+0xa>
200047d2:	f241 0288 	movw	r2, #4232	@ 0x1088
200047d6:	4b03      	ldr	r3, [pc, #12]	@ (200047e4 <tud_cdc_n_connected+0x28>)
200047d8:	fb02 3304 	mla	r3, r2, r4, r3
200047dc:	7918      	ldrb	r0, [r3, #4]
200047de:	f000 0001 	and.w	r0, r0, #1
200047e2:	bd10      	pop	{r4, pc}
200047e4:	200097e8 	.word	0x200097e8

200047e8 <tud_cdc_n_available>:
200047e8:	f241 0288 	movw	r2, #4232	@ 0x1088
200047ec:	b508      	push	{r3, lr}
200047ee:	4b03      	ldr	r3, [pc, #12]	@ (200047fc <tud_cdc_n_available+0x14>)
200047f0:	fb02 3000 	mla	r0, r2, r0, r3
200047f4:	f000 ffc4 	bl	20005780 <tu_fifo_count>
200047f8:	bd08      	pop	{r3, pc}
200047fa:	bf00      	nop
200047fc:	200097f8 	.word	0x200097f8

20004800 <tud_cdc_n_read>:
20004800:	e92d 43f8 	stmdb	sp!, {r3, r4, r5, r6, r7, r8, r9, lr}
20004804:	f64f 73ff 	movw	r3, #65535	@ 0xffff
20004808:	f241 0488 	movw	r4, #4232	@ 0x1088
2000480c:	429a      	cmp	r2, r3
2000480e:	bf28      	it	cs
20004810:	461a      	movcs	r2, r3
20004812:	fb00 f404 	mul.w	r4, r0, r4
20004816:	f8df 8074 	ldr.w	r8, [pc, #116]	@ 2000488c <tud_cdc_n_read+0x8c>
2000481a:	f104 0510 	add.w	r5, r4, #16
2000481e:	4445      	add	r5, r8
20004820:	4606      	mov	r6, r0
20004822:	b292      	uxth	r2, r2
20004824:	4628      	mov	r0, r5
20004826:	f001 f821 	bl	2000586c <tu_fifo_read_n>
2000482a:	4607      	mov	r7, r0
2000482c:	f7ff f950 	bl	20003ad0 <tud_mounted>
20004830:	b910      	cbnz	r0, 20004838 <tud_cdc_n_read+0x38>
20004832:	4638      	mov	r0, r7
20004834:	e8bd 83f8 	ldmia.w	sp!, {r3, r4, r5, r6, r7, r8, r9, pc}
20004838:	f7ff f952 	bl	20003ae0 <tud_suspended>
2000483c:	4681      	mov	r9, r0
2000483e:	2800      	cmp	r0, #0
20004840:	d1f7      	bne.n	20004832 <tud_cdc_n_read+0x32>
20004842:	4444      	add	r4, r8
20004844:	78e3      	ldrb	r3, [r4, #3]
20004846:	2b00      	cmp	r3, #0
20004848:	d0f3      	beq.n	20004832 <tud_cdc_n_read+0x32>
2000484a:	4628      	mov	r0, r5
2000484c:	f000 ffb2 	bl	200057b4 <tu_fifo_remaining>
20004850:	283f      	cmp	r0, #63	@ 0x3f
20004852:	d9ee      	bls.n	20004832 <tud_cdc_n_read+0x32>
20004854:	4648      	mov	r0, r9
20004856:	78e1      	ldrb	r1, [r4, #3]
20004858:	f7ff fe0c 	bl	20004474 <usbd_edpt_claim>
2000485c:	2800      	cmp	r0, #0
2000485e:	d0e8      	beq.n	20004832 <tud_cdc_n_read+0x32>
20004860:	4628      	mov	r0, r5
20004862:	f000 ffa7 	bl	200057b4 <tu_fifo_remaining>
20004866:	283f      	cmp	r0, #63	@ 0x3f
20004868:	d908      	bls.n	2000487c <tud_cdc_n_read+0x7c>
2000486a:	4a07      	ldr	r2, [pc, #28]	@ (20004888 <tud_cdc_n_read+0x88>)
2000486c:	4648      	mov	r0, r9
2000486e:	2340      	movs	r3, #64	@ 0x40
20004870:	78e1      	ldrb	r1, [r4, #3]
20004872:	eb02 12c6 	add.w	r2, r2, r6, lsl #7
20004876:	f7ff fe21 	bl	200044bc <usbd_edpt_xfer>
2000487a:	e7da      	b.n	20004832 <tud_cdc_n_read+0x32>
2000487c:	4648      	mov	r0, r9
2000487e:	78e1      	ldrb	r1, [r4, #3]
20004880:	f7ff fe0a 	bl	20004498 <usbd_edpt_release>
20004884:	e7d5      	b.n	20004832 <tud_cdc_n_read+0x32>
20004886:	bf00      	nop
20004888:	2000add8 	.word	0x2000add8
2000488c:	200097e8 	.word	0x200097e8

20004890 <tud_cdc_n_read_flush>:
20004890:	e92d 41f0 	stmdb	sp!, {r4, r5, r6, r7, r8, lr}
20004894:	f241 0488 	movw	r4, #4232	@ 0x1088
20004898:	fb00 f404 	mul.w	r4, r0, r4
2000489c:	4e1a      	ldr	r6, [pc, #104]	@ (20004908 <tud_cdc_n_read_flush+0x78>)
2000489e:	f104 0510 	add.w	r5, r4, #16
200048a2:	4435      	add	r5, r6
200048a4:	4607      	mov	r7, r0
200048a6:	4628      	mov	r0, r5
200048a8:	f001 f948 	bl	20005b3c <tu_fifo_clear>
200048ac:	f7ff f910 	bl	20003ad0 <tud_mounted>
200048b0:	b908      	cbnz	r0, 200048b6 <tud_cdc_n_read_flush+0x26>
200048b2:	e8bd 81f0 	ldmia.w	sp!, {r4, r5, r6, r7, r8, pc}
200048b6:	f7ff f913 	bl	20003ae0 <tud_suspended>
200048ba:	4680      	mov	r8, r0
200048bc:	2800      	cmp	r0, #0
200048be:	d1f8      	bne.n	200048b2 <tud_cdc_n_read_flush+0x22>
200048c0:	4426      	add	r6, r4
200048c2:	78f3      	ldrb	r3, [r6, #3]
200048c4:	2b00      	cmp	r3, #0
200048c6:	d0f4      	beq.n	200048b2 <tud_cdc_n_read_flush+0x22>
200048c8:	4628      	mov	r0, r5
200048ca:	f000 ff73 	bl	200057b4 <tu_fifo_remaining>
200048ce:	283f      	cmp	r0, #63	@ 0x3f
200048d0:	d9ef      	bls.n	200048b2 <tud_cdc_n_read_flush+0x22>
200048d2:	4640      	mov	r0, r8
200048d4:	78f1      	ldrb	r1, [r6, #3]
200048d6:	f7ff fdcd 	bl	20004474 <usbd_edpt_claim>
200048da:	2800      	cmp	r0, #0
200048dc:	d0e9      	beq.n	200048b2 <tud_cdc_n_read_flush+0x22>
200048de:	4628      	mov	r0, r5
200048e0:	f000 ff68 	bl	200057b4 <tu_fifo_remaining>
200048e4:	283f      	cmp	r0, #63	@ 0x3f
200048e6:	d909      	bls.n	200048fc <tud_cdc_n_read_flush+0x6c>
200048e8:	4a08      	ldr	r2, [pc, #32]	@ (2000490c <tud_cdc_n_read_flush+0x7c>)
200048ea:	4640      	mov	r0, r8
200048ec:	78f1      	ldrb	r1, [r6, #3]
200048ee:	eb02 12c7 	add.w	r2, r2, r7, lsl #7
200048f2:	2340      	movs	r3, #64	@ 0x40
200048f4:	e8bd 41f0 	ldmia.w	sp!, {r4, r5, r6, r7, r8, lr}
200048f8:	f7ff bde0 	b.w	200044bc <usbd_edpt_xfer>
200048fc:	4640      	mov	r0, r8
200048fe:	78f1      	ldrb	r1, [r6, #3]
20004900:	e8bd 41f0 	ldmia.w	sp!, {r4, r5, r6, r7, r8, lr}
20004904:	f7ff bdc8 	b.w	20004498 <usbd_edpt_release>
20004908:	200097e8 	.word	0x200097e8
2000490c:	2000add8 	.word	0x2000add8

20004910 <tud_cdc_n_write_flush>:
20004910:	e92d 41f0 	stmdb	sp!, {r4, r5, r6, r7, r8, lr}
20004914:	4606      	mov	r6, r0
20004916:	f7ff f8db 	bl	20003ad0 <tud_mounted>
2000491a:	b910      	cbnz	r0, 20004922 <tud_cdc_n_write_flush+0x12>
2000491c:	2000      	movs	r0, #0
2000491e:	e8bd 81f0 	ldmia.w	sp!, {r4, r5, r6, r7, r8, pc}
20004922:	f7ff f8dd 	bl	20003ae0 <tud_suspended>
20004926:	4607      	mov	r7, r0
20004928:	2800      	cmp	r0, #0
2000492a:	d1f7      	bne.n	2000491c <tud_cdc_n_write_flush+0xc>
2000492c:	f241 0488 	movw	r4, #4232	@ 0x1088
20004930:	fb06 f404 	mul.w	r4, r6, r4
20004934:	f8df 8068 	ldr.w	r8, [pc, #104]	@ 200049a0 <tud_cdc_n_write_flush+0x90>
20004938:	f104 0524 	add.w	r5, r4, #36	@ 0x24
2000493c:	4445      	add	r5, r8
2000493e:	4628      	mov	r0, r5
20004940:	f000 ff1e 	bl	20005780 <tu_fifo_count>
20004944:	2800      	cmp	r0, #0
20004946:	d0e9      	beq.n	2000491c <tud_cdc_n_write_flush+0xc>
20004948:	44a0      	add	r8, r4
2000494a:	4638      	mov	r0, r7
2000494c:	f898 1002 	ldrb.w	r1, [r8, #2]
20004950:	f7ff fd90 	bl	20004474 <usbd_edpt_claim>
20004954:	2800      	cmp	r0, #0
20004956:	d0e1      	beq.n	2000491c <tud_cdc_n_write_flush+0xc>
20004958:	2240      	movs	r2, #64	@ 0x40
2000495a:	4b10      	ldr	r3, [pc, #64]	@ (2000499c <tud_cdc_n_write_flush+0x8c>)
2000495c:	eb02 14c6 	add.w	r4, r2, r6, lsl #7
20004960:	441c      	add	r4, r3
20004962:	4628      	mov	r0, r5
20004964:	4621      	mov	r1, r4
20004966:	f000 ff81 	bl	2000586c <tu_fifo_read_n>
2000496a:	4605      	mov	r5, r0
2000496c:	b188      	cbz	r0, 20004992 <tud_cdc_n_write_flush+0x82>
2000496e:	4603      	mov	r3, r0
20004970:	4622      	mov	r2, r4
20004972:	4638      	mov	r0, r7
20004974:	f898 1002 	ldrb.w	r1, [r8, #2]
20004978:	f7ff fda0 	bl	200044bc <usbd_edpt_xfer>
2000497c:	b938      	cbnz	r0, 2000498e <tud_cdc_n_write_flush+0x7e>
2000497e:	f04f 23e0 	mov.w	r3, #3758153728	@ 0xe000e000
20004982:	f8d3 3df0 	ldr.w	r3, [r3, #3568]	@ 0xdf0
20004986:	07db      	lsls	r3, r3, #31
20004988:	d5c8      	bpl.n	2000491c <tud_cdc_n_write_flush+0xc>
2000498a:	be00      	bkpt	0x0000
2000498c:	e7c6      	b.n	2000491c <tud_cdc_n_write_flush+0xc>
2000498e:	4628      	mov	r0, r5
20004990:	e7c5      	b.n	2000491e <tud_cdc_n_write_flush+0xe>
20004992:	f898 1002 	ldrb.w	r1, [r8, #2]
20004996:	f7ff fd7f 	bl	20004498 <usbd_edpt_release>
2000499a:	e7bf      	b.n	2000491c <tud_cdc_n_write_flush+0xc>
2000499c:	2000add8 	.word	0x2000add8
200049a0:	200097e8 	.word	0x200097e8

200049a4 <tud_cdc_n_write>:
200049a4:	b538      	push	{r3, r4, r5, lr}
200049a6:	f64f 75ff 	movw	r5, #65535	@ 0xffff
200049aa:	f241 0388 	movw	r3, #4232	@ 0x1088
200049ae:	42aa      	cmp	r2, r5
200049b0:	bf28      	it	cs
200049b2:	462a      	movcs	r2, r5
200049b4:	4c0a      	ldr	r4, [pc, #40]	@ (200049e0 <tud_cdc_n_write+0x3c>)
200049b6:	b292      	uxth	r2, r2
200049b8:	fb03 4400 	mla	r4, r3, r0, r4
200049bc:	4605      	mov	r5, r0
200049be:	4620      	mov	r0, r4
200049c0:	f001 f810 	bl	200059e4 <tu_fifo_write_n>
200049c4:	4603      	mov	r3, r0
200049c6:	4620      	mov	r0, r4
200049c8:	461c      	mov	r4, r3
200049ca:	f000 fed9 	bl	20005780 <tu_fifo_count>
200049ce:	283f      	cmp	r0, #63	@ 0x3f
200049d0:	d801      	bhi.n	200049d6 <tud_cdc_n_write+0x32>
200049d2:	4620      	mov	r0, r4
200049d4:	bd38      	pop	{r3, r4, r5, pc}
200049d6:	4628      	mov	r0, r5
200049d8:	f7ff ff9a 	bl	20004910 <tud_cdc_n_write_flush>
200049dc:	4620      	mov	r0, r4
200049de:	bd38      	pop	{r3, r4, r5, pc}
200049e0:	2000980c 	.word	0x2000980c

200049e4 <tud_cdc_n_write_available>:
200049e4:	f241 0288 	movw	r2, #4232	@ 0x1088
200049e8:	b508      	push	{r3, lr}
200049ea:	4b03      	ldr	r3, [pc, #12]	@ (200049f8 <tud_cdc_n_write_available+0x14>)
200049ec:	fb02 3000 	mla	r0, r2, r0, r3
200049f0:	f000 fee0 	bl	200057b4 <tu_fifo_remaining>
200049f4:	bd08      	pop	{r3, pc}
200049f6:	bf00      	nop
200049f8:	2000980c 	.word	0x2000980c

200049fc <tud_cdc_n_write_clear>:
200049fc:	f241 0288 	movw	r2, #4232	@ 0x1088
20004a00:	4b02      	ldr	r3, [pc, #8]	@ (20004a0c <tud_cdc_n_write_clear+0x10>)
20004a02:	fb02 3000 	mla	r0, r2, r0, r3
20004a06:	f001 b899 	b.w	20005b3c <tu_fifo_clear>
20004a0a:	bf00      	nop
20004a0c:	2000980c 	.word	0x2000980c

20004a10 <cdcd_init>:
20004a10:	b5f0      	push	{r4, r5, r6, r7, lr}
20004a12:	4c1a      	ldr	r4, [pc, #104]	@ (20004a7c <cdcd_init+0x6c>)
20004a14:	b083      	sub	sp, #12
20004a16:	f241 0288 	movw	r2, #4232	@ 0x1088
20004a1a:	2100      	movs	r1, #0
20004a1c:	4620      	mov	r0, r4
20004a1e:	f003 fc01 	bl	20008224 <memset>
20004a22:	2500      	movs	r5, #0
20004a24:	23ff      	movs	r3, #255	@ 0xff
20004a26:	f44f 31e1 	mov.w	r1, #115200	@ 0x1c200
20004a2a:	2208      	movs	r2, #8
20004a2c:	4814      	ldr	r0, [pc, #80]	@ (20004a80 <cdcd_init+0x70>)
20004a2e:	4f15      	ldr	r7, [pc, #84]	@ (20004a84 <cdcd_init+0x74>)
20004a30:	7005      	strb	r5, [r0, #0]
20004a32:	9500      	str	r5, [sp, #0]
20004a34:	f104 0010 	add.w	r0, r4, #16
20004a38:	7163      	strb	r3, [r4, #5]
20004a3a:	60a1      	str	r1, [r4, #8]
20004a3c:	73a2      	strb	r2, [r4, #14]
20004a3e:	f104 0138 	add.w	r1, r4, #56	@ 0x38
20004a42:	2301      	movs	r3, #1
20004a44:	2240      	movs	r2, #64	@ 0x40
20004a46:	f000 fe6b 	bl	20005720 <tu_fifo_config>
20004a4a:	2301      	movs	r3, #1
20004a4c:	f44f 5280 	mov.w	r2, #4096	@ 0x1000
20004a50:	f104 0178 	add.w	r1, r4, #120	@ 0x78
20004a54:	9300      	str	r3, [sp, #0]
20004a56:	f104 0024 	add.w	r0, r4, #36	@ 0x24
20004a5a:	f000 fe61 	bl	20005720 <tu_fifo_config>
20004a5e:	f504 5684 	add.w	r6, r4, #4224	@ 0x1080
20004a62:	4638      	mov	r0, r7
20004a64:	f7fd f900 	bl	20001c68 <mutex_init>
20004a68:	4630      	mov	r0, r6
20004a6a:	f7fd f8fd 	bl	20001c68 <mutex_init>
20004a6e:	e9c4 5707 	strd	r5, r7, [r4, #28]
20004a72:	e9c4 650c 	strd	r6, r5, [r4, #48]	@ 0x30
20004a76:	b003      	add	sp, #12
20004a78:	bdf0      	pop	{r4, r5, r6, r7, pc}
20004a7a:	bf00      	nop
20004a7c:	200097e8 	.word	0x200097e8
20004a80:	2000ae58 	.word	0x2000ae58
20004a84:	2000a860 	.word	0x2000a860

20004a88 <cdcd_deinit>:
20004a88:	4b09      	ldr	r3, [pc, #36]	@ (20004ab0 <cdcd_deinit+0x28>)
20004a8a:	6b19      	ldr	r1, [r3, #48]	@ 0x30
20004a8c:	b149      	cbz	r1, 20004aa2 <cdcd_deinit+0x1a>
20004a8e:	6a1a      	ldr	r2, [r3, #32]
20004a90:	b112      	cbz	r2, 20004a98 <cdcd_deinit+0x10>
20004a92:	2200      	movs	r2, #0
20004a94:	e9c3 2207 	strd	r2, r2, [r3, #28]
20004a98:	2200      	movs	r2, #0
20004a9a:	e9c3 220c 	strd	r2, r2, [r3, #48]	@ 0x30
20004a9e:	2001      	movs	r0, #1
20004aa0:	4770      	bx	lr
20004aa2:	6a1a      	ldr	r2, [r3, #32]
20004aa4:	2a00      	cmp	r2, #0
20004aa6:	d0fa      	beq.n	20004a9e <cdcd_deinit+0x16>
20004aa8:	2001      	movs	r0, #1
20004aaa:	e9c3 1107 	strd	r1, r1, [r3, #28]
20004aae:	4770      	bx	lr
20004ab0:	200097e8 	.word	0x200097e8

20004ab4 <cdcd_reset>:
20004ab4:	2200      	movs	r2, #0
20004ab6:	b510      	push	{r4, lr}
20004ab8:	4c0e      	ldr	r4, [pc, #56]	@ (20004af4 <cdcd_reset+0x40>)
20004aba:	480f      	ldr	r0, [pc, #60]	@ (20004af8 <cdcd_reset+0x44>)
20004abc:	7823      	ldrb	r3, [r4, #0]
20004abe:	6002      	str	r2, [r0, #0]
20004ac0:	7102      	strb	r2, [r0, #4]
20004ac2:	07da      	lsls	r2, r3, #31
20004ac4:	d507      	bpl.n	20004ad6 <cdcd_reset+0x22>
20004ac6:	079b      	lsls	r3, r3, #30
20004ac8:	d50b      	bpl.n	20004ae2 <cdcd_reset+0x2e>
20004aca:	e8bd 4010 	ldmia.w	sp!, {r4, lr}
20004ace:	2101      	movs	r1, #1
20004ad0:	480a      	ldr	r0, [pc, #40]	@ (20004afc <cdcd_reset+0x48>)
20004ad2:	f001 b84f 	b.w	20005b74 <tu_fifo_set_overwritable>
20004ad6:	3010      	adds	r0, #16
20004ad8:	f001 f830 	bl	20005b3c <tu_fifo_clear>
20004adc:	7823      	ldrb	r3, [r4, #0]
20004ade:	079b      	lsls	r3, r3, #30
20004ae0:	d4f3      	bmi.n	20004aca <cdcd_reset+0x16>
20004ae2:	4806      	ldr	r0, [pc, #24]	@ (20004afc <cdcd_reset+0x48>)
20004ae4:	f001 f82a 	bl	20005b3c <tu_fifo_clear>
20004ae8:	e8bd 4010 	ldmia.w	sp!, {r4, lr}
20004aec:	2101      	movs	r1, #1
20004aee:	4803      	ldr	r0, [pc, #12]	@ (20004afc <cdcd_reset+0x48>)
20004af0:	f001 b840 	b.w	20005b74 <tu_fifo_set_overwritable>
20004af4:	2000ae58 	.word	0x2000ae58
20004af8:	200097e8 	.word	0x200097e8
20004afc:	2000980c 	.word	0x2000980c

20004b00 <cdcd_open>:
20004b00:	b5f0      	push	{r4, r5, r6, r7, lr}
20004b02:	794b      	ldrb	r3, [r1, #5]
20004b04:	b083      	sub	sp, #12
20004b06:	2b02      	cmp	r3, #2
20004b08:	d003      	beq.n	20004b12 <cdcd_open+0x12>
20004b0a:	2500      	movs	r5, #0
20004b0c:	4628      	mov	r0, r5
20004b0e:	b003      	add	sp, #12
20004b10:	bdf0      	pop	{r4, r5, r6, r7, pc}
20004b12:	798b      	ldrb	r3, [r1, #6]
20004b14:	2b02      	cmp	r3, #2
20004b16:	d1f8      	bne.n	20004b0a <cdcd_open+0xa>
20004b18:	4f26      	ldr	r7, [pc, #152]	@ (20004bb4 <cdcd_open+0xb4>)
20004b1a:	78bb      	ldrb	r3, [r7, #2]
20004b1c:	b13b      	cbz	r3, 20004b2e <cdcd_open+0x2e>
20004b1e:	f04f 23e0 	mov.w	r3, #3758153728	@ 0xe000e000
20004b22:	f8d3 3df0 	ldr.w	r3, [r3, #3568]	@ 0xdf0
20004b26:	07db      	lsls	r3, r3, #31
20004b28:	d5ef      	bpl.n	20004b0a <cdcd_open+0xa>
20004b2a:	be00      	bkpt	0x0000
20004b2c:	e7ed      	b.n	20004b0a <cdcd_open+0xa>
20004b2e:	788b      	ldrb	r3, [r1, #2]
20004b30:	4606      	mov	r6, r0
20004b32:	703b      	strb	r3, [r7, #0]
20004b34:	780b      	ldrb	r3, [r1, #0]
20004b36:	2509      	movs	r5, #9
20004b38:	18cc      	adds	r4, r1, r3
20004b3a:	7861      	ldrb	r1, [r4, #1]
20004b3c:	2924      	cmp	r1, #36	@ 0x24
20004b3e:	d10b      	bne.n	20004b58 <cdcd_open+0x58>
20004b40:	2a08      	cmp	r2, #8
20004b42:	d802      	bhi.n	20004b4a <cdcd_open+0x4a>
20004b44:	e00f      	b.n	20004b66 <cdcd_open+0x66>
20004b46:	42aa      	cmp	r2, r5
20004b48:	d30d      	bcc.n	20004b66 <cdcd_open+0x66>
20004b4a:	7823      	ldrb	r3, [r4, #0]
20004b4c:	441c      	add	r4, r3
20004b4e:	7861      	ldrb	r1, [r4, #1]
20004b50:	442b      	add	r3, r5
20004b52:	2924      	cmp	r1, #36	@ 0x24
20004b54:	b29d      	uxth	r5, r3
20004b56:	d0f6      	beq.n	20004b46 <cdcd_open+0x46>
20004b58:	2905      	cmp	r1, #5
20004b5a:	d00a      	beq.n	20004b72 <cdcd_open+0x72>
20004b5c:	2904      	cmp	r1, #4
20004b5e:	d102      	bne.n	20004b66 <cdcd_open+0x66>
20004b60:	7963      	ldrb	r3, [r4, #5]
20004b62:	2b0a      	cmp	r3, #10
20004b64:	d013      	beq.n	20004b8e <cdcd_open+0x8e>
20004b66:	2000      	movs	r0, #0
20004b68:	f7ff fdec 	bl	20004744 <_prep_out_transaction.isra.0>
20004b6c:	4628      	mov	r0, r5
20004b6e:	b003      	add	sp, #12
20004b70:	bdf0      	pop	{r4, r5, r6, r7, pc}
20004b72:	4621      	mov	r1, r4
20004b74:	4630      	mov	r0, r6
20004b76:	f7ff fc5b 	bl	20004430 <usbd_edpt_open>
20004b7a:	2800      	cmp	r0, #0
20004b7c:	d0cf      	beq.n	20004b1e <cdcd_open+0x1e>
20004b7e:	78a3      	ldrb	r3, [r4, #2]
20004b80:	707b      	strb	r3, [r7, #1]
20004b82:	7823      	ldrb	r3, [r4, #0]
20004b84:	441c      	add	r4, r3
20004b86:	442b      	add	r3, r5
20004b88:	7861      	ldrb	r1, [r4, #1]
20004b8a:	b29d      	uxth	r5, r3
20004b8c:	e7e6      	b.n	20004b5c <cdcd_open+0x5c>
20004b8e:	4b0a      	ldr	r3, [pc, #40]	@ (20004bb8 <cdcd_open+0xb8>)
20004b90:	7827      	ldrb	r7, [r4, #0]
20004b92:	9301      	str	r3, [sp, #4]
20004b94:	3301      	adds	r3, #1
20004b96:	9300      	str	r3, [sp, #0]
20004b98:	2302      	movs	r3, #2
20004b9a:	4630      	mov	r0, r6
20004b9c:	461a      	mov	r2, r3
20004b9e:	19e1      	adds	r1, r4, r7
20004ba0:	f7ff fbf8 	bl	20004394 <usbd_open_edpt_pair>
20004ba4:	2800      	cmp	r0, #0
20004ba6:	d0ba      	beq.n	20004b1e <cdcd_open+0x1e>
20004ba8:	350e      	adds	r5, #14
20004baa:	fa17 f585 	uxtah	r5, r7, r5
20004bae:	b2ad      	uxth	r5, r5
20004bb0:	e7d9      	b.n	20004b66 <cdcd_open+0x66>
20004bb2:	bf00      	nop
20004bb4:	200097e8 	.word	0x200097e8
20004bb8:	200097ea 	.word	0x200097ea

20004bbc <cdcd_control_xfer_cb>:
20004bbc:	7813      	ldrb	r3, [r2, #0]
20004bbe:	f003 0360 	and.w	r3, r3, #96	@ 0x60
20004bc2:	2b20      	cmp	r3, #32
20004bc4:	d108      	bne.n	20004bd8 <cdcd_control_xfer_cb+0x1c>
20004bc6:	b570      	push	{r4, r5, r6, lr}
20004bc8:	4c26      	ldr	r4, [pc, #152]	@ (20004c64 <cdcd_control_xfer_cb+0xa8>)
20004bca:	8893      	ldrh	r3, [r2, #4]
20004bcc:	f894 c000 	ldrb.w	ip, [r4]
20004bd0:	459c      	cmp	ip, r3
20004bd2:	d003      	beq.n	20004bdc <cdcd_control_xfer_cb+0x20>
20004bd4:	2000      	movs	r0, #0
20004bd6:	bd70      	pop	{r4, r5, r6, pc}
20004bd8:	2000      	movs	r0, #0
20004bda:	4770      	bx	lr
20004bdc:	7853      	ldrb	r3, [r2, #1]
20004bde:	3b20      	subs	r3, #32
20004be0:	2b03      	cmp	r3, #3
20004be2:	d8f7      	bhi.n	20004bd4 <cdcd_control_xfer_cb+0x18>
20004be4:	e8df f003 	tbb	[pc, r3]
20004be8:	020d2327 	.word	0x020d2327
20004bec:	2901      	cmp	r1, #1
20004bee:	d02e      	beq.n	20004c4e <cdcd_control_xfer_cb+0x92>
20004bf0:	2903      	cmp	r1, #3
20004bf2:	d11e      	bne.n	20004c32 <cdcd_control_xfer_cb+0x76>
20004bf4:	4b1c      	ldr	r3, [pc, #112]	@ (20004c68 <cdcd_control_xfer_cb+0xac>)
20004bf6:	b1e3      	cbz	r3, 20004c32 <cdcd_control_xfer_cb+0x76>
20004bf8:	2000      	movs	r0, #0
20004bfa:	8851      	ldrh	r1, [r2, #2]
20004bfc:	f7fb fea8 	bl	20000950 <tud_cdc_send_break_cb>
20004c00:	e017      	b.n	20004c32 <cdcd_control_xfer_cb+0x76>
20004c02:	2901      	cmp	r1, #1
20004c04:	d023      	beq.n	20004c4e <cdcd_control_xfer_cb+0x92>
20004c06:	2903      	cmp	r1, #3
20004c08:	d113      	bne.n	20004c32 <cdcd_control_xfer_cb+0x76>
20004c0a:	8855      	ldrh	r5, [r2, #2]
20004c0c:	4817      	ldr	r0, [pc, #92]	@ (20004c6c <cdcd_control_xfer_cb+0xb0>)
20004c0e:	f005 0601 	and.w	r6, r5, #1
20004c12:	f086 0101 	eor.w	r1, r6, #1
20004c16:	7125      	strb	r5, [r4, #4]
20004c18:	f000 ffac 	bl	20005b74 <tu_fifo_set_overwritable>
20004c1c:	4b14      	ldr	r3, [pc, #80]	@ (20004c70 <cdcd_control_xfer_cb+0xb4>)
20004c1e:	b143      	cbz	r3, 20004c32 <cdcd_control_xfer_cb+0x76>
20004c20:	4631      	mov	r1, r6
20004c22:	2000      	movs	r0, #0
20004c24:	f3c5 0240 	ubfx	r2, r5, #1, #1
20004c28:	f7fb fe88 	bl	2000093c <tud_cdc_line_state_cb>
20004c2c:	e001      	b.n	20004c32 <cdcd_control_xfer_cb+0x76>
20004c2e:	2901      	cmp	r1, #1
20004c30:	d011      	beq.n	20004c56 <cdcd_control_xfer_cb+0x9a>
20004c32:	2001      	movs	r0, #1
20004c34:	bd70      	pop	{r4, r5, r6, pc}
20004c36:	2901      	cmp	r1, #1
20004c38:	d00d      	beq.n	20004c56 <cdcd_control_xfer_cb+0x9a>
20004c3a:	2903      	cmp	r1, #3
20004c3c:	d1f9      	bne.n	20004c32 <cdcd_control_xfer_cb+0x76>
20004c3e:	4b0d      	ldr	r3, [pc, #52]	@ (20004c74 <cdcd_control_xfer_cb+0xb8>)
20004c40:	2b00      	cmp	r3, #0
20004c42:	d0f6      	beq.n	20004c32 <cdcd_control_xfer_cb+0x76>
20004c44:	2000      	movs	r0, #0
20004c46:	490c      	ldr	r1, [pc, #48]	@ (20004c78 <cdcd_control_xfer_cb+0xbc>)
20004c48:	f7fb fe1e 	bl	20000888 <tud_cdc_line_coding_cb>
20004c4c:	e7f1      	b.n	20004c32 <cdcd_control_xfer_cb+0x76>
20004c4e:	4611      	mov	r1, r2
20004c50:	f7ff fc6c 	bl	2000452c <tud_control_status>
20004c54:	e7ed      	b.n	20004c32 <cdcd_control_xfer_cb+0x76>
20004c56:	4611      	mov	r1, r2
20004c58:	2307      	movs	r3, #7
20004c5a:	4a07      	ldr	r2, [pc, #28]	@ (20004c78 <cdcd_control_xfer_cb+0xbc>)
20004c5c:	f7ff fc80 	bl	20004560 <tud_control_xfer>
20004c60:	e7e7      	b.n	20004c32 <cdcd_control_xfer_cb+0x76>
20004c62:	bf00      	nop
20004c64:	200097e8 	.word	0x200097e8
20004c68:	20000951 	.word	0x20000951
20004c6c:	2000980c 	.word	0x2000980c
20004c70:	2000093d 	.word	0x2000093d
20004c74:	20000889 	.word	0x20000889
20004c78:	200097f0 	.word	0x200097f0

20004c7c <cdcd_xfer_cb>:
20004c7c:	e92d 47f0 	stmdb	sp!, {r4, r5, r6, r7, r8, r9, sl, lr}
20004c80:	4f36      	ldr	r7, [pc, #216]	@ (20004d5c <cdcd_xfer_cb+0xe0>)
20004c82:	460c      	mov	r4, r1
20004c84:	78fa      	ldrb	r2, [r7, #3]
20004c86:	4606      	mov	r6, r0
20004c88:	428a      	cmp	r2, r1
20004c8a:	461d      	mov	r5, r3
20004c8c:	f897 c002 	ldrb.w	ip, [r7, #2]
20004c90:	d03c      	beq.n	20004d0c <cdcd_xfer_cb+0x90>
20004c92:	458c      	cmp	ip, r1
20004c94:	d013      	beq.n	20004cbe <cdcd_xfer_cb+0x42>
20004c96:	f04f 23e0 	mov.w	r3, #3758153728	@ 0xe000e000
20004c9a:	f8d3 3df0 	ldr.w	r3, [r3, #3568]	@ 0xdf0
20004c9e:	07db      	lsls	r3, r3, #31
20004ca0:	d500      	bpl.n	20004ca4 <cdcd_xfer_cb+0x28>
20004ca2:	be00      	bkpt	0x0000
20004ca4:	2000      	movs	r0, #0
20004ca6:	e8bd 87f0 	ldmia.w	sp!, {r4, r5, r6, r7, r8, r9, sl, pc}
20004caa:	4b2d      	ldr	r3, [pc, #180]	@ (20004d60 <cdcd_xfer_cb+0xe4>)
20004cac:	b123      	cbz	r3, 20004cb8 <cdcd_xfer_cb+0x3c>
20004cae:	482d      	ldr	r0, [pc, #180]	@ (20004d64 <cdcd_xfer_cb+0xe8>)
20004cb0:	f000 fd76 	bl	200057a0 <tu_fifo_empty>
20004cb4:	2800      	cmp	r0, #0
20004cb6:	d04e      	beq.n	20004d56 <cdcd_xfer_cb+0xda>
20004cb8:	2000      	movs	r0, #0
20004cba:	f7ff fd43 	bl	20004744 <_prep_out_transaction.isra.0>
20004cbe:	78bb      	ldrb	r3, [r7, #2]
20004cc0:	42a3      	cmp	r3, r4
20004cc2:	d002      	beq.n	20004cca <cdcd_xfer_cb+0x4e>
20004cc4:	2001      	movs	r0, #1
20004cc6:	e8bd 87f0 	ldmia.w	sp!, {r4, r5, r6, r7, r8, r9, sl, pc}
20004cca:	4b27      	ldr	r3, [pc, #156]	@ (20004d68 <cdcd_xfer_cb+0xec>)
20004ccc:	b113      	cbz	r3, 20004cd4 <cdcd_xfer_cb+0x58>
20004cce:	2000      	movs	r0, #0
20004cd0:	f3af 8000 	nop.w
20004cd4:	2000      	movs	r0, #0
20004cd6:	f7ff fe1b 	bl	20004910 <tud_cdc_n_write_flush>
20004cda:	2800      	cmp	r0, #0
20004cdc:	d1f2      	bne.n	20004cc4 <cdcd_xfer_cb+0x48>
20004cde:	4823      	ldr	r0, [pc, #140]	@ (20004d6c <cdcd_xfer_cb+0xf0>)
20004ce0:	f000 fd4e 	bl	20005780 <tu_fifo_count>
20004ce4:	2800      	cmp	r0, #0
20004ce6:	d1ed      	bne.n	20004cc4 <cdcd_xfer_cb+0x48>
20004ce8:	2d00      	cmp	r5, #0
20004cea:	d0eb      	beq.n	20004cc4 <cdcd_xfer_cb+0x48>
20004cec:	f015 053f 	ands.w	r5, r5, #63	@ 0x3f
20004cf0:	d1e8      	bne.n	20004cc4 <cdcd_xfer_cb+0x48>
20004cf2:	4630      	mov	r0, r6
20004cf4:	78b9      	ldrb	r1, [r7, #2]
20004cf6:	f7ff fbbd 	bl	20004474 <usbd_edpt_claim>
20004cfa:	2800      	cmp	r0, #0
20004cfc:	d0e2      	beq.n	20004cc4 <cdcd_xfer_cb+0x48>
20004cfe:	462b      	mov	r3, r5
20004d00:	462a      	mov	r2, r5
20004d02:	4630      	mov	r0, r6
20004d04:	78b9      	ldrb	r1, [r7, #2]
20004d06:	f7ff fbd9 	bl	200044bc <usbd_edpt_xfer>
20004d0a:	e7db      	b.n	20004cc4 <cdcd_xfer_cb+0x48>
20004d0c:	f8df 8064 	ldr.w	r8, [pc, #100]	@ 20004d74 <cdcd_xfer_cb+0xf8>
20004d10:	b29a      	uxth	r2, r3
20004d12:	4641      	mov	r1, r8
20004d14:	f107 0010 	add.w	r0, r7, #16
20004d18:	f000 fe64 	bl	200059e4 <tu_fifo_write_n>
20004d1c:	4b14      	ldr	r3, [pc, #80]	@ (20004d70 <cdcd_xfer_cb+0xf4>)
20004d1e:	2b00      	cmp	r3, #0
20004d20:	d0c3      	beq.n	20004caa <cdcd_xfer_cb+0x2e>
20004d22:	797b      	ldrb	r3, [r7, #5]
20004d24:	2bff      	cmp	r3, #255	@ 0xff
20004d26:	d0c0      	beq.n	20004caa <cdcd_xfer_cb+0x2e>
20004d28:	2d00      	cmp	r5, #0
20004d2a:	d0be      	beq.n	20004caa <cdcd_xfer_cb+0x2e>
20004d2c:	f107 0910 	add.w	r9, r7, #16
20004d30:	eb08 0a05 	add.w	sl, r8, r5
20004d34:	e002      	b.n	20004d3c <cdcd_xfer_cb+0xc0>
20004d36:	45c2      	cmp	sl, r8
20004d38:	d0b7      	beq.n	20004caa <cdcd_xfer_cb+0x2e>
20004d3a:	797b      	ldrb	r3, [r7, #5]
20004d3c:	f818 2b01 	ldrb.w	r2, [r8], #1
20004d40:	429a      	cmp	r2, r3
20004d42:	d1f8      	bne.n	20004d36 <cdcd_xfer_cb+0xba>
20004d44:	4648      	mov	r0, r9
20004d46:	f000 fd2b 	bl	200057a0 <tu_fifo_empty>
20004d4a:	2800      	cmp	r0, #0
20004d4c:	d1f3      	bne.n	20004d36 <cdcd_xfer_cb+0xba>
20004d4e:	7979      	ldrb	r1, [r7, #5]
20004d50:	f3af 8000 	nop.w
20004d54:	e7ef      	b.n	20004d36 <cdcd_xfer_cb+0xba>
20004d56:	f3af 8000 	nop.w
20004d5a:	e7ad      	b.n	20004cb8 <cdcd_xfer_cb+0x3c>
20004d5c:	200097e8 	.word	0x200097e8
20004d60:	00000000 	.word	0x00000000
20004d64:	200097f8 	.word	0x200097f8
20004d68:	00000000 	.word	0x00000000
20004d6c:	2000980c 	.word	0x2000980c
20004d70:	00000000 	.word	0x00000000
20004d74:	2000add8 	.word	0x2000add8

20004d78 <tud_hid_set_protocol_cb>:
20004d78:	4770      	bx	lr
20004d7a:	bf00      	nop

20004d7c <tud_hid_set_idle_cb>:
20004d7c:	2001      	movs	r0, #1
20004d7e:	4770      	bx	lr

20004d80 <tud_hid_report_complete_cb>:
20004d80:	4770      	bx	lr
20004d82:	bf00      	nop

20004d84 <tud_hid_report_failed_cb>:
20004d84:	4770      	bx	lr
20004d86:	bf00      	nop

20004d88 <tud_hid_n_report>:
20004d88:	b108      	cbz	r0, 20004d8e <tud_hid_n_report+0x6>
20004d8a:	2000      	movs	r0, #0
20004d8c:	4770      	bx	lr
20004d8e:	e92d 41f0 	stmdb	sp!, {r4, r5, r6, r7, r8, lr}
20004d92:	4f14      	ldr	r7, [pc, #80]	@ (20004de4 <tud_hid_n_report+0x5c>)
20004d94:	460d      	mov	r5, r1
20004d96:	7879      	ldrb	r1, [r7, #1]
20004d98:	4616      	mov	r6, r2
20004d9a:	461c      	mov	r4, r3
20004d9c:	f7ff fb6a 	bl	20004474 <usbd_edpt_claim>
20004da0:	b178      	cbz	r0, 20004dc2 <tud_hid_n_report+0x3a>
20004da2:	b98d      	cbnz	r5, 20004dc8 <tud_hid_n_report+0x40>
20004da4:	2c40      	cmp	r4, #64	@ 0x40
20004da6:	d80c      	bhi.n	20004dc2 <tud_hid_n_report+0x3a>
20004da8:	4622      	mov	r2, r4
20004daa:	4631      	mov	r1, r6
20004dac:	480e      	ldr	r0, [pc, #56]	@ (20004de8 <tud_hid_n_report+0x60>)
20004dae:	f003 fa8b 	bl	200082c8 <memcpy>
20004db2:	4623      	mov	r3, r4
20004db4:	7879      	ldrb	r1, [r7, #1]
20004db6:	2000      	movs	r0, #0
20004db8:	e8bd 41f0 	ldmia.w	sp!, {r4, r5, r6, r7, r8, lr}
20004dbc:	4a0a      	ldr	r2, [pc, #40]	@ (20004de8 <tud_hid_n_report+0x60>)
20004dbe:	f7ff bb7d 	b.w	200044bc <usbd_edpt_xfer>
20004dc2:	2000      	movs	r0, #0
20004dc4:	e8bd 81f0 	ldmia.w	sp!, {r4, r5, r6, r7, r8, pc}
20004dc8:	4808      	ldr	r0, [pc, #32]	@ (20004dec <tud_hid_n_report+0x64>)
20004dca:	2c3f      	cmp	r4, #63	@ 0x3f
20004dcc:	f880 5040 	strb.w	r5, [r0, #64]	@ 0x40
20004dd0:	d8f7      	bhi.n	20004dc2 <tud_hid_n_report+0x3a>
20004dd2:	4622      	mov	r2, r4
20004dd4:	4631      	mov	r1, r6
20004dd6:	3041      	adds	r0, #65	@ 0x41
20004dd8:	3401      	adds	r4, #1
20004dda:	f003 fa75 	bl	200082c8 <memcpy>
20004dde:	b2a4      	uxth	r4, r4
20004de0:	e7e7      	b.n	20004db2 <tud_hid_n_report+0x2a>
20004de2:	bf00      	nop
20004de4:	2000afb0 	.word	0x2000afb0
20004de8:	2000af30 	.word	0x2000af30
20004dec:	2000aef0 	.word	0x2000aef0

20004df0 <hidd_init>:
20004df0:	2200      	movs	r2, #0
20004df2:	4b02      	ldr	r3, [pc, #8]	@ (20004dfc <hidd_init+0xc>)
20004df4:	e9c3 2200 	strd	r2, r2, [r3]
20004df8:	609a      	str	r2, [r3, #8]
20004dfa:	4770      	bx	lr
20004dfc:	2000afb0 	.word	0x2000afb0

20004e00 <hidd_deinit>:
20004e00:	2001      	movs	r0, #1
20004e02:	4770      	bx	lr

20004e04 <hidd_reset>:
20004e04:	2200      	movs	r2, #0
20004e06:	4b02      	ldr	r3, [pc, #8]	@ (20004e10 <hidd_reset+0xc>)
20004e08:	e9c3 2200 	strd	r2, r2, [r3]
20004e0c:	609a      	str	r2, [r3, #8]
20004e0e:	4770      	bx	lr
20004e10:	2000afb0 	.word	0x2000afb0

20004e14 <hidd_open>:
20004e14:	b5f0      	push	{r4, r5, r6, r7, lr}
20004e16:	794b      	ldrb	r3, [r1, #5]
20004e18:	b083      	sub	sp, #12
20004e1a:	2b03      	cmp	r3, #3
20004e1c:	d003      	beq.n	20004e26 <hidd_open+0x12>
20004e1e:	2500      	movs	r5, #0
20004e20:	4628      	mov	r0, r5
20004e22:	b003      	add	sp, #12
20004e24:	bdf0      	pop	{r4, r5, r6, r7, pc}
20004e26:	f891 c004 	ldrb.w	ip, [r1, #4]
20004e2a:	460c      	mov	r4, r1
20004e2c:	ebcc 05cc 	rsb	r5, ip, ip, lsl #3
20004e30:	3512      	adds	r5, #18
20004e32:	b2ad      	uxth	r5, r5
20004e34:	4295      	cmp	r5, r2
20004e36:	d802      	bhi.n	20004e3e <hidd_open+0x2a>
20004e38:	4f21      	ldr	r7, [pc, #132]	@ (20004ec0 <hidd_open+0xac>)
20004e3a:	787a      	ldrb	r2, [r7, #1]
20004e3c:	b13a      	cbz	r2, 20004e4e <hidd_open+0x3a>
20004e3e:	f04f 23e0 	mov.w	r3, #3758153728	@ 0xe000e000
20004e42:	f8d3 3df0 	ldr.w	r3, [r3, #3568]	@ 0xdf0
20004e46:	07da      	lsls	r2, r3, #31
20004e48:	d5e9      	bpl.n	20004e1e <hidd_open+0xa>
20004e4a:	be00      	bkpt	0x0000
20004e4c:	e7e7      	b.n	20004e1e <hidd_open+0xa>
20004e4e:	7809      	ldrb	r1, [r1, #0]
20004e50:	1862      	adds	r2, r4, r1
20004e52:	f892 e001 	ldrb.w	lr, [r2, #1]
20004e56:	f1be 0f21 	cmp.w	lr, #33	@ 0x21
20004e5a:	d1f0      	bne.n	20004e3e <hidd_open+0x2a>
20004e5c:	60ba      	str	r2, [r7, #8]
20004e5e:	5c61      	ldrb	r1, [r4, r1]
20004e60:	4606      	mov	r6, r0
20004e62:	4411      	add	r1, r2
20004e64:	4662      	mov	r2, ip
20004e66:	f107 0c01 	add.w	ip, r7, #1
20004e6a:	f8cd c004 	str.w	ip, [sp, #4]
20004e6e:	f107 0c02 	add.w	ip, r7, #2
20004e72:	f8cd c000 	str.w	ip, [sp]
20004e76:	f7ff fa8d 	bl	20004394 <usbd_open_edpt_pair>
20004e7a:	2800      	cmp	r0, #0
20004e7c:	d0df      	beq.n	20004e3e <hidd_open+0x2a>
20004e7e:	79a3      	ldrb	r3, [r4, #6]
20004e80:	68ba      	ldr	r2, [r7, #8]
20004e82:	2b01      	cmp	r3, #1
20004e84:	bf08      	it	eq
20004e86:	79e3      	ldrbeq	r3, [r4, #7]
20004e88:	f8b2 2007 	ldrh.w	r2, [r2, #7]
20004e8c:	bf08      	it	eq
20004e8e:	70fb      	strbeq	r3, [r7, #3]
20004e90:	2301      	movs	r3, #1
20004e92:	71bb      	strb	r3, [r7, #6]
20004e94:	78a3      	ldrb	r3, [r4, #2]
20004e96:	78b9      	ldrb	r1, [r7, #2]
20004e98:	80ba      	strh	r2, [r7, #4]
20004e9a:	703b      	strb	r3, [r7, #0]
20004e9c:	2900      	cmp	r1, #0
20004e9e:	d0bf      	beq.n	20004e20 <hidd_open+0xc>
20004ea0:	2340      	movs	r3, #64	@ 0x40
20004ea2:	4630      	mov	r0, r6
20004ea4:	4a07      	ldr	r2, [pc, #28]	@ (20004ec4 <hidd_open+0xb0>)
20004ea6:	f7ff fb09 	bl	200044bc <usbd_edpt_xfer>
20004eaa:	2800      	cmp	r0, #0
20004eac:	d1b8      	bne.n	20004e20 <hidd_open+0xc>
20004eae:	f04f 23e0 	mov.w	r3, #3758153728	@ 0xe000e000
20004eb2:	f8d3 3df0 	ldr.w	r3, [r3, #3568]	@ 0xdf0
20004eb6:	07db      	lsls	r3, r3, #31
20004eb8:	d5b2      	bpl.n	20004e20 <hidd_open+0xc>
20004eba:	be00      	bkpt	0x0000
20004ebc:	e7b0      	b.n	20004e20 <hidd_open+0xc>
20004ebe:	bf00      	nop
20004ec0:	2000afb0 	.word	0x2000afb0
20004ec4:	2000af70 	.word	0x2000af70

20004ec8 <hidd_control_xfer_cb>:
20004ec8:	b5f0      	push	{r4, r5, r6, r7, lr}
20004eca:	4614      	mov	r4, r2
20004ecc:	7812      	ldrb	r2, [r2, #0]
20004ece:	b083      	sub	sp, #12
20004ed0:	f002 0c1f 	and.w	ip, r2, #31
20004ed4:	f1bc 0f01 	cmp.w	ip, #1
20004ed8:	d002      	beq.n	20004ee0 <hidd_control_xfer_cb+0x18>
20004eda:	2000      	movs	r0, #0
20004edc:	b003      	add	sp, #12
20004ede:	bdf0      	pop	{r4, r5, r6, r7, pc}
20004ee0:	4e64      	ldr	r6, [pc, #400]	@ (20005074 <hidd_control_xfer_cb+0x1ac>)
20004ee2:	f8b4 c004 	ldrh.w	ip, [r4, #4]
20004ee6:	7833      	ldrb	r3, [r6, #0]
20004ee8:	fa5f fc8c 	uxtb.w	ip, ip
20004eec:	4563      	cmp	r3, ip
20004eee:	d1f4      	bne.n	20004eda <hidd_control_xfer_cb+0x12>
20004ef0:	f012 0260 	ands.w	r2, r2, #96	@ 0x60
20004ef4:	4605      	mov	r5, r0
20004ef6:	d103      	bne.n	20004f00 <hidd_control_xfer_cb+0x38>
20004ef8:	2901      	cmp	r1, #1
20004efa:	d021      	beq.n	20004f40 <hidd_control_xfer_cb+0x78>
20004efc:	2001      	movs	r0, #1
20004efe:	e7ed      	b.n	20004edc <hidd_control_xfer_cb+0x14>
20004f00:	2a20      	cmp	r2, #32
20004f02:	d1ea      	bne.n	20004eda <hidd_control_xfer_cb+0x12>
20004f04:	7863      	ldrb	r3, [r4, #1]
20004f06:	3b01      	subs	r3, #1
20004f08:	2b0a      	cmp	r3, #10
20004f0a:	d8e6      	bhi.n	20004eda <hidd_control_xfer_cb+0x12>
20004f0c:	a201      	add	r2, pc, #4	@ (adr r2, 20004f14 <hidd_control_xfer_cb+0x4c>)
20004f0e:	f852 f023 	ldr.w	pc, [r2, r3, lsl #2]
20004f12:	bf00      	nop
20004f14:	20004ff5 	.word	0x20004ff5
20004f18:	20004fe5 	.word	0x20004fe5
20004f1c:	20004fd5 	.word	0x20004fd5
20004f20:	20004edb 	.word	0x20004edb
20004f24:	20004edb 	.word	0x20004edb
20004f28:	20004edb 	.word	0x20004edb
20004f2c:	20004edb 	.word	0x20004edb
20004f30:	20004edb 	.word	0x20004edb
20004f34:	20004f9b 	.word	0x20004f9b
20004f38:	20004f7d 	.word	0x20004f7d
20004f3c:	20004f67 	.word	0x20004f67
20004f40:	7861      	ldrb	r1, [r4, #1]
20004f42:	8863      	ldrh	r3, [r4, #2]
20004f44:	2906      	cmp	r1, #6
20004f46:	d1c8      	bne.n	20004eda <hidd_control_xfer_cb+0x12>
20004f48:	0a1b      	lsrs	r3, r3, #8
20004f4a:	2b21      	cmp	r3, #33	@ 0x21
20004f4c:	d07a      	beq.n	20005044 <hidd_control_xfer_cb+0x17c>
20004f4e:	2b22      	cmp	r3, #34	@ 0x22
20004f50:	d1c3      	bne.n	20004eda <hidd_control_xfer_cb+0x12>
20004f52:	4610      	mov	r0, r2
20004f54:	f7fb fa2e 	bl	200003b4 <tud_hid_descriptor_report_cb>
20004f58:	4621      	mov	r1, r4
20004f5a:	4602      	mov	r2, r0
20004f5c:	88b3      	ldrh	r3, [r6, #4]
20004f5e:	4628      	mov	r0, r5
20004f60:	f7ff fafe 	bl	20004560 <tud_control_xfer>
20004f64:	e7ca      	b.n	20004efc <hidd_control_xfer_cb+0x34>
20004f66:	2901      	cmp	r1, #1
20004f68:	d012      	beq.n	20004f90 <hidd_control_xfer_cb+0xc8>
20004f6a:	2903      	cmp	r1, #3
20004f6c:	d1c6      	bne.n	20004efc <hidd_control_xfer_cb+0x34>
20004f6e:	8861      	ldrh	r1, [r4, #2]
20004f70:	2000      	movs	r0, #0
20004f72:	b2c9      	uxtb	r1, r1
20004f74:	71b1      	strb	r1, [r6, #6]
20004f76:	f7ff feff 	bl	20004d78 <tud_hid_set_protocol_cb>
20004f7a:	e7bf      	b.n	20004efc <hidd_control_xfer_cb+0x34>
20004f7c:	2901      	cmp	r1, #1
20004f7e:	d1bd      	bne.n	20004efc <hidd_control_xfer_cb+0x34>
20004f80:	8861      	ldrh	r1, [r4, #2]
20004f82:	2000      	movs	r0, #0
20004f84:	0a09      	lsrs	r1, r1, #8
20004f86:	71f1      	strb	r1, [r6, #7]
20004f88:	f7ff fef8 	bl	20004d7c <tud_hid_set_idle_cb>
20004f8c:	2800      	cmp	r0, #0
20004f8e:	d0a4      	beq.n	20004eda <hidd_control_xfer_cb+0x12>
20004f90:	4621      	mov	r1, r4
20004f92:	4628      	mov	r0, r5
20004f94:	f7ff faca 	bl	2000452c <tud_control_status>
20004f98:	e7b0      	b.n	20004efc <hidd_control_xfer_cb+0x34>
20004f9a:	2901      	cmp	r1, #1
20004f9c:	d05d      	beq.n	2000505a <hidd_control_xfer_cb+0x192>
20004f9e:	2903      	cmp	r1, #3
20004fa0:	d1ac      	bne.n	20004efc <hidd_control_xfer_cb+0x34>
20004fa2:	88e0      	ldrh	r0, [r4, #6]
20004fa4:	8863      	ldrh	r3, [r4, #2]
20004fa6:	2840      	cmp	r0, #64	@ 0x40
20004fa8:	4604      	mov	r4, r0
20004faa:	bf28      	it	cs
20004fac:	2440      	movcs	r4, #64	@ 0x40
20004fae:	f013 01ff 	ands.w	r1, r3, #255	@ 0xff
20004fb2:	ea4f 2213 	mov.w	r2, r3, lsr #8
20004fb6:	4b30      	ldr	r3, [pc, #192]	@ (20005078 <hidd_control_xfer_cb+0x1b0>)
20004fb8:	d007      	beq.n	20004fca <hidd_control_xfer_cb+0x102>
20004fba:	2801      	cmp	r0, #1
20004fbc:	d905      	bls.n	20004fca <hidd_control_xfer_cb+0x102>
20004fbe:	7818      	ldrb	r0, [r3, #0]
20004fc0:	4288      	cmp	r0, r1
20004fc2:	d102      	bne.n	20004fca <hidd_control_xfer_cb+0x102>
20004fc4:	3c01      	subs	r4, #1
20004fc6:	b2a4      	uxth	r4, r4
20004fc8:	3301      	adds	r3, #1
20004fca:	2000      	movs	r0, #0
20004fcc:	9400      	str	r4, [sp, #0]
20004fce:	f7fb f953 	bl	20000278 <tud_hid_set_report_cb>
20004fd2:	e793      	b.n	20004efc <hidd_control_xfer_cb+0x34>
20004fd4:	2901      	cmp	r1, #1
20004fd6:	d191      	bne.n	20004efc <hidd_control_xfer_cb+0x34>
20004fd8:	460b      	mov	r3, r1
20004fda:	4a28      	ldr	r2, [pc, #160]	@ (2000507c <hidd_control_xfer_cb+0x1b4>)
20004fdc:	4621      	mov	r1, r4
20004fde:	f7ff fabf 	bl	20004560 <tud_control_xfer>
20004fe2:	e78b      	b.n	20004efc <hidd_control_xfer_cb+0x34>
20004fe4:	2901      	cmp	r1, #1
20004fe6:	d189      	bne.n	20004efc <hidd_control_xfer_cb+0x34>
20004fe8:	460b      	mov	r3, r1
20004fea:	4a25      	ldr	r2, [pc, #148]	@ (20005080 <hidd_control_xfer_cb+0x1b8>)
20004fec:	4621      	mov	r1, r4
20004fee:	f7ff fab7 	bl	20004560 <tud_control_xfer>
20004ff2:	e783      	b.n	20004efc <hidd_control_xfer_cb+0x34>
20004ff4:	2901      	cmp	r1, #1
20004ff6:	d181      	bne.n	20004efc <hidd_control_xfer_cb+0x34>
20004ff8:	88e6      	ldrh	r6, [r4, #6]
20004ffa:	8863      	ldrh	r3, [r4, #2]
20004ffc:	2e40      	cmp	r6, #64	@ 0x40
20004ffe:	4637      	mov	r7, r6
20005000:	bf28      	it	cs
20005002:	2740      	movcs	r7, #64	@ 0x40
20005004:	f013 00ff 	ands.w	r0, r3, #255	@ 0xff
20005008:	ea4f 2213 	mov.w	r2, r3, lsr #8
2000500c:	d02f      	beq.n	2000506e <hidd_control_xfer_cb+0x1a6>
2000500e:	2e01      	cmp	r6, #1
20005010:	d92d      	bls.n	2000506e <hidd_control_xfer_cb+0x1a6>
20005012:	460e      	mov	r6, r1
20005014:	4b18      	ldr	r3, [pc, #96]	@ (20005078 <hidd_control_xfer_cb+0x1b0>)
20005016:	f107 3cff 	add.w	ip, r7, #4294967295	@ 0xffffffff
2000501a:	fa1f f78c 	uxth.w	r7, ip
2000501e:	f803 0b01 	strb.w	r0, [r3], #1
20005022:	4601      	mov	r1, r0
20005024:	9700      	str	r7, [sp, #0]
20005026:	2000      	movs	r0, #0
20005028:	f7fb f924 	bl	20000274 <tud_hid_get_report_cb>
2000502c:	1833      	adds	r3, r6, r0
2000502e:	b29b      	uxth	r3, r3
20005030:	b9bb      	cbnz	r3, 20005062 <hidd_control_xfer_cb+0x19a>
20005032:	f04f 23e0 	mov.w	r3, #3758153728	@ 0xe000e000
20005036:	f8d3 3df0 	ldr.w	r3, [r3, #3568]	@ 0xdf0
2000503a:	07db      	lsls	r3, r3, #31
2000503c:	f57f af4d 	bpl.w	20004eda <hidd_control_xfer_cb+0x12>
20005040:	be00      	bkpt	0x0000
20005042:	e74a      	b.n	20004eda <hidd_control_xfer_cb+0x12>
20005044:	68b2      	ldr	r2, [r6, #8]
20005046:	2a00      	cmp	r2, #0
20005048:	f43f af47 	beq.w	20004eda <hidd_control_xfer_cb+0x12>
2000504c:	4621      	mov	r1, r4
2000504e:	7813      	ldrb	r3, [r2, #0]
20005050:	b003      	add	sp, #12
20005052:	e8bd 40f0 	ldmia.w	sp!, {r4, r5, r6, r7, lr}
20005056:	f7ff ba83 	b.w	20004560 <tud_control_xfer>
2000505a:	88e3      	ldrh	r3, [r4, #6]
2000505c:	2b40      	cmp	r3, #64	@ 0x40
2000505e:	f63f af3c 	bhi.w	20004eda <hidd_control_xfer_cb+0x12>
20005062:	4621      	mov	r1, r4
20005064:	4628      	mov	r0, r5
20005066:	4a04      	ldr	r2, [pc, #16]	@ (20005078 <hidd_control_xfer_cb+0x1b0>)
20005068:	f7ff fa7a 	bl	20004560 <tud_control_xfer>
2000506c:	e746      	b.n	20004efc <hidd_control_xfer_cb+0x34>
2000506e:	2600      	movs	r6, #0
20005070:	4b01      	ldr	r3, [pc, #4]	@ (20005078 <hidd_control_xfer_cb+0x1b0>)
20005072:	e7d6      	b.n	20005022 <hidd_control_xfer_cb+0x15a>
20005074:	2000afb0 	.word	0x2000afb0
20005078:	2000aef0 	.word	0x2000aef0
2000507c:	2000afb6 	.word	0x2000afb6
20005080:	2000afb7 	.word	0x2000afb7

20005084 <hidd_xfer_cb>:
20005084:	b570      	push	{r4, r5, r6, lr}
20005086:	460c      	mov	r4, r1
20005088:	4d20      	ldr	r5, [pc, #128]	@ (2000510c <hidd_xfer_cb+0x88>)
2000508a:	4611      	mov	r1, r2
2000508c:	f895 c002 	ldrb.w	ip, [r5, #2]
20005090:	f895 e001 	ldrb.w	lr, [r5, #1]
20005094:	45a4      	cmp	ip, r4
20005096:	b082      	sub	sp, #8
20005098:	d00a      	beq.n	200050b0 <hidd_xfer_cb+0x2c>
2000509a:	45a6      	cmp	lr, r4
2000509c:	d01e      	beq.n	200050dc <hidd_xfer_cb+0x58>
2000509e:	f04f 23e0 	mov.w	r3, #3758153728	@ 0xe000e000
200050a2:	f8d3 3df0 	ldr.w	r3, [r3, #3568]	@ 0xdf0
200050a6:	07db      	lsls	r3, r3, #31
200050a8:	d420      	bmi.n	200050ec <hidd_xfer_cb+0x68>
200050aa:	2000      	movs	r0, #0
200050ac:	b002      	add	sp, #8
200050ae:	bd70      	pop	{r4, r5, r6, pc}
200050b0:	45e6      	cmp	lr, ip
200050b2:	b29c      	uxth	r4, r3
200050b4:	d013      	beq.n	200050de <hidd_xfer_cb+0x5a>
200050b6:	4606      	mov	r6, r0
200050b8:	b9d2      	cbnz	r2, 200050f0 <hidd_xfer_cb+0x6c>
200050ba:	2202      	movs	r2, #2
200050bc:	4608      	mov	r0, r1
200050be:	4b14      	ldr	r3, [pc, #80]	@ (20005110 <hidd_xfer_cb+0x8c>)
200050c0:	9400      	str	r4, [sp, #0]
200050c2:	f7fb f8d9 	bl	20000278 <tud_hid_set_report_cb>
200050c6:	2340      	movs	r3, #64	@ 0x40
200050c8:	4630      	mov	r0, r6
200050ca:	4a11      	ldr	r2, [pc, #68]	@ (20005110 <hidd_xfer_cb+0x8c>)
200050cc:	78a9      	ldrb	r1, [r5, #2]
200050ce:	f7ff f9f5 	bl	200044bc <usbd_edpt_xfer>
200050d2:	2800      	cmp	r0, #0
200050d4:	d0e3      	beq.n	2000509e <hidd_xfer_cb+0x1a>
200050d6:	2001      	movs	r0, #1
200050d8:	b002      	add	sp, #8
200050da:	bd70      	pop	{r4, r5, r6, pc}
200050dc:	b29c      	uxth	r4, r3
200050de:	b971      	cbnz	r1, 200050fe <hidd_xfer_cb+0x7a>
200050e0:	4608      	mov	r0, r1
200050e2:	4622      	mov	r2, r4
200050e4:	490b      	ldr	r1, [pc, #44]	@ (20005114 <hidd_xfer_cb+0x90>)
200050e6:	f7ff fe4b 	bl	20004d80 <tud_hid_report_complete_cb>
200050ea:	e7f4      	b.n	200050d6 <hidd_xfer_cb+0x52>
200050ec:	be00      	bkpt	0x0000
200050ee:	e7dc      	b.n	200050aa <hidd_xfer_cb+0x26>
200050f0:	4623      	mov	r3, r4
200050f2:	2102      	movs	r1, #2
200050f4:	2000      	movs	r0, #0
200050f6:	4a06      	ldr	r2, [pc, #24]	@ (20005110 <hidd_xfer_cb+0x8c>)
200050f8:	f7ff fe44 	bl	20004d84 <tud_hid_report_failed_cb>
200050fc:	e7e3      	b.n	200050c6 <hidd_xfer_cb+0x42>
200050fe:	4623      	mov	r3, r4
20005100:	2101      	movs	r1, #1
20005102:	2000      	movs	r0, #0
20005104:	4a03      	ldr	r2, [pc, #12]	@ (20005114 <hidd_xfer_cb+0x90>)
20005106:	f7ff fe3d 	bl	20004d84 <tud_hid_report_failed_cb>
2000510a:	e7e4      	b.n	200050d6 <hidd_xfer_cb+0x52>
2000510c:	2000afb0 	.word	0x2000afb0
20005110:	2000af70 	.word	0x2000af70
20005114:	2000af30 	.word	0x2000af30

20005118 <vendord_init>:
20005118:	b5f0      	push	{r4, r5, r6, r7, lr}
2000511a:	4d13      	ldr	r5, [pc, #76]	@ (20005168 <vendord_init+0x50>)
2000511c:	b085      	sub	sp, #20
2000511e:	f244 024c 	movw	r2, #16460	@ 0x404c
20005122:	2100      	movs	r1, #0
20005124:	4628      	mov	r0, r5
20005126:	f003 f87d 	bl	20008224 <memset>
2000512a:	2740      	movs	r7, #64	@ 0x40
2000512c:	2300      	movs	r3, #0
2000512e:	f44f 5600 	mov.w	r6, #8192	@ 0x2000
20005132:	4c0e      	ldr	r4, [pc, #56]	@ (2000516c <vendord_init+0x54>)
20005134:	4a0e      	ldr	r2, [pc, #56]	@ (20005170 <vendord_init+0x58>)
20005136:	4619      	mov	r1, r3
20005138:	e9cd 4702 	strd	r4, r7, [sp, #8]
2000513c:	9200      	str	r2, [sp, #0]
2000513e:	9601      	str	r6, [sp, #4]
20005140:	461a      	mov	r2, r3
20005142:	480c      	ldr	r0, [pc, #48]	@ (20005174 <vendord_init+0x5c>)
20005144:	f000 f9ea 	bl	2000551c <tu_edpt_stream_init>
20005148:	2300      	movs	r3, #0
2000514a:	f105 0128 	add.w	r1, r5, #40	@ 0x28
2000514e:	443c      	add	r4, r7
20005150:	9100      	str	r1, [sp, #0]
20005152:	2201      	movs	r2, #1
20005154:	4619      	mov	r1, r3
20005156:	e9cd 4702 	strd	r4, r7, [sp, #8]
2000515a:	9601      	str	r6, [sp, #4]
2000515c:	1d28      	adds	r0, r5, #4
2000515e:	f000 f9dd 	bl	2000551c <tu_edpt_stream_init>
20005162:	b005      	add	sp, #20
20005164:	bdf0      	pop	{r4, r5, r6, r7, pc}
20005166:	bf00      	nop
20005168:	2000b194 	.word	0x2000b194
2000516c:	2000b114 	.word	0x2000b114
20005170:	2000d1e0 	.word	0x2000d1e0
20005174:	2000d1bc 	.word	0x2000d1bc

20005178 <vendord_deinit>:
20005178:	b508      	push	{r3, lr}
2000517a:	4804      	ldr	r0, [pc, #16]	@ (2000518c <vendord_deinit+0x14>)
2000517c:	f000 f9fa 	bl	20005574 <tu_edpt_stream_deinit>
20005180:	4803      	ldr	r0, [pc, #12]	@ (20005190 <vendord_deinit+0x18>)
20005182:	f000 f9f7 	bl	20005574 <tu_edpt_stream_deinit>
20005186:	2001      	movs	r0, #1
20005188:	bd08      	pop	{r3, pc}
2000518a:	bf00      	nop
2000518c:	2000d1bc 	.word	0x2000d1bc
20005190:	2000b198 	.word	0x2000b198

20005194 <vendord_reset>:
20005194:	b570      	push	{r4, r5, r6, lr}
20005196:	4c08      	ldr	r4, [pc, #32]	@ (200051b8 <vendord_reset+0x24>)
20005198:	2500      	movs	r5, #0
2000519a:	4626      	mov	r6, r4
2000519c:	4807      	ldr	r0, [pc, #28]	@ (200051bc <vendord_reset+0x28>)
2000519e:	f806 5b0c 	strb.w	r5, [r6], #12
200051a2:	f000 fccb 	bl	20005b3c <tu_fifo_clear>
200051a6:	4630      	mov	r0, r6
200051a8:	f000 fcc8 	bl	20005b3c <tu_fifo_clear>
200051ac:	f504 5300 	add.w	r3, r4, #8192	@ 0x2000
200051b0:	f883 5029 	strb.w	r5, [r3, #41]	@ 0x29
200051b4:	7165      	strb	r5, [r4, #5]
200051b6:	bd70      	pop	{r4, r5, r6, pc}
200051b8:	2000b194 	.word	0x2000b194
200051bc:	2000d1c4 	.word	0x2000d1c4

200051c0 <vendord_open>:
200051c0:	e92d 4ff8 	stmdb	sp!, {r3, r4, r5, r6, r7, r8, r9, sl, fp, lr}
200051c4:	794b      	ldrb	r3, [r1, #5]
200051c6:	2bff      	cmp	r3, #255	@ 0xff
200051c8:	d002      	beq.n	200051d0 <vendord_open+0x10>
200051ca:	2000      	movs	r0, #0
200051cc:	e8bd 8ff8 	ldmia.w	sp!, {r3, r4, r5, r6, r7, r8, r9, sl, fp, pc}
200051d0:	f8df 8110 	ldr.w	r8, [pc, #272]	@ 200052e4 <vendord_open+0x124>
200051d4:	460c      	mov	r4, r1
200051d6:	f508 5700 	add.w	r7, r8, #8192	@ 0x2000
200051da:	780b      	ldrb	r3, [r1, #0]
200051dc:	f897 1029 	ldrb.w	r1, [r7, #41]	@ 0x29
200051e0:	2900      	cmp	r1, #0
200051e2:	d1f2      	bne.n	200051ca <vendord_open+0xa>
200051e4:	f898 5005 	ldrb.w	r5, [r8, #5]
200051e8:	2d00      	cmp	r5, #0
200051ea:	d1ee      	bne.n	200051ca <vendord_open+0xa>
200051ec:	78a1      	ldrb	r1, [r4, #2]
200051ee:	eb04 0b03 	add.w	fp, r4, r3
200051f2:	f888 1000 	strb.w	r1, [r8]
200051f6:	7921      	ldrb	r1, [r4, #4]
200051f8:	2900      	cmp	r1, #0
200051fa:	d043      	beq.n	20005284 <vendord_open+0xc4>
200051fc:	4606      	mov	r6, r0
200051fe:	eb0b 0902 	add.w	r9, fp, r2
20005202:	f107 0a30 	add.w	sl, r7, #48	@ 0x30
20005206:	f89b 1001 	ldrb.w	r1, [fp, #1]
2000520a:	2905      	cmp	r1, #5
2000520c:	d00b      	beq.n	20005226 <vendord_open+0x66>
2000520e:	45d9      	cmp	r9, fp
20005210:	d802      	bhi.n	20005218 <vendord_open+0x58>
20005212:	e037      	b.n	20005284 <vendord_open+0xc4>
20005214:	45cb      	cmp	fp, r9
20005216:	d235      	bcs.n	20005284 <vendord_open+0xc4>
20005218:	f89b 1000 	ldrb.w	r1, [fp]
2000521c:	448b      	add	fp, r1
2000521e:	f89b 1001 	ldrb.w	r1, [fp, #1]
20005222:	2905      	cmp	r1, #5
20005224:	d1f6      	bne.n	20005214 <vendord_open+0x54>
20005226:	45d9      	cmp	r9, fp
20005228:	d92c      	bls.n	20005284 <vendord_open+0xc4>
2000522a:	4659      	mov	r1, fp
2000522c:	4630      	mov	r0, r6
2000522e:	f7ff f8ff 	bl	20004430 <usbd_edpt_open>
20005232:	2800      	cmp	r0, #0
20005234:	d047      	beq.n	200052c6 <vendord_open+0x106>
20005236:	f89b 1002 	ldrb.w	r1, [fp, #2]
2000523a:	09c9      	lsrs	r1, r1, #7
2000523c:	d127      	bne.n	2000528e <vendord_open+0xce>
2000523e:	4650      	mov	r0, sl
20005240:	f000 fc7c 	bl	20005b3c <tu_fifo_clear>
20005244:	f89b 1002 	ldrb.w	r1, [fp, #2]
20005248:	f897 0028 	ldrb.w	r0, [r7, #40]	@ 0x28
2000524c:	f887 1029 	strb.w	r1, [r7, #41]	@ 0x29
20005250:	f8bb 1004 	ldrh.w	r1, [fp, #4]
20005254:	f3c1 010a 	ubfx	r1, r1, #0, #11
20005258:	f5a1 7100 	sub.w	r1, r1, #512	@ 0x200
2000525c:	fab1 f181 	clz	r1, r1
20005260:	0949      	lsrs	r1, r1, #5
20005262:	f361 0041 	bfi	r0, r1, #1, #1
20005266:	f887 0028 	strb.w	r0, [r7, #40]	@ 0x28
2000526a:	491b      	ldr	r1, [pc, #108]	@ (200052d8 <vendord_open+0x118>)
2000526c:	4630      	mov	r0, r6
2000526e:	f000 f9ef 	bl	20005650 <tu_edpt_stream_read_xfer>
20005272:	b340      	cbz	r0, 200052c6 <vendord_open+0x106>
20005274:	f89b 1000 	ldrb.w	r1, [fp]
20005278:	7920      	ldrb	r0, [r4, #4]
2000527a:	3501      	adds	r5, #1
2000527c:	448b      	add	fp, r1
2000527e:	b2e9      	uxtb	r1, r5
20005280:	4288      	cmp	r0, r1
20005282:	d8c0      	bhi.n	20005206 <vendord_open+0x46>
20005284:	ebab 0304 	sub.w	r3, fp, r4
20005288:	b298      	uxth	r0, r3
2000528a:	e8bd 8ff8 	ldmia.w	sp!, {r3, r4, r5, r6, r7, r8, r9, sl, fp, pc}
2000528e:	4813      	ldr	r0, [pc, #76]	@ (200052dc <vendord_open+0x11c>)
20005290:	f000 fc54 	bl	20005b3c <tu_fifo_clear>
20005294:	f89b c002 	ldrb.w	ip, [fp, #2]
20005298:	f898 e004 	ldrb.w	lr, [r8, #4]
2000529c:	f888 c005 	strb.w	ip, [r8, #5]
200052a0:	f8bb c004 	ldrh.w	ip, [fp, #4]
200052a4:	490e      	ldr	r1, [pc, #56]	@ (200052e0 <vendord_open+0x120>)
200052a6:	f3cc 0c0a 	ubfx	ip, ip, #0, #11
200052aa:	f5ac 7c00 	sub.w	ip, ip, #512	@ 0x200
200052ae:	fabc fc8c 	clz	ip, ip
200052b2:	ea4f 1c5c 	mov.w	ip, ip, lsr #5
200052b6:	f36c 0e41 	bfi	lr, ip, #1, #1
200052ba:	2000      	movs	r0, #0
200052bc:	f888 e004 	strb.w	lr, [r8, #4]
200052c0:	f000 f98e 	bl	200055e0 <tu_edpt_stream_write_xfer>
200052c4:	e7d6      	b.n	20005274 <vendord_open+0xb4>
200052c6:	f04f 23e0 	mov.w	r3, #3758153728	@ 0xe000e000
200052ca:	f8d3 3df0 	ldr.w	r3, [r3, #3568]	@ 0xdf0
200052ce:	07db      	lsls	r3, r3, #31
200052d0:	f57f af7b 	bpl.w	200051ca <vendord_open+0xa>
200052d4:	be00      	bkpt	0x0000
200052d6:	e778      	b.n	200051ca <vendord_open+0xa>
200052d8:	2000d1bc 	.word	0x2000d1bc
200052dc:	2000b1a0 	.word	0x2000b1a0
200052e0:	2000b198 	.word	0x2000b198
200052e4:	2000b194 	.word	0x2000b194

200052e8 <vendord_xfer_cb>:
200052e8:	b570      	push	{r4, r5, r6, lr}
200052ea:	4c1b      	ldr	r4, [pc, #108]	@ (20005358 <vendord_xfer_cb+0x70>)
200052ec:	4606      	mov	r6, r0
200052ee:	7962      	ldrb	r2, [r4, #5]
200052f0:	f504 5400 	add.w	r4, r4, #8192	@ 0x2000
200052f4:	f894 c029 	ldrb.w	ip, [r4, #41]	@ 0x29
200052f8:	461d      	mov	r5, r3
200052fa:	458c      	cmp	ip, r1
200052fc:	d004      	beq.n	20005308 <vendord_xfer_cb+0x20>
200052fe:	428a      	cmp	r2, r1
20005300:	bf18      	it	ne
20005302:	2000      	movne	r0, #0
20005304:	d015      	beq.n	20005332 <vendord_xfer_cb+0x4a>
20005306:	bd70      	pop	{r4, r5, r6, pc}
20005308:	8ea3      	ldrh	r3, [r4, #52]	@ 0x34
2000530a:	b963      	cbnz	r3, 20005326 <vendord_xfer_cb+0x3e>
2000530c:	4b13      	ldr	r3, [pc, #76]	@ (2000535c <vendord_xfer_cb+0x74>)
2000530e:	b123      	cbz	r3, 2000531a <vendord_xfer_cb+0x32>
20005310:	2000      	movs	r0, #0
20005312:	4913      	ldr	r1, [pc, #76]	@ (20005360 <vendord_xfer_cb+0x78>)
20005314:	b2aa      	uxth	r2, r5
20005316:	f3af 8000 	nop.w
2000531a:	4630      	mov	r0, r6
2000531c:	4911      	ldr	r1, [pc, #68]	@ (20005364 <vendord_xfer_cb+0x7c>)
2000531e:	f000 f997 	bl	20005650 <tu_edpt_stream_read_xfer>
20005322:	2001      	movs	r0, #1
20005324:	bd70      	pop	{r4, r5, r6, pc}
20005326:	6ae1      	ldr	r1, [r4, #44]	@ 0x2c
20005328:	b2aa      	uxth	r2, r5
2000532a:	480f      	ldr	r0, [pc, #60]	@ (20005368 <vendord_xfer_cb+0x80>)
2000532c:	f000 fb5a 	bl	200059e4 <tu_fifo_write_n>
20005330:	e7ec      	b.n	2000530c <vendord_xfer_cb+0x24>
20005332:	4b0e      	ldr	r3, [pc, #56]	@ (2000536c <vendord_xfer_cb+0x84>)
20005334:	b11b      	cbz	r3, 2000533e <vendord_xfer_cb+0x56>
20005336:	2000      	movs	r0, #0
20005338:	b2a9      	uxth	r1, r5
2000533a:	f3af 8000 	nop.w
2000533e:	4630      	mov	r0, r6
20005340:	490b      	ldr	r1, [pc, #44]	@ (20005370 <vendord_xfer_cb+0x88>)
20005342:	f000 f94d 	bl	200055e0 <tu_edpt_stream_write_xfer>
20005346:	2800      	cmp	r0, #0
20005348:	d1eb      	bne.n	20005322 <vendord_xfer_cb+0x3a>
2000534a:	462a      	mov	r2, r5
2000534c:	4630      	mov	r0, r6
2000534e:	4908      	ldr	r1, [pc, #32]	@ (20005370 <vendord_xfer_cb+0x88>)
20005350:	f000 f912 	bl	20005578 <tu_edpt_stream_write_zlp_if_needed>
20005354:	e7e5      	b.n	20005322 <vendord_xfer_cb+0x3a>
20005356:	bf00      	nop
20005358:	2000b194 	.word	0x2000b194
2000535c:	00000000 	.word	0x00000000
20005360:	2000b114 	.word	0x2000b114
20005364:	2000d1bc 	.word	0x2000d1bc
20005368:	2000d1c4 	.word	0x2000d1c4
2000536c:	00000000 	.word	0x00000000
20005370:	2000b198 	.word	0x2000b198

20005374 <tusb_rhport_init>:
20005374:	b510      	push	{r4, lr}
20005376:	b082      	sub	sp, #8
20005378:	b1b9      	cbz	r1, 200053aa <tusb_rhport_init+0x36>
2000537a:	2801      	cmp	r0, #1
2000537c:	d80c      	bhi.n	20005398 <tusb_rhport_init+0x24>
2000537e:	780b      	ldrb	r3, [r1, #0]
20005380:	b153      	cbz	r3, 20005398 <tusb_rhport_init+0x24>
20005382:	4c13      	ldr	r4, [pc, #76]	@ (200053d0 <tusb_rhport_init+0x5c>)
20005384:	2b01      	cmp	r3, #1
20005386:	5423      	strb	r3, [r4, r0]
20005388:	d002      	beq.n	20005390 <tusb_rhport_init+0x1c>
2000538a:	2001      	movs	r0, #1
2000538c:	b002      	add	sp, #8
2000538e:	bd10      	pop	{r4, pc}
20005390:	f7fe fbae 	bl	20003af0 <tud_rhport_init>
20005394:	2800      	cmp	r0, #0
20005396:	d1f8      	bne.n	2000538a <tusb_rhport_init+0x16>
20005398:	f04f 23e0 	mov.w	r3, #3758153728	@ 0xe000e000
2000539c:	f8d3 3df0 	ldr.w	r3, [r3, #3568]	@ 0xdf0
200053a0:	07db      	lsls	r3, r3, #31
200053a2:	d500      	bpl.n	200053a6 <tusb_rhport_init+0x32>
200053a4:	be00      	bkpt	0x0000
200053a6:	2000      	movs	r0, #0
200053a8:	e7f0      	b.n	2000538c <tusb_rhport_init+0x18>
200053aa:	2401      	movs	r4, #1
200053ac:	4608      	mov	r0, r1
200053ae:	a901      	add	r1, sp, #4
200053b0:	f8ad 4004 	strh.w	r4, [sp, #4]
200053b4:	f7fe fb9c 	bl	20003af0 <tud_rhport_init>
200053b8:	b938      	cbnz	r0, 200053ca <tusb_rhport_init+0x56>
200053ba:	f04f 23e0 	mov.w	r3, #3758153728	@ 0xe000e000
200053be:	f8d3 3df0 	ldr.w	r3, [r3, #3568]	@ 0xdf0
200053c2:	07da      	lsls	r2, r3, #31
200053c4:	d5e2      	bpl.n	2000538c <tusb_rhport_init+0x18>
200053c6:	be00      	bkpt	0x0000
200053c8:	e7e0      	b.n	2000538c <tusb_rhport_init+0x18>
200053ca:	4b01      	ldr	r3, [pc, #4]	@ (200053d0 <tusb_rhport_init+0x5c>)
200053cc:	701c      	strb	r4, [r3, #0]
200053ce:	e7dd      	b.n	2000538c <tusb_rhport_init+0x18>
200053d0:	2000afe0 	.word	0x2000afe0

200053d4 <tu_edpt_claim>:
200053d4:	b5f8      	push	{r3, r4, r5, r6, r7, lr}
200053d6:	7803      	ldrb	r3, [r0, #0]
200053d8:	f013 0401 	ands.w	r4, r3, #1
200053dc:	d11a      	bne.n	20005414 <tu_edpt_claim+0x40>
200053de:	7803      	ldrb	r3, [r0, #0]
200053e0:	4605      	mov	r5, r0
200053e2:	075a      	lsls	r2, r3, #29
200053e4:	f3c3 0780 	ubfx	r7, r3, #2, #1
200053e8:	d501      	bpl.n	200053ee <tu_edpt_claim+0x1a>
200053ea:	4620      	mov	r0, r4
200053ec:	bdf8      	pop	{r3, r4, r5, r6, r7, pc}
200053ee:	460e      	mov	r6, r1
200053f0:	f04f 31ff 	mov.w	r1, #4294967295	@ 0xffffffff
200053f4:	4630      	mov	r0, r6
200053f6:	f003 f8b9 	bl	2000856c <mutex_enter_timeout_ms>
200053fa:	782b      	ldrb	r3, [r5, #0]
200053fc:	f013 0401 	ands.w	r4, r3, #1
20005400:	d10b      	bne.n	2000541a <tu_edpt_claim+0x46>
20005402:	782b      	ldrb	r3, [r5, #0]
20005404:	075b      	lsls	r3, r3, #29
20005406:	d409      	bmi.n	2000541c <tu_edpt_claim+0x48>
20005408:	782b      	ldrb	r3, [r5, #0]
2000540a:	2401      	movs	r4, #1
2000540c:	f043 0304 	orr.w	r3, r3, #4
20005410:	702b      	strb	r3, [r5, #0]
20005412:	e003      	b.n	2000541c <tu_edpt_claim+0x48>
20005414:	2400      	movs	r4, #0
20005416:	4620      	mov	r0, r4
20005418:	bdf8      	pop	{r3, r4, r5, r6, r7, pc}
2000541a:	463c      	mov	r4, r7
2000541c:	4630      	mov	r0, r6
2000541e:	f003 f8e1 	bl	200085e4 <mutex_exit>
20005422:	4620      	mov	r0, r4
20005424:	bdf8      	pop	{r3, r4, r5, r6, r7, pc}
20005426:	bf00      	nop

20005428 <tu_edpt_release>:
20005428:	b570      	push	{r4, r5, r6, lr}
2000542a:	460c      	mov	r4, r1
2000542c:	4605      	mov	r5, r0
2000542e:	f04f 31ff 	mov.w	r1, #4294967295	@ 0xffffffff
20005432:	4620      	mov	r0, r4
20005434:	f003 f89a 	bl	2000856c <mutex_enter_timeout_ms>
20005438:	782b      	ldrb	r3, [r5, #0]
2000543a:	f3c3 0680 	ubfx	r6, r3, #2, #1
2000543e:	075b      	lsls	r3, r3, #29
20005440:	d508      	bpl.n	20005454 <tu_edpt_release+0x2c>
20005442:	782b      	ldrb	r3, [r5, #0]
20005444:	f013 0301 	ands.w	r3, r3, #1
20005448:	bf11      	iteee	ne
2000544a:	2600      	movne	r6, #0
2000544c:	782a      	ldrbeq	r2, [r5, #0]
2000544e:	f363 0282 	bfieq	r2, r3, #2, #1
20005452:	702a      	strbeq	r2, [r5, #0]
20005454:	4620      	mov	r0, r4
20005456:	f003 f8c5 	bl	200085e4 <mutex_exit>
2000545a:	4630      	mov	r0, r6
2000545c:	bd70      	pop	{r4, r5, r6, pc}
2000545e:	bf00      	nop

20005460 <tu_edpt_validate>:
20005460:	78c3      	ldrb	r3, [r0, #3]
20005462:	8882      	ldrh	r2, [r0, #4]
20005464:	f003 0003 	and.w	r0, r3, #3
20005468:	2802      	cmp	r0, #2
2000546a:	f3c2 020a 	ubfx	r2, r2, #0, #11
2000546e:	d01f      	beq.n	200054b0 <tu_edpt_validate+0x50>
20005470:	2803      	cmp	r0, #3
20005472:	d003      	beq.n	2000547c <tu_edpt_validate+0x1c>
20005474:	2801      	cmp	r0, #1
20005476:	d00a      	beq.n	2000548e <tu_edpt_validate+0x2e>
20005478:	2000      	movs	r0, #0
2000547a:	4770      	bx	lr
2000547c:	2902      	cmp	r1, #2
2000547e:	bf14      	ite	ne
20005480:	2340      	movne	r3, #64	@ 0x40
20005482:	f44f 6380 	moveq.w	r3, #1024	@ 0x400
20005486:	4293      	cmp	r3, r2
20005488:	d309      	bcc.n	2000549e <tu_edpt_validate+0x3e>
2000548a:	2001      	movs	r0, #1
2000548c:	4770      	bx	lr
2000548e:	2902      	cmp	r1, #2
20005490:	f240 33ff 	movw	r3, #1023	@ 0x3ff
20005494:	bf08      	it	eq
20005496:	f44f 6380 	moveq.w	r3, #1024	@ 0x400
2000549a:	4293      	cmp	r3, r2
2000549c:	d2f6      	bcs.n	2000548c <tu_edpt_validate+0x2c>
2000549e:	f04f 23e0 	mov.w	r3, #3758153728	@ 0xe000e000
200054a2:	f8d3 3df0 	ldr.w	r3, [r3, #3568]	@ 0xdf0
200054a6:	07db      	lsls	r3, r3, #31
200054a8:	d5e6      	bpl.n	20005478 <tu_edpt_validate+0x18>
200054aa:	be00      	bkpt	0x0000
200054ac:	2000      	movs	r0, #0
200054ae:	4770      	bx	lr
200054b0:	2902      	cmp	r1, #2
200054b2:	d002      	beq.n	200054ba <tu_edpt_validate+0x5a>
200054b4:	2a40      	cmp	r2, #64	@ 0x40
200054b6:	d9e8      	bls.n	2000548a <tu_edpt_validate+0x2a>
200054b8:	e7f1      	b.n	2000549e <tu_edpt_validate+0x3e>
200054ba:	f5b2 7f00 	cmp.w	r2, #512	@ 0x200
200054be:	d0e4      	beq.n	2000548a <tu_edpt_validate+0x2a>
200054c0:	e7ed      	b.n	2000549e <tu_edpt_validate+0x3e>
200054c2:	bf00      	nop

200054c4 <tu_edpt_bind_driver>:
200054c4:	440a      	add	r2, r1
200054c6:	4291      	cmp	r1, r2
200054c8:	d226      	bcs.n	20005518 <tu_edpt_bind_driver+0x54>
200054ca:	f891 c001 	ldrb.w	ip, [r1, #1]
200054ce:	f1bc 0f05 	cmp.w	ip, #5
200054d2:	d005      	beq.n	200054e0 <tu_edpt_bind_driver+0x1c>
200054d4:	f891 c000 	ldrb.w	ip, [r1]
200054d8:	4461      	add	r1, ip
200054da:	428a      	cmp	r2, r1
200054dc:	d8f5      	bhi.n	200054ca <tu_edpt_bind_driver+0x6>
200054de:	4770      	bx	lr
200054e0:	b500      	push	{lr}
200054e2:	f891 c002 	ldrb.w	ip, [r1, #2]
200054e6:	f00c 0e7f 	and.w	lr, ip, #127	@ 0x7f
200054ea:	eb00 0e4e 	add.w	lr, r0, lr, lsl #1
200054ee:	ea4f 1cdc 	mov.w	ip, ip, lsr #7
200054f2:	f80e 300c 	strb.w	r3, [lr, ip]
200054f6:	f891 c000 	ldrb.w	ip, [r1]
200054fa:	4461      	add	r1, ip
200054fc:	428a      	cmp	r2, r1
200054fe:	d909      	bls.n	20005514 <tu_edpt_bind_driver+0x50>
20005500:	f891 c001 	ldrb.w	ip, [r1, #1]
20005504:	f1bc 0f05 	cmp.w	ip, #5
20005508:	d0eb      	beq.n	200054e2 <tu_edpt_bind_driver+0x1e>
2000550a:	f891 c000 	ldrb.w	ip, [r1]
2000550e:	4461      	add	r1, ip
20005510:	428a      	cmp	r2, r1
20005512:	d8f5      	bhi.n	20005500 <tu_edpt_bind_driver+0x3c>
20005514:	f85d fb04 	ldr.w	pc, [sp], #4
20005518:	4770      	bx	lr
2000551a:	bf00      	nop

2000551c <tu_edpt_stream_init>:
2000551c:	e92d 41f0 	stmdb	sp!, {r4, r5, r6, r7, r8, lr}
20005520:	468e      	mov	lr, r1
20005522:	b082      	sub	sp, #8
20005524:	9300      	str	r3, [sp, #0]
20005526:	f890 c000 	ldrb.w	ip, [r0]
2000552a:	9e08      	ldr	r6, [sp, #32]
2000552c:	f8bd 7024 	ldrh.w	r7, [sp, #36]	@ 0x24
20005530:	f36e 0c00 	bfi	ip, lr, #0, #1
20005534:	4604      	mov	r4, r0
20005536:	4615      	mov	r5, r2
20005538:	2301      	movs	r3, #1
2000553a:	4631      	mov	r1, r6
2000553c:	463a      	mov	r2, r7
2000553e:	f800 cb08 	strb.w	ip, [r0], #8
20005542:	f8bd 802c 	ldrh.w	r8, [sp, #44]	@ 0x2c
20005546:	f000 f8eb 	bl	20005720 <tu_fifo_config>
2000554a:	b106      	cbz	r6, 2000554e <tu_edpt_stream_init+0x32>
2000554c:	b93f      	cbnz	r7, 2000555e <tu_edpt_stream_init+0x42>
2000554e:	2001      	movs	r0, #1
20005550:	9b0a      	ldr	r3, [sp, #40]	@ 0x28
20005552:	f8a4 8002 	strh.w	r8, [r4, #2]
20005556:	6063      	str	r3, [r4, #4]
20005558:	b002      	add	sp, #8
2000555a:	e8bd 81f0 	ldmia.w	sp!, {r4, r5, r6, r7, r8, pc}
2000555e:	f104 061c 	add.w	r6, r4, #28
20005562:	4630      	mov	r0, r6
20005564:	f7fc fb80 	bl	20001c68 <mutex_init>
20005568:	b10d      	cbz	r5, 2000556e <tu_edpt_stream_init+0x52>
2000556a:	4635      	mov	r5, r6
2000556c:	2600      	movs	r6, #0
2000556e:	e9c4 5605 	strd	r5, r6, [r4, #20]
20005572:	e7ec      	b.n	2000554e <tu_edpt_stream_init+0x32>

20005574 <tu_edpt_stream_deinit>:
20005574:	2001      	movs	r0, #1
20005576:	4770      	bx	lr

20005578 <tu_edpt_stream_write_zlp_if_needed>:
20005578:	b5f8      	push	{r3, r4, r5, r6, r7, lr}
2000557a:	4607      	mov	r7, r0
2000557c:	4608      	mov	r0, r1
2000557e:	f240 13ff 	movw	r3, #511	@ 0x1ff
20005582:	4615      	mov	r5, r2
20005584:	f810 2b08 	ldrb.w	r2, [r0], #8
20005588:	460c      	mov	r4, r1
2000558a:	f012 0f02 	tst.w	r2, #2
2000558e:	bf0c      	ite	eq
20005590:	263f      	moveq	r6, #63	@ 0x3f
20005592:	461e      	movne	r6, r3
20005594:	f000 f8f4 	bl	20005780 <tu_fifo_count>
20005598:	b928      	cbnz	r0, 200055a6 <tu_edpt_stream_write_zlp_if_needed+0x2e>
2000559a:	b125      	cbz	r5, 200055a6 <tu_edpt_stream_write_zlp_if_needed+0x2e>
2000559c:	422e      	tst	r6, r5
2000559e:	d102      	bne.n	200055a6 <tu_edpt_stream_write_zlp_if_needed+0x2e>
200055a0:	7823      	ldrb	r3, [r4, #0]
200055a2:	07da      	lsls	r2, r3, #31
200055a4:	d501      	bpl.n	200055aa <tu_edpt_stream_write_zlp_if_needed+0x32>
200055a6:	2000      	movs	r0, #0
200055a8:	bdf8      	pop	{r3, r4, r5, r6, r7, pc}
200055aa:	4638      	mov	r0, r7
200055ac:	7861      	ldrb	r1, [r4, #1]
200055ae:	f7fe ff61 	bl	20004474 <usbd_edpt_claim>
200055b2:	2800      	cmp	r0, #0
200055b4:	d0f7      	beq.n	200055a6 <tu_edpt_stream_write_zlp_if_needed+0x2e>
200055b6:	7823      	ldrb	r3, [r4, #0]
200055b8:	f013 0301 	ands.w	r3, r3, #1
200055bc:	d007      	beq.n	200055ce <tu_edpt_stream_write_zlp_if_needed+0x56>
200055be:	f04f 23e0 	mov.w	r3, #3758153728	@ 0xe000e000
200055c2:	f8d3 3df0 	ldr.w	r3, [r3, #3568]	@ 0xdf0
200055c6:	07db      	lsls	r3, r3, #31
200055c8:	d5ed      	bpl.n	200055a6 <tu_edpt_stream_write_zlp_if_needed+0x2e>
200055ca:	be00      	bkpt	0x0000
200055cc:	e7eb      	b.n	200055a6 <tu_edpt_stream_write_zlp_if_needed+0x2e>
200055ce:	461a      	mov	r2, r3
200055d0:	4638      	mov	r0, r7
200055d2:	7861      	ldrb	r1, [r4, #1]
200055d4:	f7fe ff72 	bl	200044bc <usbd_edpt_xfer>
200055d8:	2800      	cmp	r0, #0
200055da:	d0f0      	beq.n	200055be <tu_edpt_stream_write_zlp_if_needed+0x46>
200055dc:	bdf8      	pop	{r3, r4, r5, r6, r7, pc}
200055de:	bf00      	nop

200055e0 <tu_edpt_stream_write_xfer>:
200055e0:	b570      	push	{r4, r5, r6, lr}
200055e2:	f101 0508 	add.w	r5, r1, #8
200055e6:	4606      	mov	r6, r0
200055e8:	4628      	mov	r0, r5
200055ea:	460c      	mov	r4, r1
200055ec:	f000 f8c8 	bl	20005780 <tu_fifo_count>
200055f0:	b110      	cbz	r0, 200055f8 <tu_edpt_stream_write_xfer+0x18>
200055f2:	7823      	ldrb	r3, [r4, #0]
200055f4:	07d8      	lsls	r0, r3, #31
200055f6:	d501      	bpl.n	200055fc <tu_edpt_stream_write_xfer+0x1c>
200055f8:	2000      	movs	r0, #0
200055fa:	bd70      	pop	{r4, r5, r6, pc}
200055fc:	4630      	mov	r0, r6
200055fe:	7861      	ldrb	r1, [r4, #1]
20005600:	f7fe ff38 	bl	20004474 <usbd_edpt_claim>
20005604:	2800      	cmp	r0, #0
20005606:	d0f7      	beq.n	200055f8 <tu_edpt_stream_write_xfer+0x18>
20005608:	4628      	mov	r0, r5
2000560a:	8862      	ldrh	r2, [r4, #2]
2000560c:	6861      	ldr	r1, [r4, #4]
2000560e:	f000 f92d 	bl	2000586c <tu_fifo_read_n>
20005612:	7823      	ldrb	r3, [r4, #0]
20005614:	4605      	mov	r5, r0
20005616:	b148      	cbz	r0, 2000562c <tu_edpt_stream_write_xfer+0x4c>
20005618:	07d9      	lsls	r1, r3, #31
2000561a:	d50e      	bpl.n	2000563a <tu_edpt_stream_write_xfer+0x5a>
2000561c:	f04f 23e0 	mov.w	r3, #3758153728	@ 0xe000e000
20005620:	f8d3 3df0 	ldr.w	r3, [r3, #3568]	@ 0xdf0
20005624:	07da      	lsls	r2, r3, #31
20005626:	d5e7      	bpl.n	200055f8 <tu_edpt_stream_write_xfer+0x18>
20005628:	be00      	bkpt	0x0000
2000562a:	e7e5      	b.n	200055f8 <tu_edpt_stream_write_xfer+0x18>
2000562c:	07db      	lsls	r3, r3, #31
2000562e:	d4e3      	bmi.n	200055f8 <tu_edpt_stream_write_xfer+0x18>
20005630:	4630      	mov	r0, r6
20005632:	7861      	ldrb	r1, [r4, #1]
20005634:	f7fe ff30 	bl	20004498 <usbd_edpt_release>
20005638:	e7de      	b.n	200055f8 <tu_edpt_stream_write_xfer+0x18>
2000563a:	4603      	mov	r3, r0
2000563c:	6862      	ldr	r2, [r4, #4]
2000563e:	4630      	mov	r0, r6
20005640:	7861      	ldrb	r1, [r4, #1]
20005642:	f7fe ff3b 	bl	200044bc <usbd_edpt_xfer>
20005646:	2800      	cmp	r0, #0
20005648:	d0e8      	beq.n	2000561c <tu_edpt_stream_write_xfer+0x3c>
2000564a:	4628      	mov	r0, r5
2000564c:	bd70      	pop	{r4, r5, r6, pc}
2000564e:	bf00      	nop

20005650 <tu_edpt_stream_read_xfer>:
20005650:	898a      	ldrh	r2, [r1, #12]
20005652:	e92d 41f0 	stmdb	sp!, {r4, r5, r6, r7, r8, lr}
20005656:	780b      	ldrb	r3, [r1, #0]
20005658:	460c      	mov	r4, r1
2000565a:	4605      	mov	r5, r0
2000565c:	b98a      	cbnz	r2, 20005682 <tu_edpt_stream_read_xfer+0x32>
2000565e:	07df      	lsls	r7, r3, #31
20005660:	d425      	bmi.n	200056ae <tu_edpt_stream_read_xfer+0x5e>
20005662:	7849      	ldrb	r1, [r1, #1]
20005664:	f7fe ff06 	bl	20004474 <usbd_edpt_claim>
20005668:	b308      	cbz	r0, 200056ae <tu_edpt_stream_read_xfer+0x5e>
2000566a:	7822      	ldrb	r2, [r4, #0]
2000566c:	8863      	ldrh	r3, [r4, #2]
2000566e:	07d6      	lsls	r6, r2, #31
20005670:	d53f      	bpl.n	200056f2 <tu_edpt_stream_read_xfer+0xa2>
20005672:	f04f 23e0 	mov.w	r3, #3758153728	@ 0xe000e000
20005676:	f8d3 3df0 	ldr.w	r3, [r3, #3568]	@ 0xdf0
2000567a:	07da      	lsls	r2, r3, #31
2000567c:	d517      	bpl.n	200056ae <tu_edpt_stream_read_xfer+0x5e>
2000567e:	be00      	bkpt	0x0000
20005680:	e015      	b.n	200056ae <tu_edpt_stream_read_xfer+0x5e>
20005682:	f003 0302 	and.w	r3, r3, #2
20005686:	f101 0808 	add.w	r8, r1, #8
2000568a:	2b00      	cmp	r3, #0
2000568c:	4640      	mov	r0, r8
2000568e:	bf0c      	ite	eq
20005690:	2740      	moveq	r7, #64	@ 0x40
20005692:	f44f 7700 	movne.w	r7, #512	@ 0x200
20005696:	f64f 76c0 	movw	r6, #65472	@ 0xffc0
2000569a:	bf18      	it	ne
2000569c:	f44f 467e 	movne.w	r6, #65024	@ 0xfe00
200056a0:	f000 f888 	bl	200057b4 <tu_fifo_remaining>
200056a4:	4287      	cmp	r7, r0
200056a6:	d802      	bhi.n	200056ae <tu_edpt_stream_read_xfer+0x5e>
200056a8:	7823      	ldrb	r3, [r4, #0]
200056aa:	07d8      	lsls	r0, r3, #31
200056ac:	d502      	bpl.n	200056b4 <tu_edpt_stream_read_xfer+0x64>
200056ae:	2000      	movs	r0, #0
200056b0:	e8bd 81f0 	ldmia.w	sp!, {r4, r5, r6, r7, r8, pc}
200056b4:	4628      	mov	r0, r5
200056b6:	7861      	ldrb	r1, [r4, #1]
200056b8:	f7fe fedc 	bl	20004474 <usbd_edpt_claim>
200056bc:	2800      	cmp	r0, #0
200056be:	d0f6      	beq.n	200056ae <tu_edpt_stream_read_xfer+0x5e>
200056c0:	4640      	mov	r0, r8
200056c2:	f000 f877 	bl	200057b4 <tu_fifo_remaining>
200056c6:	4287      	cmp	r7, r0
200056c8:	d81f      	bhi.n	2000570a <tu_edpt_stream_read_xfer+0xba>
200056ca:	7823      	ldrb	r3, [r4, #0]
200056cc:	8862      	ldrh	r2, [r4, #2]
200056ce:	07d9      	lsls	r1, r3, #31
200056d0:	d4cf      	bmi.n	20005672 <tu_edpt_stream_read_xfer+0x22>
200056d2:	4030      	ands	r0, r6
200056d4:	4290      	cmp	r0, r2
200056d6:	bf28      	it	cs
200056d8:	4610      	movcs	r0, r2
200056da:	7861      	ldrb	r1, [r4, #1]
200056dc:	4606      	mov	r6, r0
200056de:	b1e0      	cbz	r0, 2000571a <tu_edpt_stream_read_xfer+0xca>
200056e0:	6862      	ldr	r2, [r4, #4]
200056e2:	4633      	mov	r3, r6
200056e4:	4628      	mov	r0, r5
200056e6:	f7fe fee9 	bl	200044bc <usbd_edpt_xfer>
200056ea:	2800      	cmp	r0, #0
200056ec:	d0c1      	beq.n	20005672 <tu_edpt_stream_read_xfer+0x22>
200056ee:	4630      	mov	r0, r6
200056f0:	e7de      	b.n	200056b0 <tu_edpt_stream_read_xfer+0x60>
200056f2:	7861      	ldrb	r1, [r4, #1]
200056f4:	b13b      	cbz	r3, 20005706 <tu_edpt_stream_read_xfer+0xb6>
200056f6:	6862      	ldr	r2, [r4, #4]
200056f8:	4628      	mov	r0, r5
200056fa:	f7fe fedf 	bl	200044bc <usbd_edpt_xfer>
200056fe:	2800      	cmp	r0, #0
20005700:	d0b7      	beq.n	20005672 <tu_edpt_stream_read_xfer+0x22>
20005702:	8860      	ldrh	r0, [r4, #2]
20005704:	e7d4      	b.n	200056b0 <tu_edpt_stream_read_xfer+0x60>
20005706:	461a      	mov	r2, r3
20005708:	e7f6      	b.n	200056f8 <tu_edpt_stream_read_xfer+0xa8>
2000570a:	7823      	ldrb	r3, [r4, #0]
2000570c:	07db      	lsls	r3, r3, #31
2000570e:	d4ce      	bmi.n	200056ae <tu_edpt_stream_read_xfer+0x5e>
20005710:	4628      	mov	r0, r5
20005712:	7861      	ldrb	r1, [r4, #1]
20005714:	f7fe fec0 	bl	20004498 <usbd_edpt_release>
20005718:	e7c9      	b.n	200056ae <tu_edpt_stream_read_xfer+0x5e>
2000571a:	4602      	mov	r2, r0
2000571c:	e7e1      	b.n	200056e2 <tu_edpt_stream_read_xfer+0x92>
2000571e:	bf00      	nop

20005720 <tu_fifo_config>:
20005720:	e92d 41f0 	stmdb	sp!, {r4, r5, r6, r7, r8, lr}
20005724:	f5b2 4f00 	cmp.w	r2, #32768	@ 0x8000
20005728:	f89d 8018 	ldrb.w	r8, [sp, #24]
2000572c:	d824      	bhi.n	20005778 <tu_fifo_config+0x58>
2000572e:	4604      	mov	r4, r0
20005730:	68c0      	ldr	r0, [r0, #12]
20005732:	4617      	mov	r7, r2
20005734:	460e      	mov	r6, r1
20005736:	461d      	mov	r5, r3
20005738:	b118      	cbz	r0, 20005742 <tu_fifo_config+0x22>
2000573a:	f04f 31ff 	mov.w	r1, #4294967295	@ 0xffffffff
2000573e:	f002 ff15 	bl	2000856c <mutex_enter_timeout_ms>
20005742:	6920      	ldr	r0, [r4, #16]
20005744:	b118      	cbz	r0, 2000574e <tu_fifo_config+0x2e>
20005746:	f04f 31ff 	mov.w	r1, #4294967295	@ 0xffffffff
2000574a:	f002 ff0f 	bl	2000856c <mutex_enter_timeout_ms>
2000574e:	2200      	movs	r2, #0
20005750:	f3c5 030e 	ubfx	r3, r5, #0, #15
20005754:	68e0      	ldr	r0, [r4, #12]
20005756:	ea43 33c8 	orr.w	r3, r3, r8, lsl #15
2000575a:	8162      	strh	r2, [r4, #10]
2000575c:	6026      	str	r6, [r4, #0]
2000575e:	80a7      	strh	r7, [r4, #4]
20005760:	80e3      	strh	r3, [r4, #6]
20005762:	8122      	strh	r2, [r4, #8]
20005764:	b108      	cbz	r0, 2000576a <tu_fifo_config+0x4a>
20005766:	f002 ff3d 	bl	200085e4 <mutex_exit>
2000576a:	6920      	ldr	r0, [r4, #16]
2000576c:	b108      	cbz	r0, 20005772 <tu_fifo_config+0x52>
2000576e:	f002 ff39 	bl	200085e4 <mutex_exit>
20005772:	2001      	movs	r0, #1
20005774:	e8bd 81f0 	ldmia.w	sp!, {r4, r5, r6, r7, r8, pc}
20005778:	2000      	movs	r0, #0
2000577a:	e8bd 81f0 	ldmia.w	sp!, {r4, r5, r6, r7, r8, pc}
2000577e:	bf00      	nop

20005780 <tu_fifo_count>:
20005780:	8903      	ldrh	r3, [r0, #8]
20005782:	8942      	ldrh	r2, [r0, #10]
20005784:	b29b      	uxth	r3, r3
20005786:	b292      	uxth	r2, r2
20005788:	8880      	ldrh	r0, [r0, #4]
2000578a:	4293      	cmp	r3, r2
2000578c:	bf36      	itet	cc
2000578e:	ebc2 0240 	rsbcc	r2, r2, r0, lsl #1
20005792:	1a9b      	subcs	r3, r3, r2
20005794:	189b      	addcc	r3, r3, r2
20005796:	b29b      	uxth	r3, r3
20005798:	4298      	cmp	r0, r3
2000579a:	bf28      	it	cs
2000579c:	4618      	movcs	r0, r3
2000579e:	4770      	bx	lr

200057a0 <tu_fifo_empty>:
200057a0:	8902      	ldrh	r2, [r0, #8]
200057a2:	8943      	ldrh	r3, [r0, #10]
200057a4:	b290      	uxth	r0, r2
200057a6:	b29b      	uxth	r3, r3
200057a8:	1ac0      	subs	r0, r0, r3
200057aa:	fab0 f080 	clz	r0, r0
200057ae:	0940      	lsrs	r0, r0, #5
200057b0:	4770      	bx	lr
200057b2:	bf00      	nop

200057b4 <tu_fifo_remaining>:
200057b4:	8903      	ldrh	r3, [r0, #8]
200057b6:	8942      	ldrh	r2, [r0, #10]
200057b8:	b29b      	uxth	r3, r3
200057ba:	8880      	ldrh	r0, [r0, #4]
200057bc:	b292      	uxth	r2, r2
200057be:	4293      	cmp	r3, r2
200057c0:	bf36      	itet	cc
200057c2:	ebc2 0240 	rsbcc	r2, r2, r0, lsl #1
200057c6:	1a9b      	subcs	r3, r3, r2
200057c8:	189b      	addcc	r3, r3, r2
200057ca:	b29b      	uxth	r3, r3
200057cc:	4298      	cmp	r0, r3
200057ce:	bf86      	itte	hi
200057d0:	1ac0      	subhi	r0, r0, r3
200057d2:	b280      	uxthhi	r0, r0
200057d4:	2000      	movls	r0, #0
200057d6:	4770      	bx	lr

200057d8 <tu_fifo_read>:
200057d8:	b538      	push	{r3, r4, r5, lr}
200057da:	4604      	mov	r4, r0
200057dc:	6900      	ldr	r0, [r0, #16]
200057de:	460d      	mov	r5, r1
200057e0:	b118      	cbz	r0, 200057ea <tu_fifo_read+0x12>
200057e2:	f04f 31ff 	mov.w	r1, #4294967295	@ 0xffffffff
200057e6:	f002 fec1 	bl	2000856c <mutex_enter_timeout_ms>
200057ea:	8921      	ldrh	r1, [r4, #8]
200057ec:	8963      	ldrh	r3, [r4, #10]
200057ee:	b289      	uxth	r1, r1
200057f0:	b29b      	uxth	r3, r3
200057f2:	88a2      	ldrh	r2, [r4, #4]
200057f4:	4299      	cmp	r1, r3
200057f6:	bf36      	itet	cc
200057f8:	ebc3 0042 	rsbcc	r0, r3, r2, lsl #1
200057fc:	1ac8      	subcs	r0, r1, r3
200057fe:	1840      	addcc	r0, r0, r1
20005800:	b280      	uxth	r0, r0
20005802:	b350      	cbz	r0, 2000585a <tu_fifo_read+0x82>
20005804:	4282      	cmp	r2, r0
20005806:	d209      	bcs.n	2000581c <tu_fifo_read+0x44>
20005808:	4291      	cmp	r1, r2
2000580a:	bf2c      	ite	cs
2000580c:	1a89      	subcs	r1, r1, r2
2000580e:	1889      	addcc	r1, r1, r2
20005810:	b28b      	uxth	r3, r1
20005812:	429a      	cmp	r2, r3
20005814:	8163      	strh	r3, [r4, #10]
20005816:	d803      	bhi.n	20005820 <tu_fifo_read+0x48>
20005818:	1a9b      	subs	r3, r3, r2
2000581a:	b29b      	uxth	r3, r3
2000581c:	429a      	cmp	r2, r3
2000581e:	d9fb      	bls.n	20005818 <tu_fifo_read+0x40>
20005820:	88e2      	ldrh	r2, [r4, #6]
20005822:	6821      	ldr	r1, [r4, #0]
20005824:	f3c2 020e 	ubfx	r2, r2, #0, #15
20005828:	fb02 1103 	mla	r1, r2, r3, r1
2000582c:	4628      	mov	r0, r5
2000582e:	f002 fd4b 	bl	200082c8 <memcpy>
20005832:	8961      	ldrh	r1, [r4, #10]
20005834:	2501      	movs	r5, #1
20005836:	b289      	uxth	r1, r1
20005838:	1c4b      	adds	r3, r1, #1
2000583a:	b29b      	uxth	r3, r3
2000583c:	4299      	cmp	r1, r3
2000583e:	88a2      	ldrh	r2, [r4, #4]
20005840:	d90e      	bls.n	20005860 <tu_fifo_read+0x88>
20005842:	2300      	movs	r3, #0
20005844:	fa02 f105 	lsl.w	r1, r2, r5
20005848:	1a5b      	subs	r3, r3, r1
2000584a:	b29b      	uxth	r3, r3
2000584c:	6920      	ldr	r0, [r4, #16]
2000584e:	8163      	strh	r3, [r4, #10]
20005850:	b108      	cbz	r0, 20005856 <tu_fifo_read+0x7e>
20005852:	f002 fec7 	bl	200085e4 <mutex_exit>
20005856:	4628      	mov	r0, r5
20005858:	bd38      	pop	{r3, r4, r5, pc}
2000585a:	4605      	mov	r5, r0
2000585c:	8963      	ldrh	r3, [r4, #10]
2000585e:	b29b      	uxth	r3, r3
20005860:	ebb3 0f42 	cmp.w	r3, r2, lsl #1
20005864:	ea4f 0142 	mov.w	r1, r2, lsl #1
20005868:	dbf0      	blt.n	2000584c <tu_fifo_read+0x74>
2000586a:	e7ed      	b.n	20005848 <tu_fifo_read+0x70>

2000586c <tu_fifo_read_n>:
2000586c:	e92d 47f0 	stmdb	sp!, {r4, r5, r6, r7, r8, r9, sl, lr}
20005870:	4606      	mov	r6, r0
20005872:	6900      	ldr	r0, [r0, #16]
20005874:	4688      	mov	r8, r1
20005876:	4691      	mov	r9, r2
20005878:	b118      	cbz	r0, 20005882 <tu_fifo_read_n+0x16>
2000587a:	f04f 31ff 	mov.w	r1, #4294967295	@ 0xffffffff
2000587e:	f002 fe75 	bl	2000856c <mutex_enter_timeout_ms>
20005882:	8933      	ldrh	r3, [r6, #8]
20005884:	8974      	ldrh	r4, [r6, #10]
20005886:	b29b      	uxth	r3, r3
20005888:	b2a4      	uxth	r4, r4
2000588a:	88b5      	ldrh	r5, [r6, #4]
2000588c:	42a3      	cmp	r3, r4
2000588e:	bf36      	itet	cc
20005890:	ebc4 0745 	rsbcc	r7, r4, r5, lsl #1
20005894:	1b1f      	subcs	r7, r3, r4
20005896:	18ff      	addcc	r7, r7, r3
20005898:	b2bf      	uxth	r7, r7
2000589a:	2f00      	cmp	r7, #0
2000589c:	d04a      	beq.n	20005934 <tu_fifo_read_n+0xc8>
2000589e:	42bd      	cmp	r5, r7
200058a0:	d340      	bcc.n	20005924 <tu_fifo_read_n+0xb8>
200058a2:	45b9      	cmp	r9, r7
200058a4:	bf28      	it	cs
200058a6:	46b9      	movcs	r9, r7
200058a8:	42a5      	cmp	r5, r4
200058aa:	fa1f f789 	uxth.w	r7, r9
200058ae:	d803      	bhi.n	200058b8 <tu_fifo_read_n+0x4c>
200058b0:	1b64      	subs	r4, r4, r5
200058b2:	b2a4      	uxth	r4, r4
200058b4:	42a5      	cmp	r5, r4
200058b6:	d9fb      	bls.n	200058b0 <tu_fifo_read_n+0x44>
200058b8:	f8b6 a006 	ldrh.w	sl, [r6, #6]
200058bc:	1b2b      	subs	r3, r5, r4
200058be:	6831      	ldr	r1, [r6, #0]
200058c0:	b29b      	uxth	r3, r3
200058c2:	f3ca 020e 	ubfx	r2, sl, #0, #15
200058c6:	429f      	cmp	r7, r3
200058c8:	4692      	mov	sl, r2
200058ca:	fb02 1104 	mla	r1, r2, r4, r1
200058ce:	d923      	bls.n	20005918 <tu_fifo_read_n+0xac>
200058d0:	fb13 f302 	smulbb	r3, r3, r2
200058d4:	fa1f f983 	uxth.w	r9, r3
200058d8:	464a      	mov	r2, r9
200058da:	4640      	mov	r0, r8
200058dc:	1b7d      	subs	r5, r7, r5
200058de:	f002 fcf3 	bl	200082c8 <memcpy>
200058e2:	1962      	adds	r2, r4, r5
200058e4:	fb12 f20a 	smulbb	r2, r2, sl
200058e8:	6831      	ldr	r1, [r6, #0]
200058ea:	eb08 0009 	add.w	r0, r8, r9
200058ee:	b292      	uxth	r2, r2
200058f0:	f002 fcea 	bl	200082c8 <memcpy>
200058f4:	8972      	ldrh	r2, [r6, #10]
200058f6:	88b5      	ldrh	r5, [r6, #4]
200058f8:	b292      	uxth	r2, r2
200058fa:	19d3      	adds	r3, r2, r7
200058fc:	b29b      	uxth	r3, r3
200058fe:	429a      	cmp	r2, r3
20005900:	d91a      	bls.n	20005938 <tu_fifo_read_n+0xcc>
20005902:	006a      	lsls	r2, r5, #1
20005904:	1a9b      	subs	r3, r3, r2
20005906:	b29b      	uxth	r3, r3
20005908:	6930      	ldr	r0, [r6, #16]
2000590a:	8173      	strh	r3, [r6, #10]
2000590c:	b108      	cbz	r0, 20005912 <tu_fifo_read_n+0xa6>
2000590e:	f002 fe69 	bl	200085e4 <mutex_exit>
20005912:	4638      	mov	r0, r7
20005914:	e8bd 87f0 	ldmia.w	sp!, {r4, r5, r6, r7, r8, r9, sl, pc}
20005918:	4640      	mov	r0, r8
2000591a:	fb07 f202 	mul.w	r2, r7, r2
2000591e:	f002 fcd3 	bl	200082c8 <memcpy>
20005922:	e7e7      	b.n	200058f4 <tu_fifo_read_n+0x88>
20005924:	42ab      	cmp	r3, r5
20005926:	bf2c      	ite	cs
20005928:	1b5b      	subcs	r3, r3, r5
2000592a:	195b      	addcc	r3, r3, r5
2000592c:	b29c      	uxth	r4, r3
2000592e:	462f      	mov	r7, r5
20005930:	8174      	strh	r4, [r6, #10]
20005932:	e7b6      	b.n	200058a2 <tu_fifo_read_n+0x36>
20005934:	8973      	ldrh	r3, [r6, #10]
20005936:	b29b      	uxth	r3, r3
20005938:	ebb3 0f45 	cmp.w	r3, r5, lsl #1
2000593c:	ea4f 0245 	mov.w	r2, r5, lsl #1
20005940:	dbe2      	blt.n	20005908 <tu_fifo_read_n+0x9c>
20005942:	e7df      	b.n	20005904 <tu_fifo_read_n+0x98>

20005944 <tu_fifo_write>:
20005944:	b5f8      	push	{r3, r4, r5, r6, r7, lr}
20005946:	4604      	mov	r4, r0
20005948:	68c0      	ldr	r0, [r0, #12]
2000594a:	460e      	mov	r6, r1
2000594c:	b118      	cbz	r0, 20005956 <tu_fifo_write+0x12>
2000594e:	f04f 31ff 	mov.w	r1, #4294967295	@ 0xffffffff
20005952:	f002 fe0b 	bl	2000856c <mutex_enter_timeout_ms>
20005956:	8925      	ldrh	r5, [r4, #8]
20005958:	8923      	ldrh	r3, [r4, #8]
2000595a:	8961      	ldrh	r1, [r4, #10]
2000595c:	b29b      	uxth	r3, r3
2000595e:	b289      	uxth	r1, r1
20005960:	88a2      	ldrh	r2, [r4, #4]
20005962:	428b      	cmp	r3, r1
20005964:	bf36      	itet	cc
20005966:	ebc1 0142 	rsbcc	r1, r1, r2, lsl #1
2000596a:	1a5b      	subcs	r3, r3, r1
2000596c:	185b      	addcc	r3, r3, r1
2000596e:	b29b      	uxth	r3, r3
20005970:	429a      	cmp	r2, r3
20005972:	b2ad      	uxth	r5, r5
20005974:	d808      	bhi.n	20005988 <tu_fifo_write+0x44>
20005976:	79e7      	ldrb	r7, [r4, #7]
20005978:	09ff      	lsrs	r7, r7, #7
2000597a:	d105      	bne.n	20005988 <tu_fifo_write+0x44>
2000597c:	68e0      	ldr	r0, [r4, #12]
2000597e:	b108      	cbz	r0, 20005984 <tu_fifo_write+0x40>
20005980:	f002 fe30 	bl	200085e4 <mutex_exit>
20005984:	4638      	mov	r0, r7
20005986:	bdf8      	pop	{r3, r4, r5, r6, r7, pc}
20005988:	4295      	cmp	r5, r2
2000598a:	d319      	bcc.n	200059c0 <tu_fifo_write+0x7c>
2000598c:	462b      	mov	r3, r5
2000598e:	1a9b      	subs	r3, r3, r2
20005990:	b29b      	uxth	r3, r3
20005992:	4293      	cmp	r3, r2
20005994:	d2fb      	bcs.n	2000598e <tu_fifo_write+0x4a>
20005996:	88e2      	ldrh	r2, [r4, #6]
20005998:	6820      	ldr	r0, [r4, #0]
2000599a:	f3c2 020e 	ubfx	r2, r2, #0, #15
2000599e:	fb02 0003 	mla	r0, r2, r3, r0
200059a2:	4631      	mov	r1, r6
200059a4:	f002 fc90 	bl	200082c8 <memcpy>
200059a8:	1c6b      	adds	r3, r5, #1
200059aa:	b29b      	uxth	r3, r3
200059ac:	429d      	cmp	r5, r3
200059ae:	88a2      	ldrh	r2, [r4, #4]
200059b0:	d912      	bls.n	200059d8 <tu_fifo_write+0x94>
200059b2:	2300      	movs	r3, #0
200059b4:	0051      	lsls	r1, r2, #1
200059b6:	1a5b      	subs	r3, r3, r1
200059b8:	b29b      	uxth	r3, r3
200059ba:	2701      	movs	r7, #1
200059bc:	8123      	strh	r3, [r4, #8]
200059be:	e7dd      	b.n	2000597c <tu_fifo_write+0x38>
200059c0:	88e2      	ldrh	r2, [r4, #6]
200059c2:	6820      	ldr	r0, [r4, #0]
200059c4:	f3c2 020e 	ubfx	r2, r2, #0, #15
200059c8:	fb05 0002 	mla	r0, r5, r2, r0
200059cc:	4631      	mov	r1, r6
200059ce:	f002 fc7b 	bl	200082c8 <memcpy>
200059d2:	3501      	adds	r5, #1
200059d4:	88a2      	ldrh	r2, [r4, #4]
200059d6:	b2ab      	uxth	r3, r5
200059d8:	ebb3 0f42 	cmp.w	r3, r2, lsl #1
200059dc:	ea4f 0142 	mov.w	r1, r2, lsl #1
200059e0:	dbeb      	blt.n	200059ba <tu_fifo_write+0x76>
200059e2:	e7e8      	b.n	200059b6 <tu_fifo_write+0x72>

200059e4 <tu_fifo_write_n>:
200059e4:	e92d 4ff0 	stmdb	sp!, {r4, r5, r6, r7, r8, r9, sl, fp, lr}
200059e8:	4616      	mov	r6, r2
200059ea:	b083      	sub	sp, #12
200059ec:	2a00      	cmp	r2, #0
200059ee:	d04c      	beq.n	20005a8a <tu_fifo_write_n+0xa6>
200059f0:	4605      	mov	r5, r0
200059f2:	68c0      	ldr	r0, [r0, #12]
200059f4:	4688      	mov	r8, r1
200059f6:	b118      	cbz	r0, 20005a00 <tu_fifo_write_n+0x1c>
200059f8:	f04f 31ff 	mov.w	r1, #4294967295	@ 0xffffffff
200059fc:	f002 fdb6 	bl	2000856c <mutex_enter_timeout_ms>
20005a00:	79ea      	ldrb	r2, [r5, #7]
20005a02:	892f      	ldrh	r7, [r5, #8]
20005a04:	8969      	ldrh	r1, [r5, #10]
20005a06:	09d2      	lsrs	r2, r2, #7
20005a08:	88ab      	ldrh	r3, [r5, #4]
20005a0a:	b2bf      	uxth	r7, r7
20005a0c:	b289      	uxth	r1, r1
20005a0e:	d140      	bne.n	20005a92 <tu_fifo_write_n+0xae>
20005a10:	428f      	cmp	r7, r1
20005a12:	bf36      	itet	cc
20005a14:	ebc1 0143 	rsbcc	r1, r1, r3, lsl #1
20005a18:	1a79      	subcs	r1, r7, r1
20005a1a:	19c9      	addcc	r1, r1, r7
20005a1c:	b289      	uxth	r1, r1
20005a1e:	4299      	cmp	r1, r3
20005a20:	d241      	bcs.n	20005aa6 <tu_fifo_write_n+0xc2>
20005a22:	1a59      	subs	r1, r3, r1
20005a24:	b289      	uxth	r1, r1
20005a26:	428e      	cmp	r6, r1
20005a28:	bf28      	it	cs
20005a2a:	460e      	movcs	r6, r1
20005a2c:	f8b5 a006 	ldrh.w	sl, [r5, #6]
20005a30:	eb07 0906 	add.w	r9, r7, r6
20005a34:	eba6 0b03 	sub.w	fp, r6, r3
20005a38:	f3ca 0a0e 	ubfx	sl, sl, #0, #15
20005a3c:	fa1f f989 	uxth.w	r9, r9
20005a40:	fa1f fb8b 	uxth.w	fp, fp
20005a44:	429f      	cmp	r7, r3
20005a46:	463c      	mov	r4, r7
20005a48:	d303      	bcc.n	20005a52 <tu_fifo_write_n+0x6e>
20005a4a:	1ae4      	subs	r4, r4, r3
20005a4c:	b2a4      	uxth	r4, r4
20005a4e:	429c      	cmp	r4, r3
20005a50:	d2fb      	bcs.n	20005a4a <tu_fifo_write_n+0x66>
20005a52:	1b1b      	subs	r3, r3, r4
20005a54:	6828      	ldr	r0, [r5, #0]
20005a56:	b29b      	uxth	r3, r3
20005a58:	42b3      	cmp	r3, r6
20005a5a:	fb0a 0004 	mla	r0, sl, r4, r0
20005a5e:	d34b      	bcc.n	20005af8 <tu_fifo_write_n+0x114>
20005a60:	4641      	mov	r1, r8
20005a62:	fb0a f206 	mul.w	r2, sl, r6
20005a66:	f002 fc2f 	bl	200082c8 <memcpy>
20005a6a:	88aa      	ldrh	r2, [r5, #4]
20005a6c:	454f      	cmp	r7, r9
20005a6e:	ea4f 0342 	mov.w	r3, r2, lsl #1
20005a72:	d802      	bhi.n	20005a7a <tu_fifo_write_n+0x96>
20005a74:	ebb9 0f42 	cmp.w	r9, r2, lsl #1
20005a78:	db03      	blt.n	20005a82 <tu_fifo_write_n+0x9e>
20005a7a:	eba9 0303 	sub.w	r3, r9, r3
20005a7e:	fa1f f983 	uxth.w	r9, r3
20005a82:	68e8      	ldr	r0, [r5, #12]
20005a84:	f8a5 9008 	strh.w	r9, [r5, #8]
20005a88:	b988      	cbnz	r0, 20005aae <tu_fifo_write_n+0xca>
20005a8a:	4630      	mov	r0, r6
20005a8c:	b003      	add	sp, #12
20005a8e:	e8bd 8ff0 	ldmia.w	sp!, {r4, r5, r6, r7, r8, r9, sl, fp, pc}
20005a92:	f8b5 a006 	ldrh.w	sl, [r5, #6]
20005a96:	429e      	cmp	r6, r3
20005a98:	f3ca 0a0e 	ubfx	sl, sl, #0, #15
20005a9c:	d30d      	bcc.n	20005aba <tu_fifo_write_n+0xd6>
20005a9e:	2b00      	cmp	r3, #0
20005aa0:	d13f      	bne.n	20005b22 <tu_fifo_write_n+0x13e>
20005aa2:	461e      	mov	r6, r3
20005aa4:	e000      	b.n	20005aa8 <tu_fifo_write_n+0xc4>
20005aa6:	2600      	movs	r6, #0
20005aa8:	68e8      	ldr	r0, [r5, #12]
20005aaa:	2800      	cmp	r0, #0
20005aac:	d0ed      	beq.n	20005a8a <tu_fifo_write_n+0xa6>
20005aae:	f002 fd99 	bl	200085e4 <mutex_exit>
20005ab2:	4630      	mov	r0, r6
20005ab4:	b003      	add	sp, #12
20005ab6:	e8bd 8ff0 	ldmia.w	sp!, {r4, r5, r6, r7, r8, r9, sl, fp, pc}
20005aba:	428f      	cmp	r7, r1
20005abc:	bf36      	itet	cc
20005abe:	ebc1 0243 	rsbcc	r2, r1, r3, lsl #1
20005ac2:	1a7a      	subcs	r2, r7, r1
20005ac4:	19d2      	addcc	r2, r2, r7
20005ac6:	b292      	uxth	r2, r2
20005ac8:	0058      	lsls	r0, r3, #1
20005aca:	4432      	add	r2, r6
20005acc:	eba6 0b03 	sub.w	fp, r6, r3
20005ad0:	4282      	cmp	r2, r0
20005ad2:	fa1f fb8b 	uxth.w	fp, fp
20005ad6:	db0a      	blt.n	20005aee <tu_fifo_write_n+0x10a>
20005ad8:	eb01 0903 	add.w	r9, r1, r3
20005adc:	fa1f f989 	uxth.w	r9, r9
20005ae0:	eba9 0706 	sub.w	r7, r9, r6
20005ae4:	b2bf      	uxth	r7, r7
20005ae6:	42b9      	cmp	r1, r7
20005ae8:	d918      	bls.n	20005b1c <tu_fifo_write_n+0x138>
20005aea:	1a38      	subs	r0, r7, r0
20005aec:	b287      	uxth	r7, r0
20005aee:	eb06 0907 	add.w	r9, r6, r7
20005af2:	fa1f f989 	uxth.w	r9, r9
20005af6:	e7a5      	b.n	20005a44 <tu_fifo_write_n+0x60>
20005af8:	fb13 f30a 	smulbb	r3, r3, sl
20005afc:	445c      	add	r4, fp
20005afe:	fb14 f40a 	smulbb	r4, r4, sl
20005b02:	b29a      	uxth	r2, r3
20005b04:	4641      	mov	r1, r8
20005b06:	9201      	str	r2, [sp, #4]
20005b08:	f002 fbde 	bl	200082c8 <memcpy>
20005b0c:	9a01      	ldr	r2, [sp, #4]
20005b0e:	6828      	ldr	r0, [r5, #0]
20005b10:	eb08 0102 	add.w	r1, r8, r2
20005b14:	b2a2      	uxth	r2, r4
20005b16:	f002 fbd7 	bl	200082c8 <memcpy>
20005b1a:	e7a6      	b.n	20005a6a <tu_fifo_write_n+0x86>
20005b1c:	42b8      	cmp	r0, r7
20005b1e:	dc91      	bgt.n	20005a44 <tu_fifo_write_n+0x60>
20005b20:	e7e3      	b.n	20005aea <tu_fifo_write_n+0x106>
20005b22:	1af6      	subs	r6, r6, r3
20005b24:	eb01 0903 	add.w	r9, r1, r3
20005b28:	fb0a 8806 	mla	r8, sl, r6, r8
20005b2c:	460f      	mov	r7, r1
20005b2e:	461e      	mov	r6, r3
20005b30:	f04f 0b00 	mov.w	fp, #0
20005b34:	fa1f f989 	uxth.w	r9, r9
20005b38:	e784      	b.n	20005a44 <tu_fifo_write_n+0x60>
20005b3a:	bf00      	nop

20005b3c <tu_fifo_clear>:
20005b3c:	b510      	push	{r4, lr}
20005b3e:	4604      	mov	r4, r0
20005b40:	68c0      	ldr	r0, [r0, #12]
20005b42:	b118      	cbz	r0, 20005b4c <tu_fifo_clear+0x10>
20005b44:	f04f 31ff 	mov.w	r1, #4294967295	@ 0xffffffff
20005b48:	f002 fd10 	bl	2000856c <mutex_enter_timeout_ms>
20005b4c:	6920      	ldr	r0, [r4, #16]
20005b4e:	b118      	cbz	r0, 20005b58 <tu_fifo_clear+0x1c>
20005b50:	f04f 31ff 	mov.w	r1, #4294967295	@ 0xffffffff
20005b54:	f002 fd0a 	bl	2000856c <mutex_enter_timeout_ms>
20005b58:	2300      	movs	r3, #0
20005b5a:	68e0      	ldr	r0, [r4, #12]
20005b5c:	8163      	strh	r3, [r4, #10]
20005b5e:	8123      	strh	r3, [r4, #8]
20005b60:	b108      	cbz	r0, 20005b66 <tu_fifo_clear+0x2a>
20005b62:	f002 fd3f 	bl	200085e4 <mutex_exit>
20005b66:	6920      	ldr	r0, [r4, #16]
20005b68:	b108      	cbz	r0, 20005b6e <tu_fifo_clear+0x32>
20005b6a:	f002 fd3b 	bl	200085e4 <mutex_exit>
20005b6e:	2001      	movs	r0, #1
20005b70:	bd10      	pop	{r4, pc}
20005b72:	bf00      	nop

20005b74 <tu_fifo_set_overwritable>:
20005b74:	b538      	push	{r3, r4, r5, lr}
20005b76:	4604      	mov	r4, r0
20005b78:	68c0      	ldr	r0, [r0, #12]
20005b7a:	460d      	mov	r5, r1
20005b7c:	b118      	cbz	r0, 20005b86 <tu_fifo_set_overwritable+0x12>
20005b7e:	f04f 31ff 	mov.w	r1, #4294967295	@ 0xffffffff
20005b82:	f002 fcf3 	bl	2000856c <mutex_enter_timeout_ms>
20005b86:	6920      	ldr	r0, [r4, #16]
20005b88:	b118      	cbz	r0, 20005b92 <tu_fifo_set_overwritable+0x1e>
20005b8a:	f04f 31ff 	mov.w	r1, #4294967295	@ 0xffffffff
20005b8e:	f002 fced 	bl	2000856c <mutex_enter_timeout_ms>
20005b92:	79e3      	ldrb	r3, [r4, #7]
20005b94:	68e0      	ldr	r0, [r4, #12]
20005b96:	f365 13c7 	bfi	r3, r5, #7, #1
20005b9a:	71e3      	strb	r3, [r4, #7]
20005b9c:	b108      	cbz	r0, 20005ba2 <tu_fifo_set_overwritable+0x2e>
20005b9e:	f002 fd21 	bl	200085e4 <mutex_exit>
20005ba2:	6920      	ldr	r0, [r4, #16]
20005ba4:	b108      	cbz	r0, 20005baa <tu_fifo_set_overwritable+0x36>
20005ba6:	f002 fd1d 	bl	200085e4 <mutex_exit>
20005baa:	2001      	movs	r0, #1
20005bac:	bd38      	pop	{r3, r4, r5, pc}
20005bae:	bf00      	nop

20005bb0 <rp2040_usb_device_enumeration_fix>:
20005bb0:	4770      	bx	lr
20005bb2:	bf00      	nop

20005bb4 <board_init>:
20005bb4:	b510      	push	{r4, lr}
20005bb6:	2019      	movs	r0, #25
20005bb8:	f7fc ffb6 	bl	20002b28 <gpio_init>
20005bbc:	2219      	movs	r2, #25
20005bbe:	2301      	movs	r3, #1
20005bc0:	ec43 2044 	gpioc_bit_oe_put r2, r3
20005bc4:	4c04      	ldr	r4, [pc, #16]	@ (20005bd8 <board_init+0x24>)
20005bc6:	4805      	ldr	r0, [pc, #20]	@ (20005bdc <board_init+0x28>)
20005bc8:	2200      	movs	r2, #0
20005bca:	6020      	str	r0, [r4, #0]
20005bcc:	f44f 31e1 	mov.w	r1, #115200	@ 0x1c200
20005bd0:	e8bd 4010 	ldmia.w	sp!, {r4, lr}
20005bd4:	f7fd bd68 	b.w	200036a8 <stdio_uart_init_full>
20005bd8:	2000f964 	.word	0x2000f964
20005bdc:	40070000 	.word	0x40070000

20005be0 <pio_add_program>:
20005be0:	e92d 47f0 	stmdb	sp!, {r4, r5, r6, r7, r8, r9, sl, lr}
20005be4:	4689      	mov	r9, r1
20005be6:	4605      	mov	r5, r0
20005be8:	f7fc fbdc 	bl	200023a4 <hw_claim_lock>
20005bec:	2301      	movs	r3, #1
20005bee:	f899 2004 	ldrb.w	r2, [r9, #4]
20005bf2:	f999 c005 	ldrsb.w	ip, [r9, #5]
20005bf6:	f105 4e2f 	add.w	lr, r5, #2936012800	@ 0xaf000000
20005bfa:	f8df 80d8 	ldr.w	r8, [pc, #216]	@ 20005cd4 <pio_add_program+0xf4>
20005bfe:	f50e 0e60 	add.w	lr, lr, #14680064	@ 0xe00000
20005c02:	4093      	lsls	r3, r2
20005c04:	ea4f 5e1e 	mov.w	lr, lr, lsr #20
20005c08:	f1bc 0f00 	cmp.w	ip, #0
20005c0c:	f858 702e 	ldr.w	r7, [r8, lr, lsl #2]
20005c10:	f103 33ff 	add.w	r3, r3, #4294967295	@ 0xffffffff
20005c14:	db46      	blt.n	20005ca4 <pio_add_program+0xc4>
20005c16:	f1c2 0120 	rsb	r1, r2, #32
20005c1a:	458c      	cmp	ip, r1
20005c1c:	4664      	mov	r4, ip
20005c1e:	dc31      	bgt.n	20005c84 <pio_add_program+0xa4>
20005c20:	fa03 f10c 	lsl.w	r1, r3, ip
20005c24:	4239      	tst	r1, r7
20005c26:	d12d      	bne.n	20005c84 <pio_add_program+0xa4>
20005c28:	4666      	mov	r6, ip
20005c2a:	f8d5 a168 	ldr.w	sl, [r5, #360]	@ 0x168
20005c2e:	f899 1007 	ldrb.w	r1, [r9, #7]
20005c32:	f1ba 0f00 	cmp.w	sl, #0
20005c36:	d02c      	beq.n	20005c92 <pio_add_program+0xb2>
20005c38:	07c9      	lsls	r1, r1, #31
20005c3a:	d42c      	bmi.n	20005c96 <pio_add_program+0xb6>
20005c3c:	f1bc 0f00 	cmp.w	ip, #0
20005c40:	db01      	blt.n	20005c46 <pio_add_program+0x66>
20005c42:	4566      	cmp	r6, ip
20005c44:	d127      	bne.n	20005c96 <pio_add_program+0xb6>
20005c46:	40b3      	lsls	r3, r6
20005c48:	421f      	tst	r7, r3
20005c4a:	d13c      	bne.n	20005cc6 <pio_add_program+0xe6>
20005c4c:	f8d9 1000 	ldr.w	r1, [r9]
20005c50:	b182      	cbz	r2, 20005c74 <pio_add_program+0x94>
20005c52:	46b4      	mov	ip, r6
20005c54:	eb01 0942 	add.w	r9, r1, r2, lsl #1
20005c58:	f831 2b02 	ldrh.w	r2, [r1], #2
20005c5c:	f10c 0a12 	add.w	sl, ip, #18
20005c60:	f5b2 5f00 	cmp.w	r2, #8192	@ 0x2000
20005c64:	bf38      	it	cc
20005c66:	1992      	addcc	r2, r2, r6
20005c68:	4549      	cmp	r1, r9
20005c6a:	f10c 0c01 	add.w	ip, ip, #1
20005c6e:	f845 202a 	str.w	r2, [r5, sl, lsl #2]
20005c72:	d1f1      	bne.n	20005c58 <pio_add_program+0x78>
20005c74:	433b      	orrs	r3, r7
20005c76:	f848 302e 	str.w	r3, [r8, lr, lsl #2]
20005c7a:	f7fc fba5 	bl	200023c8 <hw_claim_unlock>
20005c7e:	4620      	mov	r0, r4
20005c80:	e8bd 87f0 	ldmia.w	sp!, {r4, r5, r6, r7, r8, r9, sl, pc}
20005c84:	f04f 34ff 	mov.w	r4, #4294967295	@ 0xffffffff
20005c88:	f7fc fb9e 	bl	200023c8 <hw_claim_unlock>
20005c8c:	4620      	mov	r0, r4
20005c8e:	e8bd 87f0 	ldmia.w	sp!, {r4, r5, r6, r7, r8, r9, sl, pc}
20005c92:	0749      	lsls	r1, r1, #29
20005c94:	d5d2      	bpl.n	20005c3c <pio_add_program+0x5c>
20005c96:	f06f 040a 	mvn.w	r4, #10
20005c9a:	f7fc fb95 	bl	200023c8 <hw_claim_unlock>
20005c9e:	4620      	mov	r0, r4
20005ca0:	e8bd 87f0 	ldmia.w	sp!, {r4, r5, r6, r7, r8, r9, sl, pc}
20005ca4:	f1d2 0420 	rsbs	r4, r2, #32
20005ca8:	d40d      	bmi.n	20005cc6 <pio_add_program+0xe6>
20005caa:	fa03 f104 	lsl.w	r1, r3, r4
20005cae:	4239      	tst	r1, r7
20005cb0:	4626      	mov	r6, r4
20005cb2:	d103      	bne.n	20005cbc <pio_add_program+0xdc>
20005cb4:	e7b9      	b.n	20005c2a <pio_add_program+0x4a>
20005cb6:	4239      	tst	r1, r7
20005cb8:	4626      	mov	r6, r4
20005cba:	d0b6      	beq.n	20005c2a <pio_add_program+0x4a>
20005cbc:	3c01      	subs	r4, #1
20005cbe:	1c66      	adds	r6, r4, #1
20005cc0:	fa03 f104 	lsl.w	r1, r3, r4
20005cc4:	d1f7      	bne.n	20005cb6 <pio_add_program+0xd6>
20005cc6:	f06f 0408 	mvn.w	r4, #8
20005cca:	f7fc fb7d 	bl	200023c8 <hw_claim_unlock>
20005cce:	4620      	mov	r0, r4
20005cd0:	e8bd 87f0 	ldmia.w	sp!, {r4, r5, r6, r7, r8, r9, sl, pc}
20005cd4:	2000b108 	.word	0x2000b108

20005cd8 <pio_remove_program>:
20005cd8:	b538      	push	{r3, r4, r5, lr}
20005cda:	2501      	movs	r5, #1
20005cdc:	4604      	mov	r4, r0
20005cde:	790b      	ldrb	r3, [r1, #4]
20005ce0:	409d      	lsls	r5, r3
20005ce2:	3d01      	subs	r5, #1
20005ce4:	4095      	lsls	r5, r2
20005ce6:	f7fc fb5d 	bl	200023a4 <hw_claim_lock>
20005cea:	f104 432f 	add.w	r3, r4, #2936012800	@ 0xaf000000
20005cee:	4907      	ldr	r1, [pc, #28]	@ (20005d0c <pio_remove_program+0x34>)
20005cf0:	f503 0360 	add.w	r3, r3, #14680064	@ 0xe00000
20005cf4:	0d1b      	lsrs	r3, r3, #20
20005cf6:	f851 2023 	ldr.w	r2, [r1, r3, lsl #2]
20005cfa:	ea22 0205 	bic.w	r2, r2, r5
20005cfe:	f841 2023 	str.w	r2, [r1, r3, lsl #2]
20005d02:	e8bd 4038 	ldmia.w	sp!, {r3, r4, r5, lr}
20005d06:	f7fc bb5f 	b.w	200023c8 <hw_claim_unlock>
20005d0a:	bf00      	nop
20005d0c:	2000b108 	.word	0x2000b108

20005d10 <pio_sm_set_consecutive_pindirs>:
20005d10:	e92d 41f0 	stmdb	sp!, {r4, r5, r6, r7, r8, lr}
20005d14:	f8d0 4168 	ldr.w	r4, [r0, #360]	@ 0x168
20005d18:	f89d 6018 	ldrb.w	r6, [sp, #24]
20005d1c:	1b12      	subs	r2, r2, r4
20005d1e:	2a1f      	cmp	r2, #31
20005d20:	d838      	bhi.n	20005d94 <pio_sm_set_consecutive_pindirs+0x84>
20005d22:	f24e 049f 	movw	r4, #57503	@ 0xe09f
20005d26:	f24e 0580 	movw	r5, #57472	@ 0xe080
20005d2a:	f44f 3800 	mov.w	r8, #131072	@ 0x20000
20005d2e:	eb01 0c41 	add.w	ip, r1, r1, lsl #1
20005d32:	2e00      	cmp	r6, #0
20005d34:	bf18      	it	ne
20005d36:	4625      	movne	r5, r4
20005d38:	eb00 04cc 	add.w	r4, r0, ip, lsl #3
20005d3c:	f504 5443 	add.w	r4, r4, #12480	@ 0x30c0
20005d40:	eb00 0ccc 	add.w	ip, r0, ip, lsl #3
20005d44:	2b05      	cmp	r3, #5
20005d46:	f8dc 70dc 	ldr.w	r7, [ip, #220]	@ 0xdc
20005d4a:	ea4f 0e41 	mov.w	lr, r1, lsl #1
20005d4e:	f8dc 60cc 	ldr.w	r6, [ip, #204]	@ 0xcc
20005d52:	f8c4 800c 	str.w	r8, [r4, #12]
20005d56:	d90c      	bls.n	20005d72 <pio_sm_set_consecutive_pindirs+0x62>
20005d58:	0154      	lsls	r4, r2, #5
20005d5a:	3b05      	subs	r3, #5
20005d5c:	f044 54a0 	orr.w	r4, r4, #335544320	@ 0x14000000
20005d60:	3205      	adds	r2, #5
20005d62:	2b05      	cmp	r3, #5
20005d64:	f8cc 40dc 	str.w	r4, [ip, #220]	@ 0xdc
20005d68:	f002 021f 	and.w	r2, r2, #31
20005d6c:	f8cc 50d8 	str.w	r5, [ip, #216]	@ 0xd8
20005d70:	d8f2      	bhi.n	20005d58 <pio_sm_set_consecutive_pindirs+0x48>
20005d72:	4471      	add	r1, lr
20005d74:	eb00 01c1 	add.w	r1, r0, r1, lsl #3
20005d78:	2000      	movs	r0, #0
20005d7a:	0152      	lsls	r2, r2, #5
20005d7c:	ea42 6383 	orr.w	r3, r2, r3, lsl #26
20005d80:	f8c1 30dc 	str.w	r3, [r1, #220]	@ 0xdc
20005d84:	f8c1 50d8 	str.w	r5, [r1, #216]	@ 0xd8
20005d88:	f8c1 70dc 	str.w	r7, [r1, #220]	@ 0xdc
20005d8c:	f8c1 60cc 	str.w	r6, [r1, #204]	@ 0xcc
20005d90:	e8bd 81f0 	ldmia.w	sp!, {r4, r5, r6, r7, r8, pc}
20005d94:	f06f 0004 	mvn.w	r0, #4
20005d98:	e7fa      	b.n	20005d90 <pio_sm_set_consecutive_pindirs+0x80>
20005d9a:	bf00      	nop

20005d9c <pio_sm_init>:
20005d9c:	b5f0      	push	{r4, r5, r6, r7, lr}
20005d9e:	2501      	movs	r5, #1
20005da0:	6804      	ldr	r4, [r0, #0]
20005da2:	408d      	lsls	r5, r1
20005da4:	ea24 0405 	bic.w	r4, r4, r5
20005da8:	6004      	str	r4, [r0, #0]
20005daa:	b3b3      	cbz	r3, 20005e1a <pio_sm_init+0x7e>
20005dac:	e9d3 5601 	ldrd	r5, r6, [r3, #4]
20005db0:	681f      	ldr	r7, [r3, #0]
20005db2:	68dc      	ldr	r4, [r3, #12]
20005db4:	eb01 0341 	add.w	r3, r1, r1, lsl #1
20005db8:	eb00 03c3 	add.w	r3, r0, r3, lsl #3
20005dbc:	f8c3 70c8 	str.w	r7, [r3, #200]	@ 0xc8
20005dc0:	ea4f 0c41 	mov.w	ip, r1, lsl #1
20005dc4:	f8c3 60d0 	str.w	r6, [r3, #208]	@ 0xd0
20005dc8:	f8c3 50cc 	str.w	r5, [r3, #204]	@ 0xcc
20005dcc:	f8c3 40dc 	str.w	r4, [r3, #220]	@ 0xdc
20005dd0:	eb0c 0301 	add.w	r3, ip, r1
20005dd4:	f04f 3501 	mov.w	r5, #16843009	@ 0x1010101
20005dd8:	eb00 0cc3 	add.w	ip, r0, r3, lsl #3
20005ddc:	f04f 4600 	mov.w	r6, #2147483648	@ 0x80000000
20005de0:	eb00 0ec3 	add.w	lr, r0, r3, lsl #3
20005de4:	2301      	movs	r3, #1
20005de6:	f50e 5e86 	add.w	lr, lr, #4288	@ 0x10c0
20005dea:	1d0c      	adds	r4, r1, #4
20005dec:	f101 0708 	add.w	r7, r1, #8
20005df0:	408d      	lsls	r5, r1
20005df2:	f8ce 6010 	str.w	r6, [lr, #16]
20005df6:	fa03 f404 	lsl.w	r4, r3, r4
20005dfa:	f8ce 6010 	str.w	r6, [lr, #16]
20005dfe:	f002 021f 	and.w	r2, r2, #31
20005e02:	6085      	str	r5, [r0, #8]
20005e04:	40bb      	lsls	r3, r7
20005e06:	f500 5000 	add.w	r0, r0, #8192	@ 0x2000
20005e0a:	6004      	str	r4, [r0, #0]
20005e0c:	f10e 0e10 	add.w	lr, lr, #16
20005e10:	6003      	str	r3, [r0, #0]
20005e12:	2000      	movs	r0, #0
20005e14:	f8cc 20d8 	str.w	r2, [ip, #216]	@ 0xd8
20005e18:	bdf0      	pop	{r4, r5, r6, r7, pc}
20005e1a:	f44f 3780 	mov.w	r7, #65536	@ 0x10000
20005e1e:	f44f 2640 	mov.w	r6, #786432	@ 0xc0000
20005e22:	f44f 35f8 	mov.w	r5, #126976	@ 0x1f000
20005e26:	eb01 0441 	add.w	r4, r1, r1, lsl #1
20005e2a:	eb00 04c4 	add.w	r4, r0, r4, lsl #3
20005e2e:	f8c4 70c8 	str.w	r7, [r4, #200]	@ 0xc8
20005e32:	ea4f 0c41 	mov.w	ip, r1, lsl #1
20005e36:	f8c4 60d0 	str.w	r6, [r4, #208]	@ 0xd0
20005e3a:	f8c4 50cc 	str.w	r5, [r4, #204]	@ 0xcc
20005e3e:	f8c4 30dc 	str.w	r3, [r4, #220]	@ 0xdc
20005e42:	e7c5      	b.n	20005dd0 <pio_sm_init+0x34>

20005e44 <prvTaskExitError>:
20005e44:	2300      	movs	r3, #0
20005e46:	b500      	push	{lr}
20005e48:	b083      	sub	sp, #12
20005e4a:	9301      	str	r3, [sp, #4]
20005e4c:	f000 faf0 	bl	20006430 <ulSetInterruptMask>
20005e50:	9b01      	ldr	r3, [sp, #4]
20005e52:	2b00      	cmp	r3, #0
20005e54:	d0fc      	beq.n	20005e50 <prvTaskExitError+0xc>
20005e56:	b003      	add	sp, #12
20005e58:	f85d fb04 	ldr.w	pc, [sp], #4

20005e5c <SysTick_Handler>:
20005e5c:	b510      	push	{r4, lr}
20005e5e:	f000 fae7 	bl	20006430 <ulSetInterruptMask>
20005e62:	4604      	mov	r4, r0
20005e64:	f001 fa6e 	bl	20007344 <xTaskIncrementTick>
20005e68:	b128      	cbz	r0, 20005e76 <SysTick_Handler+0x1a>
20005e6a:	f04f 23e0 	mov.w	r3, #3758153728	@ 0xe000e000
20005e6e:	f04f 5280 	mov.w	r2, #268435456	@ 0x10000000
20005e72:	f8c3 2d04 	str.w	r2, [r3, #3332]	@ 0xd04
20005e76:	4620      	mov	r0, r4
20005e78:	e8bd 4010 	ldmia.w	sp!, {r4, lr}
20005e7c:	f000 bae4 	b.w	20006448 <vClearInterruptMask>

20005e80 <prvDoorbellInterruptHandler>:
20005e80:	4b1f      	ldr	r3, [pc, #124]	@ (20005f00 <prvDoorbellInterruptHandler+0x80>)
20005e82:	f993 3000 	ldrsb.w	r3, [r3]
20005e86:	2b00      	cmp	r3, #0
20005e88:	db08      	blt.n	20005e9c <prvDoorbellInterruptHandler+0x1c>
20005e8a:	f04f 4150 	mov.w	r1, #3489660928	@ 0xd0000000
20005e8e:	2201      	movs	r2, #1
20005e90:	f8d1 0188 	ldr.w	r0, [r1, #392]	@ 0x188
20005e94:	fa02 f303 	lsl.w	r3, r2, r3
20005e98:	4218      	tst	r0, r3
20005e9a:	d100      	bne.n	20005e9e <prvDoorbellInterruptHandler+0x1e>
20005e9c:	4770      	bx	lr
20005e9e:	2200      	movs	r2, #0
20005ea0:	b500      	push	{lr}
20005ea2:	4818      	ldr	r0, [pc, #96]	@ (20005f04 <prvDoorbellInterruptHandler+0x84>)
20005ea4:	b083      	sub	sp, #12
20005ea6:	f8c1 318c 	str.w	r3, [r1, #396]	@ 0x18c
20005eaa:	6803      	ldr	r3, [r0, #0]
20005eac:	9201      	str	r2, [sp, #4]
20005eae:	f3ef 8c10 	mrs	ip, PRIMASK
20005eb2:	b672      	cpsid	i
20005eb4:	e8d3 efcf 	ldaexb	lr, [r3]
20005eb8:	2101      	movs	r1, #1
20005eba:	f1be 0f00 	cmp.w	lr, #0
20005ebe:	d1f9      	bne.n	20005eb4 <prvDoorbellInterruptHandler+0x34>
20005ec0:	e8c3 1f4e 	strexb	lr, r1, [r3]
20005ec4:	f1be 0f00 	cmp.w	lr, #0
20005ec8:	d1f4      	bne.n	20005eb4 <prvDoorbellInterruptHandler+0x34>
20005eca:	f3bf 8f5f 	dmb	sy
20005ece:	4b0e      	ldr	r3, [pc, #56]	@ (20005f08 <prvDoorbellInterruptHandler+0x88>)
20005ed0:	6800      	ldr	r0, [r0, #0]
20005ed2:	6819      	ldr	r1, [r3, #0]
20005ed4:	601a      	str	r2, [r3, #0]
20005ed6:	e8c0 2f8f 	stlb	r2, [r0]
20005eda:	f38c 8810 	msr	PRIMASK, ip
20005ede:	4b0b      	ldr	r3, [pc, #44]	@ (20005f0c <prvDoorbellInterruptHandler+0x8c>)
20005ee0:	aa01      	add	r2, sp, #4
20005ee2:	6818      	ldr	r0, [r3, #0]
20005ee4:	f000 fbd2 	bl	2000668c <xEventGroupSetBitsFromISR>
20005ee8:	9b01      	ldr	r3, [sp, #4]
20005eea:	b12b      	cbz	r3, 20005ef8 <prvDoorbellInterruptHandler+0x78>
20005eec:	f04f 23e0 	mov.w	r3, #3758153728	@ 0xe000e000
20005ef0:	f04f 5280 	mov.w	r2, #268435456	@ 0x10000000
20005ef4:	f8c3 2d04 	str.w	r2, [r3, #3332]	@ 0xd04
20005ef8:	b003      	add	sp, #12
20005efa:	f85d fb04 	ldr.w	pc, [sp], #4
20005efe:	bf00      	nop
20005f00:	2000977d 	.word	0x2000977d
20005f04:	2000f670 	.word	0x2000f670
20005f08:	2001f988 	.word	0x2001f988
20005f0c:	2001f9f8 	.word	0x2001f9f8

20005f10 <vPortSetupTimerInterrupt>:
20005f10:	b510      	push	{r4, lr}
20005f12:	2204      	movs	r2, #4
20005f14:	f04f 24e0 	mov.w	r4, #3758153728	@ 0xe000e000
20005f18:	2300      	movs	r3, #0
20005f1a:	6122      	str	r2, [r4, #16]
20005f1c:	2005      	movs	r0, #5
20005f1e:	61a3      	str	r3, [r4, #24]
20005f20:	f7fc ffa0 	bl	20002e64 <clock_get_hz>
20005f24:	2107      	movs	r1, #7
20005f26:	4b04      	ldr	r3, [pc, #16]	@ (20005f38 <vPortSetupTimerInterrupt+0x28>)
20005f28:	fba3 2300 	umull	r2, r3, r3, r0
20005f2c:	0b9b      	lsrs	r3, r3, #14
20005f2e:	3b01      	subs	r3, #1
20005f30:	6163      	str	r3, [r4, #20]
20005f32:	6121      	str	r1, [r4, #16]
20005f34:	bd10      	pop	{r4, pc}
20005f36:	bf00      	nop
20005f38:	d1b71759 	.word	0xd1b71759

20005f3c <vPortYield>:
20005f3c:	f04f 23e0 	mov.w	r3, #3758153728	@ 0xe000e000
20005f40:	f04f 5280 	mov.w	r2, #268435456	@ 0x10000000
20005f44:	f8c3 2d04 	str.w	r2, [r3, #3332]	@ 0xd04
20005f48:	f3bf 8f4f 	dsb	sy
20005f4c:	f3bf 8f6f 	isb	sy
20005f50:	4770      	bx	lr
20005f52:	bf00      	nop

20005f54 <vPortEnterCritical>:
20005f54:	b508      	push	{r3, lr}
20005f56:	f000 fa6b 	bl	20006430 <ulSetInterruptMask>
20005f5a:	4a04      	ldr	r2, [pc, #16]	@ (20005f6c <vPortEnterCritical+0x18>)
20005f5c:	6813      	ldr	r3, [r2, #0]
20005f5e:	3301      	adds	r3, #1
20005f60:	6013      	str	r3, [r2, #0]
20005f62:	f3bf 8f4f 	dsb	sy
20005f66:	f3bf 8f6f 	isb	sy
20005f6a:	bd08      	pop	{r3, pc}
20005f6c:	20009780 	.word	0x20009780

20005f70 <vPortExitCritical>:
20005f70:	4b04      	ldr	r3, [pc, #16]	@ (20005f84 <vPortExitCritical+0x14>)
20005f72:	681a      	ldr	r2, [r3, #0]
20005f74:	3a01      	subs	r2, #1
20005f76:	601a      	str	r2, [r3, #0]
20005f78:	6818      	ldr	r0, [r3, #0]
20005f7a:	b100      	cbz	r0, 20005f7e <vPortExitCritical+0xe>
20005f7c:	4770      	bx	lr
20005f7e:	f000 ba63 	b.w	20006448 <vClearInterruptMask>
20005f82:	bf00      	nop
20005f84:	20009780 	.word	0x20009780

20005f88 <vPortSVCHandler_C>:
20005f88:	6983      	ldr	r3, [r0, #24]
20005f8a:	f813 3c02 	ldrb.w	r3, [r3, #-2]
20005f8e:	2b66      	cmp	r3, #102	@ 0x66
20005f90:	d000      	beq.n	20005f94 <vPortSVCHandler_C+0xc>
20005f92:	4770      	bx	lr
20005f94:	f04f 23e0 	mov.w	r3, #3758153728	@ 0xe000e000
20005f98:	f8d3 2d88 	ldr.w	r2, [r3, #3464]	@ 0xd88
20005f9c:	f442 0270 	orr.w	r2, r2, #15728640	@ 0xf00000
20005fa0:	f8c3 2d88 	str.w	r2, [r3, #3464]	@ 0xd88
20005fa4:	f8d3 2f34 	ldr.w	r2, [r3, #3892]	@ 0xf34
20005fa8:	f042 4240 	orr.w	r2, r2, #3221225472	@ 0xc0000000
20005fac:	f8c3 2f34 	str.w	r2, [r3, #3892]	@ 0xf34
20005fb0:	f000 ba20 	b.w	200063f4 <vRestoreContextOfFirstTask>

20005fb4 <pxPortInitialiseStack>:
20005fb4:	e92d 4ff0 	stmdb	sp!, {r4, r5, r6, r7, r8, r9, sl, fp, lr}
20005fb8:	f04f 3e11 	mov.w	lr, #286331153	@ 0x11111111
20005fbc:	f04f 7480 	mov.w	r4, #16777216	@ 0x1000000
20005fc0:	e940 e309 	strd	lr, r3, [r0, #-36]	@ 0x24
20005fc4:	f04f 3307 	mov.w	r3, #117901063	@ 0x7070707
20005fc8:	f840 4c04 	str.w	r4, [r0, #-4]
20005fcc:	4c16      	ldr	r4, [pc, #88]	@ (20006028 <pxPortInitialiseStack+0x74>)
20005fce:	f840 3c34 	str.w	r3, [r0, #-52]
20005fd2:	e940 4203 	strd	r4, r2, [r0, #-12]
20005fd6:	f04f 3305 	mov.w	r3, #84215045	@ 0x5050505
20005fda:	f04f 3206 	mov.w	r2, #101058054	@ 0x6060606
20005fde:	f04f 3b12 	mov.w	fp, #303174162	@ 0x12121212
20005fe2:	e940 320f 	strd	r3, r2, [r0, #-60]	@ 0x3c
20005fe6:	f04f 3a03 	mov.w	sl, #50529027	@ 0x3030303
20005fea:	f04f 3902 	mov.w	r9, #33686018	@ 0x2020202
20005fee:	f04f 3801 	mov.w	r8, #16843009	@ 0x1010101
20005ff2:	f04f 3710 	mov.w	r7, #269488144	@ 0x10101010
20005ff6:	f04f 3609 	mov.w	r6, #151587081	@ 0x9090909
20005ffa:	f04f 3508 	mov.w	r5, #134744072	@ 0x8080808
20005ffe:	f04f 3404 	mov.w	r4, #67372036	@ 0x4040404
20006002:	f06f 0302 	mvn.w	r3, #2
20006006:	e940 ab05 	strd	sl, fp, [r0, #-20]
2000600a:	e940 8907 	strd	r8, r9, [r0, #-28]
2000600e:	e940 670b 	strd	r6, r7, [r0, #-44]	@ 0x2c
20006012:	f840 5c30 	str.w	r5, [r0, #-48]
20006016:	f840 4c40 	str.w	r4, [r0, #-64]
2000601a:	f840 3c44 	str.w	r3, [r0, #-68]
2000601e:	f840 1d48 	str.w	r1, [r0, #-72]!
20006022:	e8bd 8ff0 	ldmia.w	sp!, {r4, r5, r6, r7, r8, r9, sl, fp, pc}
20006026:	bf00      	nop
20006028:	20005e45 	.word	0x20005e45

2000602c <xPortStartScheduler>:
2000602c:	f04f 23e0 	mov.w	r3, #3758153728	@ 0xe000e000
20006030:	f04f 427f 	mov.w	r2, #4278190080	@ 0xff000000
20006034:	2100      	movs	r1, #0
20006036:	b570      	push	{r4, r5, r6, lr}
20006038:	b084      	sub	sp, #16
2000603a:	9102      	str	r1, [sp, #8]
2000603c:	f8c3 2d1c 	str.w	r2, [r3, #3356]	@ 0xd1c
20006040:	f8d3 3d1c 	ldr.w	r3, [r3, #3356]	@ 0xd1c
20006044:	0e1b      	lsrs	r3, r3, #24
20006046:	f88d 3007 	strb.w	r3, [sp, #7]
2000604a:	f89d 3007 	ldrb.w	r3, [sp, #7]
2000604e:	f89d 3007 	ldrb.w	r3, [sp, #7]
20006052:	061a      	lsls	r2, r3, #24
20006054:	d50c      	bpl.n	20006070 <xPortStartScheduler+0x44>
20006056:	9b02      	ldr	r3, [sp, #8]
20006058:	3301      	adds	r3, #1
2000605a:	9302      	str	r3, [sp, #8]
2000605c:	f89d 3007 	ldrb.w	r3, [sp, #7]
20006060:	005b      	lsls	r3, r3, #1
20006062:	b2db      	uxtb	r3, r3
20006064:	f88d 3007 	strb.w	r3, [sp, #7]
20006068:	f89d 3007 	ldrb.w	r3, [sp, #7]
2000606c:	061b      	lsls	r3, r3, #24
2000606e:	d4f2      	bmi.n	20006056 <xPortStartScheduler+0x2a>
20006070:	9b02      	ldr	r3, [sp, #8]
20006072:	2b08      	cmp	r3, #8
20006074:	d055      	beq.n	20006122 <xPortStartScheduler+0xf6>
20006076:	9a02      	ldr	r2, [sp, #8]
20006078:	f1c2 0207 	rsb	r2, r2, #7
2000607c:	0212      	lsls	r2, r2, #8
2000607e:	f402 62e0 	and.w	r2, r2, #1792	@ 0x700
20006082:	f04f 23e0 	mov.w	r3, #3758153728	@ 0xe000e000
20006086:	2400      	movs	r4, #0
20006088:	f04f 4550 	mov.w	r5, #3489660928	@ 0xd0000000
2000608c:	4926      	ldr	r1, [pc, #152]	@ (20006128 <xPortStartScheduler+0xfc>)
2000608e:	200e      	movs	r0, #14
20006090:	600a      	str	r2, [r1, #0]
20006092:	f8d3 2d20 	ldr.w	r2, [r3, #3360]	@ 0xd20
20006096:	4925      	ldr	r1, [pc, #148]	@ (2000612c <xPortStartScheduler+0x100>)
20006098:	f442 027f 	orr.w	r2, r2, #16711680	@ 0xff0000
2000609c:	f8c3 2d20 	str.w	r2, [r3, #3360]	@ 0xd20
200060a0:	f8d3 2d20 	ldr.w	r2, [r3, #3360]	@ 0xd20
200060a4:	2601      	movs	r6, #1
200060a6:	f042 427f 	orr.w	r2, r2, #4278190080	@ 0xff000000
200060aa:	f8c3 2d20 	str.w	r2, [r3, #3360]	@ 0xd20
200060ae:	f8c3 4d1c 	str.w	r4, [r3, #3356]	@ 0xd1c
200060b2:	f002 f82f 	bl	20008114 <exception_set_exclusive_handler>
200060b6:	491e      	ldr	r1, [pc, #120]	@ (20006130 <xPortStartScheduler+0x104>)
200060b8:	200f      	movs	r0, #15
200060ba:	f002 f82b 	bl	20008114 <exception_set_exclusive_handler>
200060be:	491d      	ldr	r1, [pc, #116]	@ (20006134 <xPortStartScheduler+0x108>)
200060c0:	200b      	movs	r0, #11
200060c2:	f002 f827 	bl	20008114 <exception_set_exclusive_handler>
200060c6:	f7ff ff23 	bl	20005f10 <vPortSetupTimerInterrupt>
200060ca:	4a1b      	ldr	r2, [pc, #108]	@ (20006138 <xPortStartScheduler+0x10c>)
200060cc:	4b1b      	ldr	r3, [pc, #108]	@ (2000613c <xPortStartScheduler+0x110>)
200060ce:	6014      	str	r4, [r2, #0]
200060d0:	682a      	ldr	r2, [r5, #0]
200060d2:	2101      	movs	r1, #1
200060d4:	2003      	movs	r0, #3
200060d6:	701a      	strb	r2, [r3, #0]
200060d8:	f7fb fd1a 	bl	20001b10 <multicore_doorbell_claim_unused>
200060dc:	4603      	mov	r3, r0
200060de:	4a18      	ldr	r2, [pc, #96]	@ (20006140 <xPortStartScheduler+0x114>)
200060e0:	b25b      	sxtb	r3, r3
200060e2:	7013      	strb	r3, [r2, #0]
200060e4:	fa06 f303 	lsl.w	r3, r6, r3
200060e8:	f8c5 318c 	str.w	r3, [r5, #396]	@ 0x18c
200060ec:	21ff      	movs	r1, #255	@ 0xff
200060ee:	f8c5 3184 	str.w	r3, [r5, #388]	@ 0x184
200060f2:	201a      	movs	r0, #26
200060f4:	f7fc fc74 	bl	200029e0 <irq_set_priority>
200060f8:	201a      	movs	r0, #26
200060fa:	4912      	ldr	r1, [pc, #72]	@ (20006144 <xPortStartScheduler+0x118>)
200060fc:	f7fc fa4e 	bl	2000259c <irq_set_exclusive_handler>
20006100:	4631      	mov	r1, r6
20006102:	201a      	movs	r0, #26
20006104:	f7fc fa34 	bl	20002570 <irq_set_enabled>
20006108:	f000 f98a 	bl	20006420 <vStartFirstTask>
2000610c:	f001 fad2 	bl	200076b4 <vTaskSwitchContext>
20006110:	9403      	str	r4, [sp, #12]
20006112:	f000 f98d 	bl	20006430 <ulSetInterruptMask>
20006116:	9b03      	ldr	r3, [sp, #12]
20006118:	2b00      	cmp	r3, #0
2000611a:	d0fc      	beq.n	20006116 <xPortStartScheduler+0xea>
2000611c:	2000      	movs	r0, #0
2000611e:	b004      	add	sp, #16
20006120:	bd70      	pop	{r4, r5, r6, pc}
20006122:	2200      	movs	r2, #0
20006124:	e7ad      	b.n	20006082 <xPortStartScheduler+0x56>
20006126:	bf00      	nop
20006128:	2001f970 	.word	0x2001f970
2000612c:	20006459 	.word	0x20006459
20006130:	20005e5d 	.word	0x20005e5d
20006134:	200064d9 	.word	0x200064d9
20006138:	20009780 	.word	0x20009780
2000613c:	2000977e 	.word	0x2000977e
20006140:	2000977d 	.word	0x2000977d
20006144:	20005e81 	.word	0x20005e81

20006148 <vPortValidateInterruptPriority>:
20006148:	f3ef 8305 	mrs	r3, IPSR
2000614c:	2b0f      	cmp	r3, #15
2000614e:	bf84      	itt	hi
20006150:	4a01      	ldrhi	r2, [pc, #4]	@ (20006158 <vPortValidateInterruptPriority+0x10>)
20006152:	5c9b      	ldrbhi	r3, [r3, r2]
20006154:	4770      	bx	lr
20006156:	bf00      	nop
20006158:	e000e3f0 	.word	0xe000e3f0

2000615c <ulPortLockGetCurrentOwnerId>:
2000615c:	f04f 4250 	mov.w	r2, #3489660928	@ 0xd0000000
20006160:	4b07      	ldr	r3, [pc, #28]	@ (20006180 <ulPortLockGetCurrentOwnerId+0x24>)
20006162:	6810      	ldr	r0, [r2, #0]
20006164:	781b      	ldrb	r3, [r3, #0]
20006166:	4283      	cmp	r3, r0
20006168:	d000      	beq.n	2000616c <ulPortLockGetCurrentOwnerId+0x10>
2000616a:	4770      	bx	lr
2000616c:	f3ef 8305 	mrs	r3, IPSR
20006170:	b2db      	uxtb	r3, r3
20006172:	b113      	cbz	r3, 2000617a <ulPortLockGetCurrentOwnerId+0x1e>
20006174:	eb00 0043 	add.w	r0, r0, r3, lsl #1
20006178:	4770      	bx	lr
2000617a:	f001 bd6d 	b.w	20007c58 <xTaskGetCurrentTaskHandle>
2000617e:	bf00      	nop
20006180:	2000977e 	.word	0x2000977e

20006184 <vPortLockInternalSpinUnlockWithNotify>:
20006184:	f04f 4250 	mov.w	r2, #3489660928	@ 0xd0000000
20006188:	b570      	push	{r4, r5, r6, lr}
2000618a:	2501      	movs	r5, #1
2000618c:	4c34      	ldr	r4, [pc, #208]	@ (20006260 <vPortLockInternalSpinUnlockWithNotify+0xdc>)
2000618e:	4e35      	ldr	r6, [pc, #212]	@ (20006264 <vPortLockInternalSpinUnlockWithNotify+0xe0>)
20006190:	f894 e000 	ldrb.w	lr, [r4]
20006194:	6814      	ldr	r4, [r2, #0]
20006196:	6802      	ldr	r2, [r0, #0]
20006198:	4b33      	ldr	r3, [pc, #204]	@ (20006268 <vPortLockInternalSpinUnlockWithNotify+0xe4>)
2000619a:	1b92      	subs	r2, r2, r6
2000619c:	468c      	mov	ip, r1
2000619e:	fba3 1302 	umull	r1, r3, r3, r2
200061a2:	091b      	lsrs	r3, r3, #4
200061a4:	eb03 0343 	add.w	r3, r3, r3, lsl #1
200061a8:	eba2 02c3 	sub.w	r2, r2, r3, lsl #3
200061ac:	45a6      	cmp	lr, r4
200061ae:	b082      	sub	sp, #8
200061b0:	fa05 f102 	lsl.w	r1, r5, r2
200061b4:	d02c      	beq.n	20006210 <vPortLockInternalSpinUnlockWithNotify+0x8c>
200061b6:	bf40      	sev
200061b8:	4c2c      	ldr	r4, [pc, #176]	@ (2000626c <vPortLockInternalSpinUnlockWithNotify+0xe8>)
200061ba:	6803      	ldr	r3, [r0, #0]
200061bc:	6822      	ldr	r2, [r4, #0]
200061be:	4293      	cmp	r3, r2
200061c0:	d041      	beq.n	20006246 <vPortLockInternalSpinUnlockWithNotify+0xc2>
200061c2:	e8d2 5fcf 	ldaexb	r5, [r2]
200061c6:	2301      	movs	r3, #1
200061c8:	2d00      	cmp	r5, #0
200061ca:	d1fa      	bne.n	200061c2 <vPortLockInternalSpinUnlockWithNotify+0x3e>
200061cc:	e8c2 3f45 	strexb	r5, r3, [r2]
200061d0:	2d00      	cmp	r5, #0
200061d2:	d1f6      	bne.n	200061c2 <vPortLockInternalSpinUnlockWithNotify+0x3e>
200061d4:	f3bf 8f5f 	dmb	sy
200061d8:	4a25      	ldr	r2, [pc, #148]	@ (20006270 <vPortLockInternalSpinUnlockWithNotify+0xec>)
200061da:	6824      	ldr	r4, [r4, #0]
200061dc:	6813      	ldr	r3, [r2, #0]
200061de:	430b      	orrs	r3, r1
200061e0:	6013      	str	r3, [r2, #0]
200061e2:	2300      	movs	r3, #0
200061e4:	e8c4 3f8f 	stlb	r3, [r4]
200061e8:	6803      	ldr	r3, [r0, #0]
200061ea:	4a22      	ldr	r2, [pc, #136]	@ (20006274 <vPortLockInternalSpinUnlockWithNotify+0xf0>)
200061ec:	f992 2000 	ldrsb.w	r2, [r2]
200061f0:	2a00      	cmp	r2, #0
200061f2:	db06      	blt.n	20006202 <vPortLockInternalSpinUnlockWithNotify+0x7e>
200061f4:	2101      	movs	r1, #1
200061f6:	f04f 4050 	mov.w	r0, #3489660928	@ 0xd0000000
200061fa:	fa01 f202 	lsl.w	r2, r1, r2
200061fe:	f8c0 2180 	str.w	r2, [r0, #384]	@ 0x180
20006202:	2200      	movs	r2, #0
20006204:	e8c3 2f8f 	stlb	r2, [r3]
20006208:	f38c 8810 	msr	PRIMASK, ip
2000620c:	b002      	add	sp, #8
2000620e:	bd70      	pop	{r4, r5, r6, pc}
20006210:	bf40      	sev
20006212:	2400      	movs	r4, #0
20006214:	6803      	ldr	r3, [r0, #0]
20006216:	e8c3 4f8f 	stlb	r4, [r3]
2000621a:	f38c 8810 	msr	PRIMASK, ip
2000621e:	f3ef 8305 	mrs	r3, IPSR
20006222:	b2db      	uxtb	r3, r3
20006224:	b1a3      	cbz	r3, 20006250 <vPortLockInternalSpinUnlockWithNotify+0xcc>
20006226:	4b14      	ldr	r3, [pc, #80]	@ (20006278 <vPortLockInternalSpinUnlockWithNotify+0xf4>)
20006228:	aa01      	add	r2, sp, #4
2000622a:	6818      	ldr	r0, [r3, #0]
2000622c:	9401      	str	r4, [sp, #4]
2000622e:	f000 fa2d 	bl	2000668c <xEventGroupSetBitsFromISR>
20006232:	9b01      	ldr	r3, [sp, #4]
20006234:	2b00      	cmp	r3, #0
20006236:	d0e9      	beq.n	2000620c <vPortLockInternalSpinUnlockWithNotify+0x88>
20006238:	f04f 23e0 	mov.w	r3, #3758153728	@ 0xe000e000
2000623c:	f04f 5280 	mov.w	r2, #268435456	@ 0x10000000
20006240:	f8c3 2d04 	str.w	r2, [r3, #3332]	@ 0xd04
20006244:	e7e2      	b.n	2000620c <vPortLockInternalSpinUnlockWithNotify+0x88>
20006246:	480a      	ldr	r0, [pc, #40]	@ (20006270 <vPortLockInternalSpinUnlockWithNotify+0xec>)
20006248:	6802      	ldr	r2, [r0, #0]
2000624a:	430a      	orrs	r2, r1
2000624c:	6002      	str	r2, [r0, #0]
2000624e:	e7cc      	b.n	200061ea <vPortLockInternalSpinUnlockWithNotify+0x66>
20006250:	4b09      	ldr	r3, [pc, #36]	@ (20006278 <vPortLockInternalSpinUnlockWithNotify+0xf4>)
20006252:	6818      	ldr	r0, [r3, #0]
20006254:	b002      	add	sp, #8
20006256:	e8bd 4070 	ldmia.w	sp!, {r4, r5, r6, lr}
2000625a:	f000 b9e3 	b.w	20006624 <xEventGroupSetBits>
2000625e:	bf00      	nop
20006260:	2000977e 	.word	0x2000977e
20006264:	2000afc0 	.word	0x2000afc0
20006268:	aaaaaaab 	.word	0xaaaaaaab
2000626c:	2000f670 	.word	0x2000f670
20006270:	2001f988 	.word	0x2001f988
20006274:	2000977d 	.word	0x2000977d
20006278:	2001f9f8 	.word	0x2001f9f8

2000627c <xPortLockInternalSpinUnlockWithBestEffortWaitOrTimeout>:
2000627c:	b5f0      	push	{r4, r5, r6, r7, lr}
2000627e:	f04f 4e50 	mov.w	lr, #3489660928	@ 0xd0000000
20006282:	4c4b      	ldr	r4, [pc, #300]	@ (200063b0 <xPortLockInternalSpinUnlockWithBestEffortWaitOrTimeout+0x134>)
20006284:	461d      	mov	r5, r3
20006286:	f894 c000 	ldrb.w	ip, [r4]
2000628a:	f8de 3000 	ldr.w	r3, [lr]
2000628e:	4606      	mov	r6, r0
20006290:	459c      	cmp	ip, r3
20006292:	460f      	mov	r7, r1
20006294:	4614      	mov	r4, r2
20006296:	b083      	sub	sp, #12
20006298:	d00c      	beq.n	200062b4 <xPortLockInternalSpinUnlockWithBestEffortWaitOrTimeout+0x38>
2000629a:	2300      	movs	r3, #0
2000629c:	6802      	ldr	r2, [r0, #0]
2000629e:	e8c2 3f8f 	stlb	r3, [r2]
200062a2:	f381 8810 	msr	PRIMASK, r1
200062a6:	4620      	mov	r0, r4
200062a8:	4629      	mov	r1, r5
200062aa:	b003      	add	sp, #12
200062ac:	e8bd 40f0 	ldmia.w	sp!, {r4, r5, r6, r7, lr}
200062b0:	f7fb bfac 	b.w	2000220c <best_effort_wfe_or_timeout>
200062b4:	f7fc f822 	bl	200022fc <time_us_64>
200062b8:	ebb4 0e00 	subs.w	lr, r4, r0
200062bc:	eb65 0c01 	sbc.w	ip, r5, r1
200062c0:	f11e 0e31 	adds.w	lr, lr, #49	@ 0x31
200062c4:	f14c 0c00 	adc.w	ip, ip, #0
200062c8:	f1be 0f32 	cmp.w	lr, #50	@ 0x32
200062cc:	f17c 0300 	sbcs.w	r3, ip, #0
200062d0:	da1e      	bge.n	20006310 <xPortLockInternalSpinUnlockWithBestEffortWaitOrTimeout+0x94>
200062d2:	2300      	movs	r3, #0
200062d4:	6832      	ldr	r2, [r6, #0]
200062d6:	e8c2 3f8f 	stlb	r3, [r2]
200062da:	f387 8810 	msr	PRIMASK, r7
200062de:	4b35      	ldr	r3, [pc, #212]	@ (200063b4 <xPortLockInternalSpinUnlockWithBestEffortWaitOrTimeout+0x138>)
200062e0:	6a5a      	ldr	r2, [r3, #36]	@ 0x24
200062e2:	4295      	cmp	r5, r2
200062e4:	d807      	bhi.n	200062f6 <xPortLockInternalSpinUnlockWithBestEffortWaitOrTimeout+0x7a>
200062e6:	6a9b      	ldr	r3, [r3, #40]	@ 0x28
200062e8:	42a3      	cmp	r3, r4
200062ea:	d302      	bcc.n	200062f2 <xPortLockInternalSpinUnlockWithBestEffortWaitOrTimeout+0x76>
200062ec:	2001      	movs	r0, #1
200062ee:	b003      	add	sp, #12
200062f0:	bdf0      	pop	{r4, r5, r6, r7, pc}
200062f2:	4295      	cmp	r5, r2
200062f4:	d1fa      	bne.n	200062ec <xPortLockInternalSpinUnlockWithBestEffortWaitOrTimeout+0x70>
200062f6:	f04f 23e0 	mov.w	r3, #3758153728	@ 0xe000e000
200062fa:	f04f 5280 	mov.w	r2, #268435456	@ 0x10000000
200062fe:	f8c3 2d04 	str.w	r2, [r3, #3332]	@ 0xd04
20006302:	f3bf 8f4f 	dsb	sy
20006306:	f3bf 8f6f 	isb	sy
2000630a:	2000      	movs	r0, #0
2000630c:	b003      	add	sp, #12
2000630e:	bdf0      	pop	{r4, r5, r6, r7, pc}
20006310:	ea4f 531e 	mov.w	r3, lr, lsr #20
20006314:	ea43 330c 	orr.w	r3, r3, ip, lsl #12
20006318:	f3c3 0313 	ubfx	r3, r3, #0, #20
2000631c:	f3ce 0213 	ubfx	r2, lr, #0, #20
20006320:	441a      	add	r2, r3
20006322:	f3cc 2313 	ubfx	r3, ip, #8, #20
20006326:	ea4f 71ec 	mov.w	r1, ip, asr #31
2000632a:	441a      	add	r2, r3
2000632c:	f001 0021 	and.w	r0, r1, #33	@ 0x21
20006330:	eb02 721c 	add.w	r2, r2, ip, lsr #28
20006334:	4b20      	ldr	r3, [pc, #128]	@ (200063b8 <xPortLockInternalSpinUnlockWithBestEffortWaitOrTimeout+0x13c>)
20006336:	4402      	add	r2, r0
20006338:	fba3 0302 	umull	r0, r3, r3, r2
2000633c:	08db      	lsrs	r3, r3, #3
2000633e:	eb03 0383 	add.w	r3, r3, r3, lsl #2
20006342:	eb03 0383 	add.w	r3, r3, r3, lsl #2
20006346:	f021 0117 	bic.w	r1, r1, #23
2000634a:	1ad3      	subs	r3, r2, r3
2000634c:	440b      	add	r3, r1
2000634e:	4a1b      	ldr	r2, [pc, #108]	@ (200063bc <xPortLockInternalSpinUnlockWithBestEffortWaitOrTimeout+0x140>)
20006350:	ebbe 0e03 	subs.w	lr, lr, r3
20006354:	fb02 f20e 	mul.w	r2, r2, lr
20006358:	eb6c 7ce3 	sbc.w	ip, ip, r3, asr #31
2000635c:	4b18      	ldr	r3, [pc, #96]	@ (200063c0 <xPortLockInternalSpinUnlockWithBestEffortWaitOrTimeout+0x144>)
2000635e:	fb03 220c 	mla	r2, r3, ip, r2
20006362:	fbae e303 	umull	lr, r3, lr, r3
20006366:	4413      	add	r3, r2
20006368:	0fd9      	lsrs	r1, r3, #31
2000636a:	eb11 010e 	adds.w	r1, r1, lr
2000636e:	f143 0200 	adc.w	r2, r3, #0
20006372:	0849      	lsrs	r1, r1, #1
20006374:	ea51 71c2 	orrs.w	r1, r1, r2, lsl #31
20006378:	f04f 0300 	mov.w	r3, #0
2000637c:	d0a9      	beq.n	200062d2 <xPortLockInternalSpinUnlockWithBestEffortWaitOrTimeout+0x56>
2000637e:	6832      	ldr	r2, [r6, #0]
20006380:	e8c2 3f8f 	stlb	r3, [r2]
20006384:	f387 8810 	msr	PRIMASK, r7
20006388:	2201      	movs	r2, #1
2000638a:	9100      	str	r1, [sp, #0]
2000638c:	6831      	ldr	r1, [r6, #0]
2000638e:	480d      	ldr	r0, [pc, #52]	@ (200063c4 <xPortLockInternalSpinUnlockWithBestEffortWaitOrTimeout+0x148>)
20006390:	1a09      	subs	r1, r1, r0
20006392:	480d      	ldr	r0, [pc, #52]	@ (200063c8 <xPortLockInternalSpinUnlockWithBestEffortWaitOrTimeout+0x14c>)
20006394:	fba0 6001 	umull	r6, r0, r0, r1
20006398:	0900      	lsrs	r0, r0, #4
2000639a:	eb00 0040 	add.w	r0, r0, r0, lsl #1
2000639e:	eba1 01c0 	sub.w	r1, r1, r0, lsl #3
200063a2:	480a      	ldr	r0, [pc, #40]	@ (200063cc <xPortLockInternalSpinUnlockWithBestEffortWaitOrTimeout+0x150>)
200063a4:	fa02 f101 	lsl.w	r1, r2, r1
200063a8:	6800      	ldr	r0, [r0, #0]
200063aa:	f000 f8e1 	bl	20006570 <xEventGroupWaitBits>
200063ae:	e796      	b.n	200062de <xPortLockInternalSpinUnlockWithBestEffortWaitOrTimeout+0x62>
200063b0:	2000977e 	.word	0x2000977e
200063b4:	400b0000 	.word	0x400b0000
200063b8:	51eb851f 	.word	0x51eb851f
200063bc:	8f5c28f5 	.word	0x8f5c28f5
200063c0:	c28f5c29 	.word	0xc28f5c29
200063c4:	2000afc0 	.word	0x2000afc0
200063c8:	aaaaaaab 	.word	0xaaaaaaab
200063cc:	2001f9f8 	.word	0x2001f9f8

200063d0 <prvRuntimeInitializer>:
200063d0:	b508      	push	{r3, lr}
200063d2:	f7fc f87d 	bl	200024d0 <next_striped_spin_lock_num>
200063d6:	4b04      	ldr	r3, [pc, #16]	@ (200063e8 <prvRuntimeInitializer+0x18>)
200063d8:	4a04      	ldr	r2, [pc, #16]	@ (200063ec <prvRuntimeInitializer+0x1c>)
200063da:	4403      	add	r3, r0
200063dc:	6013      	str	r3, [r2, #0]
200063de:	f000 f8b9 	bl	20006554 <xEventGroupCreate>
200063e2:	4b03      	ldr	r3, [pc, #12]	@ (200063f0 <prvRuntimeInitializer+0x20>)
200063e4:	6018      	str	r0, [r3, #0]
200063e6:	bd08      	pop	{r3, pc}
200063e8:	2000afc0 	.word	0x2000afc0
200063ec:	2000f670 	.word	0x2000f670
200063f0:	2001f9f8 	.word	0x2001f9f8

200063f4 <vRestoreContextOfFirstTask>:
200063f4:	4a09      	ldr	r2, [pc, #36]	@ (2000641c <vRestoreContextOfFirstTask+0x28>)
200063f6:	6811      	ldr	r1, [r2, #0]
200063f8:	6808      	ldr	r0, [r1, #0]
200063fa:	c806      	ldmia	r0!, {r1, r2}
200063fc:	f381 880b 	msr	PSPLIM, r1
20006400:	2102      	movs	r1, #2
20006402:	f381 8814 	msr	CONTROL, r1
20006406:	3020      	adds	r0, #32
20006408:	f380 8809 	msr	PSP, r0
2000640c:	f3bf 8f6f 	isb	sy
20006410:	f04f 0000 	mov.w	r0, #0
20006414:	f380 8811 	msr	BASEPRI, r0
20006418:	4710      	bx	r2
2000641a:	0000      	.short	0x0000
2000641c:	2000f674 	.word	0x2000f674

20006420 <vStartFirstTask>:
20006420:	b662      	cpsie	i
20006422:	b661      	cpsie	f
20006424:	f3bf 8f4f 	dsb	sy
20006428:	f3bf 8f6f 	isb	sy
2000642c:	df66      	svc	102	@ 0x66
2000642e:	bf00      	nop

20006430 <ulSetInterruptMask>:
20006430:	f3ef 8011 	mrs	r0, BASEPRI
20006434:	f04f 0110 	mov.w	r1, #16
20006438:	f381 8811 	msr	BASEPRI, r1
2000643c:	f3bf 8f4f 	dsb	sy
20006440:	f3bf 8f6f 	isb	sy
20006444:	4770      	bx	lr
20006446:	bf00      	nop

20006448 <vClearInterruptMask>:
20006448:	f380 8811 	msr	BASEPRI, r0
2000644c:	f3bf 8f4f 	dsb	sy
20006450:	f3bf 8f6f 	isb	sy
20006454:	4770      	bx	lr
20006456:	bf00      	nop

20006458 <PendSV_Handler>:
20006458:	f3ef 8109 	mrs	r1, PSP
2000645c:	f01e 0f10 	tst.w	lr, #16
20006460:	bf08      	it	eq
20006462:	ed21 8a10 	vstmdbeq	r1!, {s16-s31}
20006466:	f3ef 820b 	mrs	r2, PSPLIM
2000646a:	4673      	mov	r3, lr
2000646c:	e921 0ffc 	stmdb	r1!, {r2, r3, r4, r5, r6, r7, r8, r9, sl, fp}
20006470:	fc55 4408 	dcp_pxmd r4, r5
20006474:	fc57 6409 	dcp_pymd r6, r7
20006478:	fc59 840a 	dcp_pefd r8, r9
2000647c:	e901 03f0 	stmdb	r1, {r4, r5, r6, r7, r8, r9}
20006480:	4a14      	ldr	r2, [pc, #80]	@ (200064d4 <PendSV_Handler+0x7c>)
20006482:	6813      	ldr	r3, [r2, #0]
20006484:	6019      	str	r1, [r3, #0]
20006486:	f04f 0110 	mov.w	r1, #16
2000648a:	f381 8811 	msr	BASEPRI, r1
2000648e:	f3bf 8f4f 	dsb	sy
20006492:	f3bf 8f6f 	isb	sy
20006496:	f001 f90d 	bl	200076b4 <vTaskSwitchContext>
2000649a:	f04f 0000 	mov.w	r0, #0
2000649e:	f380 8811 	msr	BASEPRI, r0
200064a2:	4a0c      	ldr	r2, [pc, #48]	@ (200064d4 <PendSV_Handler+0x7c>)
200064a4:	6811      	ldr	r1, [r2, #0]
200064a6:	6808      	ldr	r0, [r1, #0]
200064a8:	3818      	subs	r0, #24
200064aa:	e8b0 03f0 	ldmia.w	r0!, {r4, r5, r6, r7, r8, r9}
200064ae:	ec45 4400 	dcp_wxmd r4, r5
200064b2:	ec47 6401 	dcp_wymd r6, r7
200064b6:	ec49 8402 	dcp_wefd r8, r9
200064ba:	e8b0 0ffc 	ldmia.w	r0!, {r2, r3, r4, r5, r6, r7, r8, r9, sl, fp}
200064be:	f013 0f10 	tst.w	r3, #16
200064c2:	bf08      	it	eq
200064c4:	ecb0 8a10 	vldmiaeq	r0!, {s16-s31}
200064c8:	f382 880b 	msr	PSPLIM, r2
200064cc:	f380 8809 	msr	PSP, r0
200064d0:	4718      	bx	r3
200064d2:	0000      	.short	0x0000
200064d4:	2000f674 	.word	0x2000f674

200064d8 <SVC_Handler>:
200064d8:	f01e 0f04 	tst.w	lr, #4
200064dc:	bf0c      	ite	eq
200064de:	f3ef 8008 	mrseq	r0, MSP
200064e2:	f3ef 8009 	mrsne	r0, PSP
200064e6:	4901      	ldr	r1, [pc, #4]	@ (200064ec <SVC_Handler+0x14>)
200064e8:	4708      	bx	r1
200064ea:	0000      	.short	0x0000
200064ec:	20005f89 	.word	0x20005f89

200064f0 <vEventGroupSetBitsCallback>:
200064f0:	e92d 43f8 	stmdb	sp!, {r3, r4, r5, r6, r7, r8, r9, lr}
200064f4:	4607      	mov	r7, r0
200064f6:	460d      	mov	r5, r1
200064f8:	f100 090c 	add.w	r9, r0, #12
200064fc:	f000 ff0e 	bl	2000731c <vTaskSuspendAll>
20006500:	683b      	ldr	r3, [r7, #0]
20006502:	693c      	ldr	r4, [r7, #16]
20006504:	432b      	orrs	r3, r5
20006506:	45a1      	cmp	r9, r4
20006508:	603b      	str	r3, [r7, #0]
2000650a:	d01e      	beq.n	2000654a <vEventGroupSetBitsCallback+0x5a>
2000650c:	f04f 0800 	mov.w	r8, #0
20006510:	e009      	b.n	20006526 <vEventGroupSetBitsCallback+0x36>
20006512:	b136      	cbz	r6, 20006522 <vEventGroupSetBitsCallback+0x32>
20006514:	01d3      	lsls	r3, r2, #7
20006516:	bf48      	it	mi
20006518:	ea48 0805 	orrmi.w	r8, r8, r5
2000651c:	f001 faf6 	bl	20007b0c <vTaskRemoveFromUnorderedEventList>
20006520:	683b      	ldr	r3, [r7, #0]
20006522:	45a1      	cmp	r9, r4
20006524:	d00f      	beq.n	20006546 <vEventGroupSetBitsCallback+0x56>
20006526:	4620      	mov	r0, r4
20006528:	6802      	ldr	r2, [r0, #0]
2000652a:	6864      	ldr	r4, [r4, #4]
2000652c:	f022 457f 	bic.w	r5, r2, #4278190080	@ 0xff000000
20006530:	f012 6f80 	tst.w	r2, #67108864	@ 0x4000000
20006534:	f043 7100 	orr.w	r1, r3, #33554432	@ 0x2000000
20006538:	ea05 0603 	and.w	r6, r5, r3
2000653c:	d0e9      	beq.n	20006512 <vEventGroupSetBitsCallback+0x22>
2000653e:	42b5      	cmp	r5, r6
20006540:	d0e8      	beq.n	20006514 <vEventGroupSetBitsCallback+0x24>
20006542:	45a1      	cmp	r9, r4
20006544:	d1ef      	bne.n	20006526 <vEventGroupSetBitsCallback+0x36>
20006546:	ea23 0308 	bic.w	r3, r3, r8
2000654a:	603b      	str	r3, [r7, #0]
2000654c:	e8bd 43f8 	ldmia.w	sp!, {r3, r4, r5, r6, r7, r8, r9, lr}
20006550:	f000 bfd2 	b.w	200074f8 <xTaskResumeAll>

20006554 <xEventGroupCreate>:
20006554:	b510      	push	{r4, lr}
20006556:	201c      	movs	r0, #28
20006558:	f001 fe02 	bl	20008160 <pvPortMalloc>
2000655c:	4604      	mov	r4, r0
2000655e:	b120      	cbz	r0, 2000656a <xEventGroupCreate+0x16>
20006560:	2300      	movs	r3, #0
20006562:	f840 3b04 	str.w	r3, [r0], #4
20006566:	f000 f89f 	bl	200066a8 <vListInitialise>
2000656a:	4620      	mov	r0, r4
2000656c:	bd10      	pop	{r4, pc}
2000656e:	bf00      	nop

20006570 <xEventGroupWaitBits>:
20006570:	e92d 41f0 	stmdb	sp!, {r4, r5, r6, r7, r8, lr}
20006574:	4607      	mov	r7, r0
20006576:	461e      	mov	r6, r3
20006578:	460d      	mov	r5, r1
2000657a:	4690      	mov	r8, r2
2000657c:	f000 fece 	bl	2000731c <vTaskSuspendAll>
20006580:	683c      	ldr	r4, [r7, #0]
20006582:	b99e      	cbnz	r6, 200065ac <xEventGroupWaitBits+0x3c>
20006584:	422c      	tst	r4, r5
20006586:	d00a      	beq.n	2000659e <xEventGroupWaitBits+0x2e>
20006588:	f1b8 0f00 	cmp.w	r8, #0
2000658c:	d009      	beq.n	200065a2 <xEventGroupWaitBits+0x32>
2000658e:	ea24 0505 	bic.w	r5, r4, r5
20006592:	603d      	str	r5, [r7, #0]
20006594:	f000 ffb0 	bl	200074f8 <xTaskResumeAll>
20006598:	4620      	mov	r0, r4
2000659a:	e8bd 81f0 	ldmia.w	sp!, {r4, r5, r6, r7, r8, pc}
2000659e:	9b06      	ldr	r3, [sp, #24]
200065a0:	bb1b      	cbnz	r3, 200065ea <xEventGroupWaitBits+0x7a>
200065a2:	f000 ffa9 	bl	200074f8 <xTaskResumeAll>
200065a6:	4620      	mov	r0, r4
200065a8:	e8bd 81f0 	ldmia.w	sp!, {r4, r5, r6, r7, r8, pc}
200065ac:	ea35 0304 	bics.w	r3, r5, r4
200065b0:	d0ea      	beq.n	20006588 <xEventGroupWaitBits+0x18>
200065b2:	9b06      	ldr	r3, [sp, #24]
200065b4:	2b00      	cmp	r3, #0
200065b6:	d0f4      	beq.n	200065a2 <xEventGroupWaitBits+0x32>
200065b8:	f1b8 0100 	subs.w	r1, r8, #0
200065bc:	bf18      	it	ne
200065be:	2101      	movne	r1, #1
200065c0:	461a      	mov	r2, r3
200065c2:	0609      	lsls	r1, r1, #24
200065c4:	f041 6180 	orr.w	r1, r1, #67108864	@ 0x4000000
200065c8:	4329      	orrs	r1, r5
200065ca:	1d38      	adds	r0, r7, #4
200065cc:	f001 f914 	bl	200077f8 <vTaskPlaceOnUnorderedEventList>
200065d0:	f000 ff92 	bl	200074f8 <xTaskResumeAll>
200065d4:	b1f8      	cbz	r0, 20006616 <xEventGroupWaitBits+0xa6>
200065d6:	f001 fb8f 	bl	20007cf8 <uxTaskResetEventItemValue>
200065da:	0183      	lsls	r3, r0, #6
200065dc:	4604      	mov	r4, r0
200065de:	d50b      	bpl.n	200065f8 <xEventGroupWaitBits+0x88>
200065e0:	f024 447f 	bic.w	r4, r4, #4278190080	@ 0xff000000
200065e4:	4620      	mov	r0, r4
200065e6:	e8bd 81f0 	ldmia.w	sp!, {r4, r5, r6, r7, r8, pc}
200065ea:	f1b8 0100 	subs.w	r1, r8, #0
200065ee:	bf18      	it	ne
200065f0:	2101      	movne	r1, #1
200065f2:	461a      	mov	r2, r3
200065f4:	0609      	lsls	r1, r1, #24
200065f6:	e7e7      	b.n	200065c8 <xEventGroupWaitBits+0x58>
200065f8:	f7ff fcac 	bl	20005f54 <vPortEnterCritical>
200065fc:	683c      	ldr	r4, [r7, #0]
200065fe:	b96e      	cbnz	r6, 2000661c <xEventGroupWaitBits+0xac>
20006600:	4225      	tst	r5, r4
20006602:	d005      	beq.n	20006610 <xEventGroupWaitBits+0xa0>
20006604:	f1b8 0f00 	cmp.w	r8, #0
20006608:	d002      	beq.n	20006610 <xEventGroupWaitBits+0xa0>
2000660a:	ea24 0505 	bic.w	r5, r4, r5
2000660e:	603d      	str	r5, [r7, #0]
20006610:	f7ff fcae 	bl	20005f70 <vPortExitCritical>
20006614:	e7e4      	b.n	200065e0 <xEventGroupWaitBits+0x70>
20006616:	f7ff fc91 	bl	20005f3c <vPortYield>
2000661a:	e7dc      	b.n	200065d6 <xEventGroupWaitBits+0x66>
2000661c:	ea35 0304 	bics.w	r3, r5, r4
20006620:	d1f6      	bne.n	20006610 <xEventGroupWaitBits+0xa0>
20006622:	e7ef      	b.n	20006604 <xEventGroupWaitBits+0x94>

20006624 <xEventGroupSetBits>:
20006624:	e92d 43f8 	stmdb	sp!, {r3, r4, r5, r6, r7, r8, r9, lr}
20006628:	4607      	mov	r7, r0
2000662a:	460d      	mov	r5, r1
2000662c:	f100 090c 	add.w	r9, r0, #12
20006630:	f000 fe74 	bl	2000731c <vTaskSuspendAll>
20006634:	683b      	ldr	r3, [r7, #0]
20006636:	693c      	ldr	r4, [r7, #16]
20006638:	431d      	orrs	r5, r3
2000663a:	45a1      	cmp	r9, r4
2000663c:	603d      	str	r5, [r7, #0]
2000663e:	d01e      	beq.n	2000667e <xEventGroupSetBits+0x5a>
20006640:	f04f 0800 	mov.w	r8, #0
20006644:	e009      	b.n	2000665a <xEventGroupSetBits+0x36>
20006646:	b136      	cbz	r6, 20006656 <xEventGroupSetBits+0x32>
20006648:	01db      	lsls	r3, r3, #7
2000664a:	bf48      	it	mi
2000664c:	ea48 0802 	orrmi.w	r8, r8, r2
20006650:	f001 fa5c 	bl	20007b0c <vTaskRemoveFromUnorderedEventList>
20006654:	683d      	ldr	r5, [r7, #0]
20006656:	45a1      	cmp	r9, r4
20006658:	d00f      	beq.n	2000667a <xEventGroupSetBits+0x56>
2000665a:	4620      	mov	r0, r4
2000665c:	6803      	ldr	r3, [r0, #0]
2000665e:	6864      	ldr	r4, [r4, #4]
20006660:	f023 427f 	bic.w	r2, r3, #4278190080	@ 0xff000000
20006664:	f013 6f80 	tst.w	r3, #67108864	@ 0x4000000
20006668:	f045 7100 	orr.w	r1, r5, #33554432	@ 0x2000000
2000666c:	ea02 0605 	and.w	r6, r2, r5
20006670:	d0e9      	beq.n	20006646 <xEventGroupSetBits+0x22>
20006672:	42b2      	cmp	r2, r6
20006674:	d0e8      	beq.n	20006648 <xEventGroupSetBits+0x24>
20006676:	45a1      	cmp	r9, r4
20006678:	d1ef      	bne.n	2000665a <xEventGroupSetBits+0x36>
2000667a:	ea25 0508 	bic.w	r5, r5, r8
2000667e:	603d      	str	r5, [r7, #0]
20006680:	f000 ff3a 	bl	200074f8 <xTaskResumeAll>
20006684:	4628      	mov	r0, r5
20006686:	e8bd 83f8 	ldmia.w	sp!, {r3, r4, r5, r6, r7, r8, r9, pc}
2000668a:	bf00      	nop

2000668c <xEventGroupSetBitsFromISR>:
2000668c:	468c      	mov	ip, r1
2000668e:	b500      	push	{lr}
20006690:	4686      	mov	lr, r0
20006692:	4613      	mov	r3, r2
20006694:	4671      	mov	r1, lr
20006696:	4662      	mov	r2, ip
20006698:	4802      	ldr	r0, [pc, #8]	@ (200066a4 <xEventGroupSetBitsFromISR+0x18>)
2000669a:	f85d eb04 	ldr.w	lr, [sp], #4
2000669e:	f001 bd21 	b.w	200080e4 <xTimerPendFunctionCallFromISR>
200066a2:	bf00      	nop
200066a4:	200064f1 	.word	0x200064f1

200066a8 <vListInitialise>:
200066a8:	f04f 31ff 	mov.w	r1, #4294967295	@ 0xffffffff
200066ac:	2200      	movs	r2, #0
200066ae:	f100 0308 	add.w	r3, r0, #8
200066b2:	e9c0 3101 	strd	r3, r1, [r0, #4]
200066b6:	e9c0 3303 	strd	r3, r3, [r0, #12]
200066ba:	6002      	str	r2, [r0, #0]
200066bc:	4770      	bx	lr
200066be:	bf00      	nop

200066c0 <vListInitialiseItem>:
200066c0:	2300      	movs	r3, #0
200066c2:	6103      	str	r3, [r0, #16]
200066c4:	4770      	bx	lr
200066c6:	bf00      	nop

200066c8 <vListInsertEnd>:
200066c8:	e9d0 3200 	ldrd	r3, r2, [r0]
200066cc:	b410      	push	{r4}
200066ce:	6894      	ldr	r4, [r2, #8]
200066d0:	3301      	adds	r3, #1
200066d2:	e9c1 2401 	strd	r2, r4, [r1, #4]
200066d6:	6061      	str	r1, [r4, #4]
200066d8:	6091      	str	r1, [r2, #8]
200066da:	f85d 4b04 	ldr.w	r4, [sp], #4
200066de:	6108      	str	r0, [r1, #16]
200066e0:	6003      	str	r3, [r0, #0]
200066e2:	4770      	bx	lr

200066e4 <vListInsert>:
200066e4:	b430      	push	{r4, r5}
200066e6:	680d      	ldr	r5, [r1, #0]
200066e8:	1c6b      	adds	r3, r5, #1
200066ea:	d010      	beq.n	2000670e <vListInsert+0x2a>
200066ec:	f100 0308 	add.w	r3, r0, #8
200066f0:	461c      	mov	r4, r3
200066f2:	685b      	ldr	r3, [r3, #4]
200066f4:	681a      	ldr	r2, [r3, #0]
200066f6:	42aa      	cmp	r2, r5
200066f8:	d9fa      	bls.n	200066f0 <vListInsert+0xc>
200066fa:	6802      	ldr	r2, [r0, #0]
200066fc:	604b      	str	r3, [r1, #4]
200066fe:	3201      	adds	r2, #1
20006700:	6099      	str	r1, [r3, #8]
20006702:	608c      	str	r4, [r1, #8]
20006704:	6061      	str	r1, [r4, #4]
20006706:	6108      	str	r0, [r1, #16]
20006708:	bc30      	pop	{r4, r5}
2000670a:	6002      	str	r2, [r0, #0]
2000670c:	4770      	bx	lr
2000670e:	6904      	ldr	r4, [r0, #16]
20006710:	6863      	ldr	r3, [r4, #4]
20006712:	e7f2      	b.n	200066fa <vListInsert+0x16>

20006714 <uxListRemove>:
20006714:	4603      	mov	r3, r0
20006716:	6902      	ldr	r2, [r0, #16]
20006718:	b410      	push	{r4}
2000671a:	6854      	ldr	r4, [r2, #4]
2000671c:	6840      	ldr	r0, [r0, #4]
2000671e:	6899      	ldr	r1, [r3, #8]
20006720:	429c      	cmp	r4, r3
20006722:	6081      	str	r1, [r0, #8]
20006724:	6048      	str	r0, [r1, #4]
20006726:	bf08      	it	eq
20006728:	6051      	streq	r1, [r2, #4]
2000672a:	2100      	movs	r1, #0
2000672c:	6810      	ldr	r0, [r2, #0]
2000672e:	f85d 4b04 	ldr.w	r4, [sp], #4
20006732:	3801      	subs	r0, #1
20006734:	6119      	str	r1, [r3, #16]
20006736:	6010      	str	r0, [r2, #0]
20006738:	4770      	bx	lr
2000673a:	bf00      	nop

2000673c <prvCopyDataToQueue>:
2000673c:	b570      	push	{r4, r5, r6, lr}
2000673e:	4616      	mov	r6, r2
20006740:	6c02      	ldr	r2, [r0, #64]	@ 0x40
20006742:	4604      	mov	r4, r0
20006744:	6b85      	ldr	r5, [r0, #56]	@ 0x38
20006746:	b92a      	cbnz	r2, 20006754 <prvCopyDataToQueue+0x18>
20006748:	6806      	ldr	r6, [r0, #0]
2000674a:	3501      	adds	r5, #1
2000674c:	b34e      	cbz	r6, 200067a2 <prvCopyDataToQueue+0x66>
2000674e:	4610      	mov	r0, r2
20006750:	63a5      	str	r5, [r4, #56]	@ 0x38
20006752:	bd70      	pop	{r4, r5, r6, pc}
20006754:	b98e      	cbnz	r6, 2000677a <prvCopyDataToQueue+0x3e>
20006756:	6840      	ldr	r0, [r0, #4]
20006758:	f001 fdb6 	bl	200082c8 <memcpy>
2000675c:	6863      	ldr	r3, [r4, #4]
2000675e:	6c21      	ldr	r1, [r4, #64]	@ 0x40
20006760:	68a2      	ldr	r2, [r4, #8]
20006762:	440b      	add	r3, r1
20006764:	4293      	cmp	r3, r2
20006766:	6063      	str	r3, [r4, #4]
20006768:	bf28      	it	cs
2000676a:	6823      	ldrcs	r3, [r4, #0]
2000676c:	f105 0501 	add.w	r5, r5, #1
20006770:	bf28      	it	cs
20006772:	6063      	strcs	r3, [r4, #4]
20006774:	2000      	movs	r0, #0
20006776:	63a5      	str	r5, [r4, #56]	@ 0x38
20006778:	bd70      	pop	{r4, r5, r6, pc}
2000677a:	68c0      	ldr	r0, [r0, #12]
2000677c:	f001 fda4 	bl	200082c8 <memcpy>
20006780:	6c22      	ldr	r2, [r4, #64]	@ 0x40
20006782:	68e3      	ldr	r3, [r4, #12]
20006784:	4251      	negs	r1, r2
20006786:	1a9b      	subs	r3, r3, r2
20006788:	6822      	ldr	r2, [r4, #0]
2000678a:	60e3      	str	r3, [r4, #12]
2000678c:	4293      	cmp	r3, r2
2000678e:	d202      	bcs.n	20006796 <prvCopyDataToQueue+0x5a>
20006790:	68a3      	ldr	r3, [r4, #8]
20006792:	440b      	add	r3, r1
20006794:	60e3      	str	r3, [r4, #12]
20006796:	2e02      	cmp	r6, #2
20006798:	d008      	beq.n	200067ac <prvCopyDataToQueue+0x70>
2000679a:	3501      	adds	r5, #1
2000679c:	2000      	movs	r0, #0
2000679e:	63a5      	str	r5, [r4, #56]	@ 0x38
200067a0:	bd70      	pop	{r4, r5, r6, pc}
200067a2:	6880      	ldr	r0, [r0, #8]
200067a4:	f001 fa5e 	bl	20007c64 <xTaskPriorityDisinherit>
200067a8:	60a6      	str	r6, [r4, #8]
200067aa:	e7d1      	b.n	20006750 <prvCopyDataToQueue+0x14>
200067ac:	2d01      	cmp	r5, #1
200067ae:	bf38      	it	cc
200067b0:	2501      	movcc	r5, #1
200067b2:	e7df      	b.n	20006774 <prvCopyDataToQueue+0x38>

200067b4 <prvUnlockQueue>:
200067b4:	e92d 43f0 	stmdb	sp!, {r4, r5, r6, r7, r8, r9, lr}
200067b8:	4606      	mov	r6, r0
200067ba:	b085      	sub	sp, #20
200067bc:	f7ff fbca 	bl	20005f54 <vPortEnterCritical>
200067c0:	f896 3045 	ldrb.w	r3, [r6, #69]	@ 0x45
200067c4:	b25d      	sxtb	r5, r3
200067c6:	2d00      	cmp	r5, #0
200067c8:	dd1c      	ble.n	20006804 <prvUnlockQueue+0x50>
200067ca:	f106 0724 	add.w	r7, r6, #36	@ 0x24
200067ce:	e008      	b.n	200067e2 <prvUnlockQueue+0x2e>
200067d0:	6ba2      	ldr	r2, [r4, #56]	@ 0x38
200067d2:	6be3      	ldr	r3, [r4, #60]	@ 0x3c
200067d4:	9603      	str	r6, [sp, #12]
200067d6:	429a      	cmp	r2, r3
200067d8:	d33d      	bcc.n	20006856 <prvUnlockQueue+0xa2>
200067da:	1e6b      	subs	r3, r5, #1
200067dc:	b2da      	uxtb	r2, r3
200067de:	b25d      	sxtb	r5, r3
200067e0:	b182      	cbz	r2, 20006804 <prvUnlockQueue+0x50>
200067e2:	6cb4      	ldr	r4, [r6, #72]	@ 0x48
200067e4:	2c00      	cmp	r4, #0
200067e6:	d1f3      	bne.n	200067d0 <prvUnlockQueue+0x1c>
200067e8:	6a73      	ldr	r3, [r6, #36]	@ 0x24
200067ea:	b15b      	cbz	r3, 20006804 <prvUnlockQueue+0x50>
200067ec:	4638      	mov	r0, r7
200067ee:	f001 f91d 	bl	20007a2c <xTaskRemoveFromEventList>
200067f2:	2800      	cmp	r0, #0
200067f4:	d0f1      	beq.n	200067da <prvUnlockQueue+0x26>
200067f6:	f001 fa29 	bl	20007c4c <vTaskMissedYield>
200067fa:	1e6b      	subs	r3, r5, #1
200067fc:	b2da      	uxtb	r2, r3
200067fe:	b25d      	sxtb	r5, r3
20006800:	2a00      	cmp	r2, #0
20006802:	d1ee      	bne.n	200067e2 <prvUnlockQueue+0x2e>
20006804:	23ff      	movs	r3, #255	@ 0xff
20006806:	f886 3045 	strb.w	r3, [r6, #69]	@ 0x45
2000680a:	f7ff fbb1 	bl	20005f70 <vPortExitCritical>
2000680e:	f7ff fba1 	bl	20005f54 <vPortEnterCritical>
20006812:	f896 3044 	ldrb.w	r3, [r6, #68]	@ 0x44
20006816:	b25c      	sxtb	r4, r3
20006818:	2c00      	cmp	r4, #0
2000681a:	dd14      	ble.n	20006846 <prvUnlockQueue+0x92>
2000681c:	f106 0510 	add.w	r5, r6, #16
20006820:	e003      	b.n	2000682a <prvUnlockQueue+0x76>
20006822:	1e63      	subs	r3, r4, #1
20006824:	b2da      	uxtb	r2, r3
20006826:	b25c      	sxtb	r4, r3
20006828:	b16a      	cbz	r2, 20006846 <prvUnlockQueue+0x92>
2000682a:	6933      	ldr	r3, [r6, #16]
2000682c:	b15b      	cbz	r3, 20006846 <prvUnlockQueue+0x92>
2000682e:	4628      	mov	r0, r5
20006830:	f001 f8fc 	bl	20007a2c <xTaskRemoveFromEventList>
20006834:	2800      	cmp	r0, #0
20006836:	d0f4      	beq.n	20006822 <prvUnlockQueue+0x6e>
20006838:	f001 fa08 	bl	20007c4c <vTaskMissedYield>
2000683c:	1e63      	subs	r3, r4, #1
2000683e:	b2da      	uxtb	r2, r3
20006840:	b25c      	sxtb	r4, r3
20006842:	2a00      	cmp	r2, #0
20006844:	d1f1      	bne.n	2000682a <prvUnlockQueue+0x76>
20006846:	23ff      	movs	r3, #255	@ 0xff
20006848:	f886 3044 	strb.w	r3, [r6, #68]	@ 0x44
2000684c:	b005      	add	sp, #20
2000684e:	e8bd 43f0 	ldmia.w	sp!, {r4, r5, r6, r7, r8, r9, lr}
20006852:	f7ff bb8d 	b.w	20005f70 <vPortExitCritical>
20006856:	f894 8045 	ldrb.w	r8, [r4, #69]	@ 0x45
2000685a:	6c22      	ldr	r2, [r4, #64]	@ 0x40
2000685c:	f8d4 9038 	ldr.w	r9, [r4, #56]	@ 0x38
20006860:	fa4f f888 	sxtb.w	r8, r8
20006864:	b9a2      	cbnz	r2, 20006890 <prvUnlockQueue+0xdc>
20006866:	6823      	ldr	r3, [r4, #0]
20006868:	f109 0901 	add.w	r9, r9, #1
2000686c:	b37b      	cbz	r3, 200068ce <prvUnlockQueue+0x11a>
2000686e:	f1b8 3fff 	cmp.w	r8, #4294967295	@ 0xffffffff
20006872:	f8c4 9038 	str.w	r9, [r4, #56]	@ 0x38
20006876:	d11f      	bne.n	200068b8 <prvUnlockQueue+0x104>
20006878:	6a63      	ldr	r3, [r4, #36]	@ 0x24
2000687a:	2b00      	cmp	r3, #0
2000687c:	d0ad      	beq.n	200067da <prvUnlockQueue+0x26>
2000687e:	f104 0024 	add.w	r0, r4, #36	@ 0x24
20006882:	f001 f8d3 	bl	20007a2c <xTaskRemoveFromEventList>
20006886:	2800      	cmp	r0, #0
20006888:	d0a7      	beq.n	200067da <prvUnlockQueue+0x26>
2000688a:	f001 f9df 	bl	20007c4c <vTaskMissedYield>
2000688e:	e7b4      	b.n	200067fa <prvUnlockQueue+0x46>
20006890:	a903      	add	r1, sp, #12
20006892:	6860      	ldr	r0, [r4, #4]
20006894:	f001 fd18 	bl	200082c8 <memcpy>
20006898:	6862      	ldr	r2, [r4, #4]
2000689a:	6c21      	ldr	r1, [r4, #64]	@ 0x40
2000689c:	f109 0301 	add.w	r3, r9, #1
200068a0:	440a      	add	r2, r1
200068a2:	68a1      	ldr	r1, [r4, #8]
200068a4:	63a3      	str	r3, [r4, #56]	@ 0x38
200068a6:	428a      	cmp	r2, r1
200068a8:	bf28      	it	cs
200068aa:	6823      	ldrcs	r3, [r4, #0]
200068ac:	6062      	str	r2, [r4, #4]
200068ae:	bf28      	it	cs
200068b0:	6063      	strcs	r3, [r4, #4]
200068b2:	f1b8 3fff 	cmp.w	r8, #4294967295	@ 0xffffffff
200068b6:	d0df      	beq.n	20006878 <prvUnlockQueue+0xc4>
200068b8:	f000 fd3e 	bl	20007338 <uxTaskGetNumberOfTasks>
200068bc:	4540      	cmp	r0, r8
200068be:	d98c      	bls.n	200067da <prvUnlockQueue+0x26>
200068c0:	f108 0801 	add.w	r8, r8, #1
200068c4:	fa4f f888 	sxtb.w	r8, r8
200068c8:	f884 8045 	strb.w	r8, [r4, #69]	@ 0x45
200068cc:	e785      	b.n	200067da <prvUnlockQueue+0x26>
200068ce:	68a0      	ldr	r0, [r4, #8]
200068d0:	9301      	str	r3, [sp, #4]
200068d2:	f001 f9c7 	bl	20007c64 <xTaskPriorityDisinherit>
200068d6:	9b01      	ldr	r3, [sp, #4]
200068d8:	f1b8 3fff 	cmp.w	r8, #4294967295	@ 0xffffffff
200068dc:	f8c4 9038 	str.w	r9, [r4, #56]	@ 0x38
200068e0:	60a3      	str	r3, [r4, #8]
200068e2:	4681      	mov	r9, r0
200068e4:	d108      	bne.n	200068f8 <prvUnlockQueue+0x144>
200068e6:	6a63      	ldr	r3, [r4, #36]	@ 0x24
200068e8:	b99b      	cbnz	r3, 20006912 <prvUnlockQueue+0x15e>
200068ea:	f1b9 0f00 	cmp.w	r9, #0
200068ee:	f43f af74 	beq.w	200067da <prvUnlockQueue+0x26>
200068f2:	f001 f9ab 	bl	20007c4c <vTaskMissedYield>
200068f6:	e780      	b.n	200067fa <prvUnlockQueue+0x46>
200068f8:	f000 fd1e 	bl	20007338 <uxTaskGetNumberOfTasks>
200068fc:	4540      	cmp	r0, r8
200068fe:	d9f4      	bls.n	200068ea <prvUnlockQueue+0x136>
20006900:	f108 0301 	add.w	r3, r8, #1
20006904:	b25b      	sxtb	r3, r3
20006906:	f884 3045 	strb.w	r3, [r4, #69]	@ 0x45
2000690a:	f1b9 0f00 	cmp.w	r9, #0
2000690e:	d1f0      	bne.n	200068f2 <prvUnlockQueue+0x13e>
20006910:	e763      	b.n	200067da <prvUnlockQueue+0x26>
20006912:	f104 0024 	add.w	r0, r4, #36	@ 0x24
20006916:	f001 f889 	bl	20007a2c <xTaskRemoveFromEventList>
2000691a:	2800      	cmp	r0, #0
2000691c:	f47f af6b 	bne.w	200067f6 <prvUnlockQueue+0x42>
20006920:	f1b9 0f00 	cmp.w	r9, #0
20006924:	d1e5      	bne.n	200068f2 <prvUnlockQueue+0x13e>
20006926:	e758      	b.n	200067da <prvUnlockQueue+0x26>

20006928 <prvNotifyQueueSetContainer>:
20006928:	b5f0      	push	{r4, r5, r6, r7, lr}
2000692a:	6c84      	ldr	r4, [r0, #72]	@ 0x48
2000692c:	b083      	sub	sp, #12
2000692e:	6ba2      	ldr	r2, [r4, #56]	@ 0x38
20006930:	6be3      	ldr	r3, [r4, #60]	@ 0x3c
20006932:	9001      	str	r0, [sp, #4]
20006934:	429a      	cmp	r2, r3
20006936:	d303      	bcc.n	20006940 <prvNotifyQueueSetContainer+0x18>
20006938:	2500      	movs	r5, #0
2000693a:	4628      	mov	r0, r5
2000693c:	b003      	add	sp, #12
2000693e:	bdf0      	pop	{r4, r5, r6, r7, pc}
20006940:	f894 6045 	ldrb.w	r6, [r4, #69]	@ 0x45
20006944:	6c22      	ldr	r2, [r4, #64]	@ 0x40
20006946:	6ba7      	ldr	r7, [r4, #56]	@ 0x38
20006948:	b276      	sxtb	r6, r6
2000694a:	b1e2      	cbz	r2, 20006986 <prvNotifyQueueSetContainer+0x5e>
2000694c:	6860      	ldr	r0, [r4, #4]
2000694e:	a901      	add	r1, sp, #4
20006950:	f001 fcba 	bl	200082c8 <memcpy>
20006954:	6862      	ldr	r2, [r4, #4]
20006956:	6c23      	ldr	r3, [r4, #64]	@ 0x40
20006958:	441a      	add	r2, r3
2000695a:	68a3      	ldr	r3, [r4, #8]
2000695c:	6062      	str	r2, [r4, #4]
2000695e:	429a      	cmp	r2, r3
20006960:	d301      	bcc.n	20006966 <prvNotifyQueueSetContainer+0x3e>
20006962:	6823      	ldr	r3, [r4, #0]
20006964:	6063      	str	r3, [r4, #4]
20006966:	2500      	movs	r5, #0
20006968:	3701      	adds	r7, #1
2000696a:	1c73      	adds	r3, r6, #1
2000696c:	63a7      	str	r7, [r4, #56]	@ 0x38
2000696e:	d113      	bne.n	20006998 <prvNotifyQueueSetContainer+0x70>
20006970:	6a63      	ldr	r3, [r4, #36]	@ 0x24
20006972:	2b00      	cmp	r3, #0
20006974:	d0e1      	beq.n	2000693a <prvNotifyQueueSetContainer+0x12>
20006976:	f104 0024 	add.w	r0, r4, #36	@ 0x24
2000697a:	f001 f857 	bl	20007a2c <xTaskRemoveFromEventList>
2000697e:	2800      	cmp	r0, #0
20006980:	bf18      	it	ne
20006982:	2501      	movne	r5, #1
20006984:	e7d9      	b.n	2000693a <prvNotifyQueueSetContainer+0x12>
20006986:	6825      	ldr	r5, [r4, #0]
20006988:	2d00      	cmp	r5, #0
2000698a:	d1ec      	bne.n	20006966 <prvNotifyQueueSetContainer+0x3e>
2000698c:	68a0      	ldr	r0, [r4, #8]
2000698e:	f001 f969 	bl	20007c64 <xTaskPriorityDisinherit>
20006992:	60a5      	str	r5, [r4, #8]
20006994:	4605      	mov	r5, r0
20006996:	e7e7      	b.n	20006968 <prvNotifyQueueSetContainer+0x40>
20006998:	f000 fcce 	bl	20007338 <uxTaskGetNumberOfTasks>
2000699c:	4286      	cmp	r6, r0
2000699e:	d2cc      	bcs.n	2000693a <prvNotifyQueueSetContainer+0x12>
200069a0:	3601      	adds	r6, #1
200069a2:	b276      	sxtb	r6, r6
200069a4:	f884 6045 	strb.w	r6, [r4, #69]	@ 0x45
200069a8:	e7c7      	b.n	2000693a <prvNotifyQueueSetContainer+0x12>
200069aa:	bf00      	nop

200069ac <xQueueGenericCreate>:
200069ac:	b5f8      	push	{r3, r4, r5, r6, r7, lr}
200069ae:	b3c0      	cbz	r0, 20006a22 <xQueueGenericCreate+0x76>
200069b0:	4617      	mov	r7, r2
200069b2:	fba1 2300 	umull	r2, r3, r1, r0
200069b6:	4605      	mov	r5, r0
200069b8:	460e      	mov	r6, r1
200069ba:	bb93      	cbnz	r3, 20006a22 <xQueueGenericCreate+0x76>
200069bc:	fb01 f000 	mul.w	r0, r1, r0
200069c0:	f110 0f55 	cmn.w	r0, #85	@ 0x55
200069c4:	d82d      	bhi.n	20006a22 <xQueueGenericCreate+0x76>
200069c6:	3054      	adds	r0, #84	@ 0x54
200069c8:	f001 fbca 	bl	20008160 <pvPortMalloc>
200069cc:	4604      	mov	r4, r0
200069ce:	b340      	cbz	r0, 20006a22 <xQueueGenericCreate+0x76>
200069d0:	b356      	cbz	r6, 20006a28 <xQueueGenericCreate+0x7c>
200069d2:	f100 0354 	add.w	r3, r0, #84	@ 0x54
200069d6:	e9c4 560f 	strd	r5, r6, [r4, #60]	@ 0x3c
200069da:	6023      	str	r3, [r4, #0]
200069dc:	f7ff faba 	bl	20005f54 <vPortEnterCritical>
200069e0:	2500      	movs	r5, #0
200069e2:	23ff      	movs	r3, #255	@ 0xff
200069e4:	6c21      	ldr	r1, [r4, #64]	@ 0x40
200069e6:	63a5      	str	r5, [r4, #56]	@ 0x38
200069e8:	f884 3044 	strb.w	r3, [r4, #68]	@ 0x44
200069ec:	f884 3045 	strb.w	r3, [r4, #69]	@ 0x45
200069f0:	6be3      	ldr	r3, [r4, #60]	@ 0x3c
200069f2:	6822      	ldr	r2, [r4, #0]
200069f4:	fb01 f303 	mul.w	r3, r1, r3
200069f8:	1a59      	subs	r1, r3, r1
200069fa:	6062      	str	r2, [r4, #4]
200069fc:	4413      	add	r3, r2
200069fe:	440a      	add	r2, r1
20006a00:	e9c4 3202 	strd	r3, r2, [r4, #8]
20006a04:	f104 0010 	add.w	r0, r4, #16
20006a08:	f7ff fe4e 	bl	200066a8 <vListInitialise>
20006a0c:	f104 0024 	add.w	r0, r4, #36	@ 0x24
20006a10:	f7ff fe4a 	bl	200066a8 <vListInitialise>
20006a14:	f7ff faac 	bl	20005f70 <vPortExitCritical>
20006a18:	f884 7050 	strb.w	r7, [r4, #80]	@ 0x50
20006a1c:	4620      	mov	r0, r4
20006a1e:	64a5      	str	r5, [r4, #72]	@ 0x48
20006a20:	bdf8      	pop	{r3, r4, r5, r6, r7, pc}
20006a22:	2400      	movs	r4, #0
20006a24:	4620      	mov	r0, r4
20006a26:	bdf8      	pop	{r3, r4, r5, r6, r7, pc}
20006a28:	4603      	mov	r3, r0
20006a2a:	e7d4      	b.n	200069d6 <xQueueGenericCreate+0x2a>

20006a2c <xQueueGenericSendFromISR>:
20006a2c:	e92d 43f8 	stmdb	sp!, {r3, r4, r5, r6, r7, r8, r9, lr}
20006a30:	4604      	mov	r4, r0
20006a32:	4690      	mov	r8, r2
20006a34:	461d      	mov	r5, r3
20006a36:	460f      	mov	r7, r1
20006a38:	f7ff fb86 	bl	20006148 <vPortValidateInterruptPriority>
20006a3c:	f7ff fcf8 	bl	20006430 <ulSetInterruptMask>
20006a40:	6ba2      	ldr	r2, [r4, #56]	@ 0x38
20006a42:	6be3      	ldr	r3, [r4, #60]	@ 0x3c
20006a44:	4606      	mov	r6, r0
20006a46:	429a      	cmp	r2, r3
20006a48:	d308      	bcc.n	20006a5c <xQueueGenericSendFromISR+0x30>
20006a4a:	2d02      	cmp	r5, #2
20006a4c:	d006      	beq.n	20006a5c <xQueueGenericSendFromISR+0x30>
20006a4e:	2400      	movs	r4, #0
20006a50:	4630      	mov	r0, r6
20006a52:	f7ff fcf9 	bl	20006448 <vClearInterruptMask>
20006a56:	4620      	mov	r0, r4
20006a58:	e8bd 83f8 	ldmia.w	sp!, {r3, r4, r5, r6, r7, r8, r9, pc}
20006a5c:	4639      	mov	r1, r7
20006a5e:	f894 7045 	ldrb.w	r7, [r4, #69]	@ 0x45
20006a62:	462a      	mov	r2, r5
20006a64:	4620      	mov	r0, r4
20006a66:	b27f      	sxtb	r7, r7
20006a68:	f8d4 9038 	ldr.w	r9, [r4, #56]	@ 0x38
20006a6c:	f7ff fe66 	bl	2000673c <prvCopyDataToQueue>
20006a70:	1c7b      	adds	r3, r7, #1
20006a72:	d108      	bne.n	20006a86 <xQueueGenericSendFromISR+0x5a>
20006a74:	6ca3      	ldr	r3, [r4, #72]	@ 0x48
20006a76:	b17b      	cbz	r3, 20006a98 <xQueueGenericSendFromISR+0x6c>
20006a78:	2d02      	cmp	r5, #2
20006a7a:	d11d      	bne.n	20006ab8 <xQueueGenericSendFromISR+0x8c>
20006a7c:	f1b9 0f00 	cmp.w	r9, #0
20006a80:	d01a      	beq.n	20006ab8 <xQueueGenericSendFromISR+0x8c>
20006a82:	2401      	movs	r4, #1
20006a84:	e7e4      	b.n	20006a50 <xQueueGenericSendFromISR+0x24>
20006a86:	f000 fc57 	bl	20007338 <uxTaskGetNumberOfTasks>
20006a8a:	4287      	cmp	r7, r0
20006a8c:	d2f9      	bcs.n	20006a82 <xQueueGenericSendFromISR+0x56>
20006a8e:	3701      	adds	r7, #1
20006a90:	b27f      	sxtb	r7, r7
20006a92:	f884 7045 	strb.w	r7, [r4, #69]	@ 0x45
20006a96:	e7f4      	b.n	20006a82 <xQueueGenericSendFromISR+0x56>
20006a98:	6a63      	ldr	r3, [r4, #36]	@ 0x24
20006a9a:	2b00      	cmp	r3, #0
20006a9c:	d0f1      	beq.n	20006a82 <xQueueGenericSendFromISR+0x56>
20006a9e:	f104 0024 	add.w	r0, r4, #36	@ 0x24
20006aa2:	f000 ffc3 	bl	20007a2c <xTaskRemoveFromEventList>
20006aa6:	2800      	cmp	r0, #0
20006aa8:	d0eb      	beq.n	20006a82 <xQueueGenericSendFromISR+0x56>
20006aaa:	f1b8 0f00 	cmp.w	r8, #0
20006aae:	d0e8      	beq.n	20006a82 <xQueueGenericSendFromISR+0x56>
20006ab0:	2301      	movs	r3, #1
20006ab2:	f8c8 3000 	str.w	r3, [r8]
20006ab6:	e7e4      	b.n	20006a82 <xQueueGenericSendFromISR+0x56>
20006ab8:	4620      	mov	r0, r4
20006aba:	f7ff ff35 	bl	20006928 <prvNotifyQueueSetContainer>
20006abe:	2800      	cmp	r0, #0
20006ac0:	d0df      	beq.n	20006a82 <xQueueGenericSendFromISR+0x56>
20006ac2:	e7f2      	b.n	20006aaa <xQueueGenericSendFromISR+0x7e>

20006ac4 <xQueueReceive>:
20006ac4:	b5f0      	push	{r4, r5, r6, r7, lr}
20006ac6:	4604      	mov	r4, r0
20006ac8:	b085      	sub	sp, #20
20006aca:	460f      	mov	r7, r1
20006acc:	9201      	str	r2, [sp, #4]
20006ace:	f7ff fa41 	bl	20005f54 <vPortEnterCritical>
20006ad2:	6ba5      	ldr	r5, [r4, #56]	@ 0x38
20006ad4:	2d00      	cmp	r5, #0
20006ad6:	d153      	bne.n	20006b80 <xQueueReceive+0xbc>
20006ad8:	9b01      	ldr	r3, [sp, #4]
20006ada:	b3a3      	cbz	r3, 20006b46 <xQueueReceive+0x82>
20006adc:	a802      	add	r0, sp, #8
20006ade:	f001 f86d 	bl	20007bbc <vTaskInternalSetTimeOutState>
20006ae2:	462e      	mov	r6, r5
20006ae4:	f7ff fa44 	bl	20005f70 <vPortExitCritical>
20006ae8:	f000 fc18 	bl	2000731c <vTaskSuspendAll>
20006aec:	f7ff fa32 	bl	20005f54 <vPortEnterCritical>
20006af0:	f894 3044 	ldrb.w	r3, [r4, #68]	@ 0x44
20006af4:	2bff      	cmp	r3, #255	@ 0xff
20006af6:	bf08      	it	eq
20006af8:	f884 6044 	strbeq.w	r6, [r4, #68]	@ 0x44
20006afc:	f894 3045 	ldrb.w	r3, [r4, #69]	@ 0x45
20006b00:	2bff      	cmp	r3, #255	@ 0xff
20006b02:	bf08      	it	eq
20006b04:	f884 6045 	strbeq.w	r6, [r4, #69]	@ 0x45
20006b08:	f7ff fa32 	bl	20005f70 <vPortExitCritical>
20006b0c:	a901      	add	r1, sp, #4
20006b0e:	a802      	add	r0, sp, #8
20006b10:	f001 f860 	bl	20007bd4 <xTaskCheckForTimeOut>
20006b14:	b9e0      	cbnz	r0, 20006b50 <xQueueReceive+0x8c>
20006b16:	f7ff fa1d 	bl	20005f54 <vPortEnterCritical>
20006b1a:	6ba3      	ldr	r3, [r4, #56]	@ 0x38
20006b1c:	bb2b      	cbnz	r3, 20006b6a <xQueueReceive+0xa6>
20006b1e:	f7ff fa27 	bl	20005f70 <vPortExitCritical>
20006b22:	9901      	ldr	r1, [sp, #4]
20006b24:	f104 0024 	add.w	r0, r4, #36	@ 0x24
20006b28:	f000 fe0a 	bl	20007740 <vTaskPlaceOnEventList>
20006b2c:	4620      	mov	r0, r4
20006b2e:	f7ff fe41 	bl	200067b4 <prvUnlockQueue>
20006b32:	f000 fce1 	bl	200074f8 <xTaskResumeAll>
20006b36:	b300      	cbz	r0, 20006b7a <xQueueReceive+0xb6>
20006b38:	f7ff fa0c 	bl	20005f54 <vPortEnterCritical>
20006b3c:	6ba5      	ldr	r5, [r4, #56]	@ 0x38
20006b3e:	b9fd      	cbnz	r5, 20006b80 <xQueueReceive+0xbc>
20006b40:	9b01      	ldr	r3, [sp, #4]
20006b42:	2b00      	cmp	r3, #0
20006b44:	d1ce      	bne.n	20006ae4 <xQueueReceive+0x20>
20006b46:	f7ff fa13 	bl	20005f70 <vPortExitCritical>
20006b4a:	2000      	movs	r0, #0
20006b4c:	b005      	add	sp, #20
20006b4e:	bdf0      	pop	{r4, r5, r6, r7, pc}
20006b50:	4620      	mov	r0, r4
20006b52:	f7ff fe2f 	bl	200067b4 <prvUnlockQueue>
20006b56:	f000 fccf 	bl	200074f8 <xTaskResumeAll>
20006b5a:	f7ff f9fb 	bl	20005f54 <vPortEnterCritical>
20006b5e:	6ba3      	ldr	r3, [r4, #56]	@ 0x38
20006b60:	2b00      	cmp	r3, #0
20006b62:	d0f0      	beq.n	20006b46 <xQueueReceive+0x82>
20006b64:	f7ff fa04 	bl	20005f70 <vPortExitCritical>
20006b68:	e7e6      	b.n	20006b38 <xQueueReceive+0x74>
20006b6a:	f7ff fa01 	bl	20005f70 <vPortExitCritical>
20006b6e:	4620      	mov	r0, r4
20006b70:	f7ff fe20 	bl	200067b4 <prvUnlockQueue>
20006b74:	f000 fcc0 	bl	200074f8 <xTaskResumeAll>
20006b78:	e7de      	b.n	20006b38 <xQueueReceive+0x74>
20006b7a:	f7ff f9df 	bl	20005f3c <vPortYield>
20006b7e:	e7db      	b.n	20006b38 <xQueueReceive+0x74>
20006b80:	6c22      	ldr	r2, [r4, #64]	@ 0x40
20006b82:	b15a      	cbz	r2, 20006b9c <xQueueReceive+0xd8>
20006b84:	68e1      	ldr	r1, [r4, #12]
20006b86:	68a3      	ldr	r3, [r4, #8]
20006b88:	4411      	add	r1, r2
20006b8a:	4299      	cmp	r1, r3
20006b8c:	60e1      	str	r1, [r4, #12]
20006b8e:	bf28      	it	cs
20006b90:	6821      	ldrcs	r1, [r4, #0]
20006b92:	4638      	mov	r0, r7
20006b94:	bf28      	it	cs
20006b96:	60e1      	strcs	r1, [r4, #12]
20006b98:	f001 fb96 	bl	200082c8 <memcpy>
20006b9c:	6923      	ldr	r3, [r4, #16]
20006b9e:	3d01      	subs	r5, #1
20006ba0:	63a5      	str	r5, [r4, #56]	@ 0x38
20006ba2:	b923      	cbnz	r3, 20006bae <xQueueReceive+0xea>
20006ba4:	f7ff f9e4 	bl	20005f70 <vPortExitCritical>
20006ba8:	2001      	movs	r0, #1
20006baa:	b005      	add	sp, #20
20006bac:	bdf0      	pop	{r4, r5, r6, r7, pc}
20006bae:	f104 0010 	add.w	r0, r4, #16
20006bb2:	f000 ff3b 	bl	20007a2c <xTaskRemoveFromEventList>
20006bb6:	2800      	cmp	r0, #0
20006bb8:	d0f4      	beq.n	20006ba4 <xQueueReceive+0xe0>
20006bba:	f7ff f9bf 	bl	20005f3c <vPortYield>
20006bbe:	e7f1      	b.n	20006ba4 <xQueueReceive+0xe0>

20006bc0 <vQueueAddToRegistry>:
20006bc0:	2900      	cmp	r1, #0
20006bc2:	d055      	beq.n	20006c70 <vQueueAddToRegistry+0xb0>
20006bc4:	4b44      	ldr	r3, [pc, #272]	@ (20006cd8 <vQueueAddToRegistry+0x118>)
20006bc6:	685a      	ldr	r2, [r3, #4]
20006bc8:	4290      	cmp	r0, r2
20006bca:	d072      	beq.n	20006cb2 <vQueueAddToRegistry+0xf2>
20006bcc:	681a      	ldr	r2, [r3, #0]
20006bce:	b410      	push	{r4}
20006bd0:	2a00      	cmp	r2, #0
20006bd2:	d02c      	beq.n	20006c2e <vQueueAddToRegistry+0x6e>
20006bd4:	68da      	ldr	r2, [r3, #12]
20006bd6:	4290      	cmp	r0, r2
20006bd8:	d07b      	beq.n	20006cd2 <vQueueAddToRegistry+0x112>
20006bda:	689a      	ldr	r2, [r3, #8]
20006bdc:	2a00      	cmp	r2, #0
20006bde:	d041      	beq.n	20006c64 <vQueueAddToRegistry+0xa4>
20006be0:	695a      	ldr	r2, [r3, #20]
20006be2:	4290      	cmp	r0, r2
20006be4:	d073      	beq.n	20006cce <vQueueAddToRegistry+0x10e>
20006be6:	691a      	ldr	r2, [r3, #16]
20006be8:	2a00      	cmp	r2, #0
20006bea:	d042      	beq.n	20006c72 <vQueueAddToRegistry+0xb2>
20006bec:	69da      	ldr	r2, [r3, #28]
20006bee:	4290      	cmp	r0, r2
20006bf0:	d065      	beq.n	20006cbe <vQueueAddToRegistry+0xfe>
20006bf2:	699a      	ldr	r2, [r3, #24]
20006bf4:	2a00      	cmp	r2, #0
20006bf6:	d042      	beq.n	20006c7e <vQueueAddToRegistry+0xbe>
20006bf8:	6a5a      	ldr	r2, [r3, #36]	@ 0x24
20006bfa:	4290      	cmp	r0, r2
20006bfc:	d044      	beq.n	20006c88 <vQueueAddToRegistry+0xc8>
20006bfe:	6a1a      	ldr	r2, [r3, #32]
20006c00:	2a00      	cmp	r2, #0
20006c02:	d045      	beq.n	20006c90 <vQueueAddToRegistry+0xd0>
20006c04:	6ada      	ldr	r2, [r3, #44]	@ 0x2c
20006c06:	4290      	cmp	r0, r2
20006c08:	d05b      	beq.n	20006cc2 <vQueueAddToRegistry+0x102>
20006c0a:	6a9a      	ldr	r2, [r3, #40]	@ 0x28
20006c0c:	2a00      	cmp	r2, #0
20006c0e:	d044      	beq.n	20006c9a <vQueueAddToRegistry+0xda>
20006c10:	6b5a      	ldr	r2, [r3, #52]	@ 0x34
20006c12:	4290      	cmp	r0, r2
20006c14:	d057      	beq.n	20006cc6 <vQueueAddToRegistry+0x106>
20006c16:	6b1a      	ldr	r2, [r3, #48]	@ 0x30
20006c18:	2a00      	cmp	r2, #0
20006c1a:	d043      	beq.n	20006ca4 <vQueueAddToRegistry+0xe4>
20006c1c:	6bda      	ldr	r2, [r3, #60]	@ 0x3c
20006c1e:	4290      	cmp	r0, r2
20006c20:	d053      	beq.n	20006cca <vQueueAddToRegistry+0x10a>
20006c22:	6b9b      	ldr	r3, [r3, #56]	@ 0x38
20006c24:	2b00      	cmp	r3, #0
20006c26:	d042      	beq.n	20006cae <vQueueAddToRegistry+0xee>
20006c28:	f85d 4b04 	ldr.w	r4, [sp], #4
20006c2c:	4770      	bx	lr
20006c2e:	68da      	ldr	r2, [r3, #12]
20006c30:	4290      	cmp	r0, r2
20006c32:	d04e      	beq.n	20006cd2 <vQueueAddToRegistry+0x112>
20006c34:	695a      	ldr	r2, [r3, #20]
20006c36:	4290      	cmp	r0, r2
20006c38:	d049      	beq.n	20006cce <vQueueAddToRegistry+0x10e>
20006c3a:	461a      	mov	r2, r3
20006c3c:	69dc      	ldr	r4, [r3, #28]
20006c3e:	42a0      	cmp	r0, r4
20006c40:	d03d      	beq.n	20006cbe <vQueueAddToRegistry+0xfe>
20006c42:	6a5c      	ldr	r4, [r3, #36]	@ 0x24
20006c44:	42a0      	cmp	r0, r4
20006c46:	d01f      	beq.n	20006c88 <vQueueAddToRegistry+0xc8>
20006c48:	6adc      	ldr	r4, [r3, #44]	@ 0x2c
20006c4a:	42a0      	cmp	r0, r4
20006c4c:	d039      	beq.n	20006cc2 <vQueueAddToRegistry+0x102>
20006c4e:	6b5c      	ldr	r4, [r3, #52]	@ 0x34
20006c50:	42a0      	cmp	r0, r4
20006c52:	d038      	beq.n	20006cc6 <vQueueAddToRegistry+0x106>
20006c54:	6bdc      	ldr	r4, [r3, #60]	@ 0x3c
20006c56:	42a0      	cmp	r0, r4
20006c58:	d037      	beq.n	20006cca <vQueueAddToRegistry+0x10a>
20006c5a:	e9c2 1000 	strd	r1, r0, [r2]
20006c5e:	f85d 4b04 	ldr.w	r4, [sp], #4
20006c62:	4770      	bx	lr
20006c64:	695a      	ldr	r2, [r3, #20]
20006c66:	4290      	cmp	r0, r2
20006c68:	d031      	beq.n	20006cce <vQueueAddToRegistry+0x10e>
20006c6a:	f103 0208 	add.w	r2, r3, #8
20006c6e:	e7e5      	b.n	20006c3c <vQueueAddToRegistry+0x7c>
20006c70:	4770      	bx	lr
20006c72:	69da      	ldr	r2, [r3, #28]
20006c74:	4290      	cmp	r0, r2
20006c76:	d022      	beq.n	20006cbe <vQueueAddToRegistry+0xfe>
20006c78:	f103 0210 	add.w	r2, r3, #16
20006c7c:	e7e1      	b.n	20006c42 <vQueueAddToRegistry+0x82>
20006c7e:	6a5a      	ldr	r2, [r3, #36]	@ 0x24
20006c80:	4290      	cmp	r0, r2
20006c82:	d001      	beq.n	20006c88 <vQueueAddToRegistry+0xc8>
20006c84:	4a15      	ldr	r2, [pc, #84]	@ (20006cdc <vQueueAddToRegistry+0x11c>)
20006c86:	e7df      	b.n	20006c48 <vQueueAddToRegistry+0x88>
20006c88:	2204      	movs	r2, #4
20006c8a:	eb03 02c2 	add.w	r2, r3, r2, lsl #3
20006c8e:	e7e4      	b.n	20006c5a <vQueueAddToRegistry+0x9a>
20006c90:	6ada      	ldr	r2, [r3, #44]	@ 0x2c
20006c92:	4290      	cmp	r0, r2
20006c94:	d015      	beq.n	20006cc2 <vQueueAddToRegistry+0x102>
20006c96:	4a12      	ldr	r2, [pc, #72]	@ (20006ce0 <vQueueAddToRegistry+0x120>)
20006c98:	e7d9      	b.n	20006c4e <vQueueAddToRegistry+0x8e>
20006c9a:	6b5a      	ldr	r2, [r3, #52]	@ 0x34
20006c9c:	4290      	cmp	r0, r2
20006c9e:	d012      	beq.n	20006cc6 <vQueueAddToRegistry+0x106>
20006ca0:	4a10      	ldr	r2, [pc, #64]	@ (20006ce4 <vQueueAddToRegistry+0x124>)
20006ca2:	e7d7      	b.n	20006c54 <vQueueAddToRegistry+0x94>
20006ca4:	6bda      	ldr	r2, [r3, #60]	@ 0x3c
20006ca6:	4290      	cmp	r0, r2
20006ca8:	d00f      	beq.n	20006cca <vQueueAddToRegistry+0x10a>
20006caa:	4a0f      	ldr	r2, [pc, #60]	@ (20006ce8 <vQueueAddToRegistry+0x128>)
20006cac:	e7d5      	b.n	20006c5a <vQueueAddToRegistry+0x9a>
20006cae:	4a0f      	ldr	r2, [pc, #60]	@ (20006cec <vQueueAddToRegistry+0x12c>)
20006cb0:	e7d3      	b.n	20006c5a <vQueueAddToRegistry+0x9a>
20006cb2:	2200      	movs	r2, #0
20006cb4:	eb03 02c2 	add.w	r2, r3, r2, lsl #3
20006cb8:	e9c2 1000 	strd	r1, r0, [r2]
20006cbc:	4770      	bx	lr
20006cbe:	2203      	movs	r2, #3
20006cc0:	e7e3      	b.n	20006c8a <vQueueAddToRegistry+0xca>
20006cc2:	2205      	movs	r2, #5
20006cc4:	e7e1      	b.n	20006c8a <vQueueAddToRegistry+0xca>
20006cc6:	2206      	movs	r2, #6
20006cc8:	e7df      	b.n	20006c8a <vQueueAddToRegistry+0xca>
20006cca:	2207      	movs	r2, #7
20006ccc:	e7dd      	b.n	20006c8a <vQueueAddToRegistry+0xca>
20006cce:	2202      	movs	r2, #2
20006cd0:	e7db      	b.n	20006c8a <vQueueAddToRegistry+0xca>
20006cd2:	2201      	movs	r2, #1
20006cd4:	e7d9      	b.n	20006c8a <vQueueAddToRegistry+0xca>
20006cd6:	bf00      	nop
20006cd8:	2000a9f0 	.word	0x2000a9f0
20006cdc:	2000aa08 	.word	0x2000aa08
20006ce0:	2000aa10 	.word	0x2000aa10
20006ce4:	2000aa18 	.word	0x2000aa18
20006ce8:	2000aa20 	.word	0x2000aa20
20006cec:	2000aa28 	.word	0x2000aa28

20006cf0 <vQueueWaitForMessageRestricted>:
20006cf0:	b570      	push	{r4, r5, r6, lr}
20006cf2:	4604      	mov	r4, r0
20006cf4:	460e      	mov	r6, r1
20006cf6:	4615      	mov	r5, r2
20006cf8:	f7ff f92c 	bl	20005f54 <vPortEnterCritical>
20006cfc:	f894 3044 	ldrb.w	r3, [r4, #68]	@ 0x44
20006d00:	2bff      	cmp	r3, #255	@ 0xff
20006d02:	bf04      	itt	eq
20006d04:	2300      	moveq	r3, #0
20006d06:	f884 3044 	strbeq.w	r3, [r4, #68]	@ 0x44
20006d0a:	f894 3045 	ldrb.w	r3, [r4, #69]	@ 0x45
20006d0e:	2bff      	cmp	r3, #255	@ 0xff
20006d10:	bf04      	itt	eq
20006d12:	2300      	moveq	r3, #0
20006d14:	f884 3045 	strbeq.w	r3, [r4, #69]	@ 0x45
20006d18:	f7ff f92a 	bl	20005f70 <vPortExitCritical>
20006d1c:	6ba3      	ldr	r3, [r4, #56]	@ 0x38
20006d1e:	b123      	cbz	r3, 20006d2a <vQueueWaitForMessageRestricted+0x3a>
20006d20:	4620      	mov	r0, r4
20006d22:	e8bd 4070 	ldmia.w	sp!, {r4, r5, r6, lr}
20006d26:	f7ff bd45 	b.w	200067b4 <prvUnlockQueue>
20006d2a:	f104 0024 	add.w	r0, r4, #36	@ 0x24
20006d2e:	462a      	mov	r2, r5
20006d30:	4631      	mov	r1, r6
20006d32:	f000 fde1 	bl	200078f8 <vTaskPlaceOnEventListRestricted>
20006d36:	4620      	mov	r0, r4
20006d38:	e8bd 4070 	ldmia.w	sp!, {r4, r5, r6, lr}
20006d3c:	f7ff bd3a 	b.w	200067b4 <prvUnlockQueue>

20006d40 <prvAddNewTaskToReadyList>:
20006d40:	e92d 41f0 	stmdb	sp!, {r4, r5, r6, r7, r8, lr}
20006d44:	4604      	mov	r4, r0
20006d46:	f7ff f905 	bl	20005f54 <vPortEnterCritical>
20006d4a:	4a3a      	ldr	r2, [pc, #232]	@ (20006e34 <prvAddNewTaskToReadyList+0xf4>)
20006d4c:	4e3a      	ldr	r6, [pc, #232]	@ (20006e38 <prvAddNewTaskToReadyList+0xf8>)
20006d4e:	6813      	ldr	r3, [r2, #0]
20006d50:	3301      	adds	r3, #1
20006d52:	6013      	str	r3, [r2, #0]
20006d54:	6833      	ldr	r3, [r6, #0]
20006d56:	2b00      	cmp	r3, #0
20006d58:	d03c      	beq.n	20006dd4 <prvAddNewTaskToReadyList+0x94>
20006d5a:	4d38      	ldr	r5, [pc, #224]	@ (20006e3c <prvAddNewTaskToReadyList+0xfc>)
20006d5c:	6ae2      	ldr	r2, [r4, #44]	@ 0x2c
20006d5e:	682b      	ldr	r3, [r5, #0]
20006d60:	b38b      	cbz	r3, 20006dc6 <prvAddNewTaskToReadyList+0x86>
20006d62:	4f37      	ldr	r7, [pc, #220]	@ (20006e40 <prvAddNewTaskToReadyList+0x100>)
20006d64:	2101      	movs	r1, #1
20006d66:	f8df e0f4 	ldr.w	lr, [pc, #244]	@ 20006e5c <prvAddNewTaskToReadyList+0x11c>
20006d6a:	eb02 0382 	add.w	r3, r2, r2, lsl #2
20006d6e:	4091      	lsls	r1, r2
20006d70:	f8de 2000 	ldr.w	r2, [lr]
20006d74:	f8df 80e8 	ldr.w	r8, [pc, #232]	@ 20006e60 <prvAddNewTaskToReadyList+0x120>
20006d78:	eb07 0c83 	add.w	ip, r7, r3, lsl #2
20006d7c:	3201      	adds	r2, #1
20006d7e:	f8dc 0004 	ldr.w	r0, [ip, #4]
20006d82:	f8ce 2000 	str.w	r2, [lr]
20006d86:	6462      	str	r2, [r4, #68]	@ 0x44
20006d88:	f8d8 2000 	ldr.w	r2, [r8]
20006d8c:	009b      	lsls	r3, r3, #2
20006d8e:	430a      	orrs	r2, r1
20006d90:	f8d0 e008 	ldr.w	lr, [r0, #8]
20006d94:	f8c8 2000 	str.w	r2, [r8]
20006d98:	58fa      	ldr	r2, [r7, r3]
20006d9a:	1d21      	adds	r1, r4, #4
20006d9c:	60a0      	str	r0, [r4, #8]
20006d9e:	f8c4 e00c 	str.w	lr, [r4, #12]
20006da2:	3201      	adds	r2, #1
20006da4:	f8ce 1004 	str.w	r1, [lr, #4]
20006da8:	6081      	str	r1, [r0, #8]
20006daa:	f8c4 c014 	str.w	ip, [r4, #20]
20006dae:	50fa      	str	r2, [r7, r3]
20006db0:	f7ff f8de 	bl	20005f70 <vPortExitCritical>
20006db4:	682b      	ldr	r3, [r5, #0]
20006db6:	b123      	cbz	r3, 20006dc2 <prvAddNewTaskToReadyList+0x82>
20006db8:	6832      	ldr	r2, [r6, #0]
20006dba:	6ae3      	ldr	r3, [r4, #44]	@ 0x2c
20006dbc:	6ad2      	ldr	r2, [r2, #44]	@ 0x2c
20006dbe:	429a      	cmp	r2, r3
20006dc0:	d310      	bcc.n	20006de4 <prvAddNewTaskToReadyList+0xa4>
20006dc2:	e8bd 81f0 	ldmia.w	sp!, {r4, r5, r6, r7, r8, pc}
20006dc6:	6833      	ldr	r3, [r6, #0]
20006dc8:	4f1d      	ldr	r7, [pc, #116]	@ (20006e40 <prvAddNewTaskToReadyList+0x100>)
20006dca:	6adb      	ldr	r3, [r3, #44]	@ 0x2c
20006dcc:	4293      	cmp	r3, r2
20006dce:	bf98      	it	ls
20006dd0:	6034      	strls	r4, [r6, #0]
20006dd2:	e7c7      	b.n	20006d64 <prvAddNewTaskToReadyList+0x24>
20006dd4:	6034      	str	r4, [r6, #0]
20006dd6:	6813      	ldr	r3, [r2, #0]
20006dd8:	2b01      	cmp	r3, #1
20006dda:	d007      	beq.n	20006dec <prvAddNewTaskToReadyList+0xac>
20006ddc:	6ae2      	ldr	r2, [r4, #44]	@ 0x2c
20006dde:	4f18      	ldr	r7, [pc, #96]	@ (20006e40 <prvAddNewTaskToReadyList+0x100>)
20006de0:	4d16      	ldr	r5, [pc, #88]	@ (20006e3c <prvAddNewTaskToReadyList+0xfc>)
20006de2:	e7bf      	b.n	20006d64 <prvAddNewTaskToReadyList+0x24>
20006de4:	e8bd 41f0 	ldmia.w	sp!, {r4, r5, r6, r7, r8, lr}
20006de8:	f7ff b8a8 	b.w	20005f3c <vPortYield>
20006dec:	4f14      	ldr	r7, [pc, #80]	@ (20006e40 <prvAddNewTaskToReadyList+0x100>)
20006dee:	463d      	mov	r5, r7
20006df0:	f507 7820 	add.w	r8, r7, #640	@ 0x280
20006df4:	4628      	mov	r0, r5
20006df6:	3514      	adds	r5, #20
20006df8:	f7ff fc56 	bl	200066a8 <vListInitialise>
20006dfc:	4545      	cmp	r5, r8
20006dfe:	d1f9      	bne.n	20006df4 <prvAddNewTaskToReadyList+0xb4>
20006e00:	f8df 8060 	ldr.w	r8, [pc, #96]	@ 20006e64 <prvAddNewTaskToReadyList+0x124>
20006e04:	4d0f      	ldr	r5, [pc, #60]	@ (20006e44 <prvAddNewTaskToReadyList+0x104>)
20006e06:	4640      	mov	r0, r8
20006e08:	f7ff fc4e 	bl	200066a8 <vListInitialise>
20006e0c:	4628      	mov	r0, r5
20006e0e:	f7ff fc4b 	bl	200066a8 <vListInitialise>
20006e12:	480d      	ldr	r0, [pc, #52]	@ (20006e48 <prvAddNewTaskToReadyList+0x108>)
20006e14:	f7ff fc48 	bl	200066a8 <vListInitialise>
20006e18:	480c      	ldr	r0, [pc, #48]	@ (20006e4c <prvAddNewTaskToReadyList+0x10c>)
20006e1a:	f7ff fc45 	bl	200066a8 <vListInitialise>
20006e1e:	480c      	ldr	r0, [pc, #48]	@ (20006e50 <prvAddNewTaskToReadyList+0x110>)
20006e20:	f7ff fc42 	bl	200066a8 <vListInitialise>
20006e24:	4b0b      	ldr	r3, [pc, #44]	@ (20006e54 <prvAddNewTaskToReadyList+0x114>)
20006e26:	6ae2      	ldr	r2, [r4, #44]	@ 0x2c
20006e28:	f8c3 8000 	str.w	r8, [r3]
20006e2c:	4b0a      	ldr	r3, [pc, #40]	@ (20006e58 <prvAddNewTaskToReadyList+0x118>)
20006e2e:	601d      	str	r5, [r3, #0]
20006e30:	4d02      	ldr	r5, [pc, #8]	@ (20006e3c <prvAddNewTaskToReadyList+0xfc>)
20006e32:	e797      	b.n	20006d64 <prvAddNewTaskToReadyList+0x24>
20006e34:	2001f98c 	.word	0x2001f98c
20006e38:	2000f674 	.word	0x2000f674
20006e3c:	2001fa28 	.word	0x2001fa28
20006e40:	2000f688 	.word	0x2000f688
20006e44:	2001f9e4 	.word	0x2001f9e4
20006e48:	2001fa14 	.word	0x2001fa14
20006e4c:	2001fa40 	.word	0x2001fa40
20006e50:	2001fa2c 	.word	0x2001fa2c
20006e54:	2000f67c 	.word	0x2000f67c
20006e58:	2000f680 	.word	0x2000f680
20006e5c:	2001f998 	.word	0x2001f998
20006e60:	2001f99c 	.word	0x2001f99c
20006e64:	2001f9d0 	.word	0x2001f9d0

20006e68 <prvAddCurrentTaskToDelayedList>:
20006e68:	e92d 43f8 	stmdb	sp!, {r3, r4, r5, r6, r7, r8, r9, lr}
20006e6c:	4a2b      	ldr	r2, [pc, #172]	@ (20006f1c <prvAddCurrentTaskToDelayedList+0xb4>)
20006e6e:	4c2c      	ldr	r4, [pc, #176]	@ (20006f20 <prvAddCurrentTaskToDelayedList+0xb8>)
20006e70:	4b2c      	ldr	r3, [pc, #176]	@ (20006f24 <prvAddCurrentTaskToDelayedList+0xbc>)
20006e72:	6827      	ldr	r7, [r4, #0]
20006e74:	f8d2 8000 	ldr.w	r8, [r2]
20006e78:	2200      	movs	r2, #0
20006e7a:	4d2b      	ldr	r5, [pc, #172]	@ (20006f28 <prvAddCurrentTaskToDelayedList+0xc0>)
20006e7c:	f8d3 9000 	ldr.w	r9, [r3]
20006e80:	4604      	mov	r4, r0
20006e82:	682b      	ldr	r3, [r5, #0]
20006e84:	6828      	ldr	r0, [r5, #0]
20006e86:	f883 206d 	strb.w	r2, [r3, #109]	@ 0x6d
20006e8a:	3004      	adds	r0, #4
20006e8c:	460e      	mov	r6, r1
20006e8e:	f7ff fc41 	bl	20006714 <uxListRemove>
20006e92:	b940      	cbnz	r0, 20006ea6 <prvAddCurrentTaskToDelayedList+0x3e>
20006e94:	2201      	movs	r2, #1
20006e96:	682b      	ldr	r3, [r5, #0]
20006e98:	4924      	ldr	r1, [pc, #144]	@ (20006f2c <prvAddCurrentTaskToDelayedList+0xc4>)
20006e9a:	6adb      	ldr	r3, [r3, #44]	@ 0x2c
20006e9c:	409a      	lsls	r2, r3
20006e9e:	680b      	ldr	r3, [r1, #0]
20006ea0:	ea23 0302 	bic.w	r3, r3, r2
20006ea4:	600b      	str	r3, [r1, #0]
20006ea6:	1c63      	adds	r3, r4, #1
20006ea8:	d016      	beq.n	20006ed8 <prvAddCurrentTaskToDelayedList+0x70>
20006eaa:	682b      	ldr	r3, [r5, #0]
20006eac:	193c      	adds	r4, r7, r4
20006eae:	605c      	str	r4, [r3, #4]
20006eb0:	d20b      	bcs.n	20006eca <prvAddCurrentTaskToDelayedList+0x62>
20006eb2:	6829      	ldr	r1, [r5, #0]
20006eb4:	4640      	mov	r0, r8
20006eb6:	3104      	adds	r1, #4
20006eb8:	f7ff fc14 	bl	200066e4 <vListInsert>
20006ebc:	4b1c      	ldr	r3, [pc, #112]	@ (20006f30 <prvAddCurrentTaskToDelayedList+0xc8>)
20006ebe:	681a      	ldr	r2, [r3, #0]
20006ec0:	42a2      	cmp	r2, r4
20006ec2:	d900      	bls.n	20006ec6 <prvAddCurrentTaskToDelayedList+0x5e>
20006ec4:	601c      	str	r4, [r3, #0]
20006ec6:	e8bd 83f8 	ldmia.w	sp!, {r3, r4, r5, r6, r7, r8, r9, pc}
20006eca:	6829      	ldr	r1, [r5, #0]
20006ecc:	4648      	mov	r0, r9
20006ece:	e8bd 43f8 	ldmia.w	sp!, {r3, r4, r5, r6, r7, r8, r9, lr}
20006ed2:	3104      	adds	r1, #4
20006ed4:	f7ff bc06 	b.w	200066e4 <vListInsert>
20006ed8:	b966      	cbnz	r6, 20006ef4 <prvAddCurrentTaskToDelayedList+0x8c>
20006eda:	682b      	ldr	r3, [r5, #0]
20006edc:	1e7a      	subs	r2, r7, #1
20006ede:	605a      	str	r2, [r3, #4]
20006ee0:	2f00      	cmp	r7, #0
20006ee2:	d1f2      	bne.n	20006eca <prvAddCurrentTaskToDelayedList+0x62>
20006ee4:	6829      	ldr	r1, [r5, #0]
20006ee6:	4640      	mov	r0, r8
20006ee8:	3104      	adds	r1, #4
20006eea:	f7ff fbfb 	bl	200066e4 <vListInsert>
20006eee:	4b10      	ldr	r3, [pc, #64]	@ (20006f30 <prvAddCurrentTaskToDelayedList+0xc8>)
20006ef0:	681b      	ldr	r3, [r3, #0]
20006ef2:	e7e8      	b.n	20006ec6 <prvAddCurrentTaskToDelayedList+0x5e>
20006ef4:	4b0f      	ldr	r3, [pc, #60]	@ (20006f34 <prvAddCurrentTaskToDelayedList+0xcc>)
20006ef6:	6829      	ldr	r1, [r5, #0]
20006ef8:	685a      	ldr	r2, [r3, #4]
20006efa:	681c      	ldr	r4, [r3, #0]
20006efc:	608a      	str	r2, [r1, #8]
20006efe:	682e      	ldr	r6, [r5, #0]
20006f00:	3401      	adds	r4, #1
20006f02:	6828      	ldr	r0, [r5, #0]
20006f04:	6829      	ldr	r1, [r5, #0]
20006f06:	601c      	str	r4, [r3, #0]
20006f08:	682d      	ldr	r5, [r5, #0]
20006f0a:	6894      	ldr	r4, [r2, #8]
20006f0c:	3004      	adds	r0, #4
20006f0e:	3104      	adds	r1, #4
20006f10:	60f4      	str	r4, [r6, #12]
20006f12:	6060      	str	r0, [r4, #4]
20006f14:	6091      	str	r1, [r2, #8]
20006f16:	616b      	str	r3, [r5, #20]
20006f18:	e8bd 83f8 	ldmia.w	sp!, {r3, r4, r5, r6, r7, r8, r9, pc}
20006f1c:	2000f67c 	.word	0x2000f67c
20006f20:	2001fa54 	.word	0x2001fa54
20006f24:	2000f680 	.word	0x2000f680
20006f28:	2000f674 	.word	0x2000f674
20006f2c:	2001f99c 	.word	0x2001f99c
20006f30:	2001fa08 	.word	0x2001fa08
20006f34:	2001fa2c 	.word	0x2001fa2c

20006f38 <prvCreateTask>:
20006f38:	e92d 43f8 	stmdb	sp!, {r3, r4, r5, r6, r7, r8, r9, lr}
20006f3c:	0096      	lsls	r6, r2, #2
20006f3e:	4680      	mov	r8, r0
20006f40:	4630      	mov	r0, r6
20006f42:	460d      	mov	r5, r1
20006f44:	4699      	mov	r9, r3
20006f46:	f001 f90b 	bl	20008160 <pvPortMalloc>
20006f4a:	2800      	cmp	r0, #0
20006f4c:	d078      	beq.n	20007040 <prvCreateTask+0x108>
20006f4e:	4607      	mov	r7, r0
20006f50:	2070      	movs	r0, #112	@ 0x70
20006f52:	f001 f905 	bl	20008160 <pvPortMalloc>
20006f56:	4604      	mov	r4, r0
20006f58:	2800      	cmp	r0, #0
20006f5a:	d06e      	beq.n	2000703a <prvCreateTask+0x102>
20006f5c:	2270      	movs	r2, #112	@ 0x70
20006f5e:	2100      	movs	r1, #0
20006f60:	f001 f960 	bl	20008224 <memset>
20006f64:	4632      	mov	r2, r6
20006f66:	21a5      	movs	r1, #165	@ 0xa5
20006f68:	4638      	mov	r0, r7
20006f6a:	6327      	str	r7, [r4, #48]	@ 0x30
20006f6c:	f001 f95a 	bl	20008224 <memset>
20006f70:	6b23      	ldr	r3, [r4, #48]	@ 0x30
20006f72:	3e04      	subs	r6, #4
20006f74:	441e      	add	r6, r3
20006f76:	f026 0607 	bic.w	r6, r6, #7
20006f7a:	2d00      	cmp	r5, #0
20006f7c:	d03e      	beq.n	20006ffc <prvCreateTask+0xc4>
20006f7e:	782b      	ldrb	r3, [r5, #0]
20006f80:	f884 3034 	strb.w	r3, [r4, #52]	@ 0x34
20006f84:	2b00      	cmp	r3, #0
20006f86:	d036      	beq.n	20006ff6 <prvCreateTask+0xbe>
20006f88:	786b      	ldrb	r3, [r5, #1]
20006f8a:	f884 3035 	strb.w	r3, [r4, #53]	@ 0x35
20006f8e:	b393      	cbz	r3, 20006ff6 <prvCreateTask+0xbe>
20006f90:	78ab      	ldrb	r3, [r5, #2]
20006f92:	f884 3036 	strb.w	r3, [r4, #54]	@ 0x36
20006f96:	b373      	cbz	r3, 20006ff6 <prvCreateTask+0xbe>
20006f98:	78eb      	ldrb	r3, [r5, #3]
20006f9a:	f884 3037 	strb.w	r3, [r4, #55]	@ 0x37
20006f9e:	b353      	cbz	r3, 20006ff6 <prvCreateTask+0xbe>
20006fa0:	792b      	ldrb	r3, [r5, #4]
20006fa2:	f884 3038 	strb.w	r3, [r4, #56]	@ 0x38
20006fa6:	b333      	cbz	r3, 20006ff6 <prvCreateTask+0xbe>
20006fa8:	796b      	ldrb	r3, [r5, #5]
20006faa:	f884 3039 	strb.w	r3, [r4, #57]	@ 0x39
20006fae:	b313      	cbz	r3, 20006ff6 <prvCreateTask+0xbe>
20006fb0:	79ab      	ldrb	r3, [r5, #6]
20006fb2:	f884 303a 	strb.w	r3, [r4, #58]	@ 0x3a
20006fb6:	b1f3      	cbz	r3, 20006ff6 <prvCreateTask+0xbe>
20006fb8:	79eb      	ldrb	r3, [r5, #7]
20006fba:	f884 303b 	strb.w	r3, [r4, #59]	@ 0x3b
20006fbe:	b1d3      	cbz	r3, 20006ff6 <prvCreateTask+0xbe>
20006fc0:	7a2b      	ldrb	r3, [r5, #8]
20006fc2:	f884 303c 	strb.w	r3, [r4, #60]	@ 0x3c
20006fc6:	b1b3      	cbz	r3, 20006ff6 <prvCreateTask+0xbe>
20006fc8:	7a6b      	ldrb	r3, [r5, #9]
20006fca:	f884 303d 	strb.w	r3, [r4, #61]	@ 0x3d
20006fce:	b193      	cbz	r3, 20006ff6 <prvCreateTask+0xbe>
20006fd0:	7aab      	ldrb	r3, [r5, #10]
20006fd2:	f884 303e 	strb.w	r3, [r4, #62]	@ 0x3e
20006fd6:	b173      	cbz	r3, 20006ff6 <prvCreateTask+0xbe>
20006fd8:	7aeb      	ldrb	r3, [r5, #11]
20006fda:	f884 303f 	strb.w	r3, [r4, #63]	@ 0x3f
20006fde:	b153      	cbz	r3, 20006ff6 <prvCreateTask+0xbe>
20006fe0:	7b2b      	ldrb	r3, [r5, #12]
20006fe2:	f884 3040 	strb.w	r3, [r4, #64]	@ 0x40
20006fe6:	b133      	cbz	r3, 20006ff6 <prvCreateTask+0xbe>
20006fe8:	7b6b      	ldrb	r3, [r5, #13]
20006fea:	f884 3041 	strb.w	r3, [r4, #65]	@ 0x41
20006fee:	b113      	cbz	r3, 20006ff6 <prvCreateTask+0xbe>
20006ff0:	7bab      	ldrb	r3, [r5, #14]
20006ff2:	f884 3042 	strb.w	r3, [r4, #66]	@ 0x42
20006ff6:	2300      	movs	r3, #0
20006ff8:	f884 3043 	strb.w	r3, [r4, #67]	@ 0x43
20006ffc:	9d08      	ldr	r5, [sp, #32]
20006ffe:	1d20      	adds	r0, r4, #4
20007000:	2d1f      	cmp	r5, #31
20007002:	bf28      	it	cs
20007004:	251f      	movcs	r5, #31
20007006:	62e5      	str	r5, [r4, #44]	@ 0x2c
20007008:	64e5      	str	r5, [r4, #76]	@ 0x4c
2000700a:	f7ff fb59 	bl	200066c0 <vListInitialiseItem>
2000700e:	f1c5 0520 	rsb	r5, r5, #32
20007012:	f104 0018 	add.w	r0, r4, #24
20007016:	f7ff fb53 	bl	200066c0 <vListInitialiseItem>
2000701a:	464b      	mov	r3, r9
2000701c:	4642      	mov	r2, r8
2000701e:	4630      	mov	r0, r6
20007020:	6b21      	ldr	r1, [r4, #48]	@ 0x30
20007022:	61a5      	str	r5, [r4, #24]
20007024:	6124      	str	r4, [r4, #16]
20007026:	6264      	str	r4, [r4, #36]	@ 0x24
20007028:	f7fe ffc4 	bl	20005fb4 <pxPortInitialiseStack>
2000702c:	9b09      	ldr	r3, [sp, #36]	@ 0x24
2000702e:	6020      	str	r0, [r4, #0]
20007030:	b103      	cbz	r3, 20007034 <prvCreateTask+0xfc>
20007032:	601c      	str	r4, [r3, #0]
20007034:	4620      	mov	r0, r4
20007036:	e8bd 83f8 	ldmia.w	sp!, {r3, r4, r5, r6, r7, r8, r9, pc}
2000703a:	4638      	mov	r0, r7
2000703c:	f001 f8cc 	bl	200081d8 <vPortFree>
20007040:	2400      	movs	r4, #0
20007042:	4620      	mov	r0, r4
20007044:	e8bd 83f8 	ldmia.w	sp!, {r3, r4, r5, r6, r7, r8, r9, pc}

20007048 <prvIdleTask>:
20007048:	b580      	push	{r7, lr}
2000704a:	4d12      	ldr	r5, [pc, #72]	@ (20007094 <prvIdleTask+0x4c>)
2000704c:	4f12      	ldr	r7, [pc, #72]	@ (20007098 <prvIdleTask+0x50>)
2000704e:	4e13      	ldr	r6, [pc, #76]	@ (2000709c <prvIdleTask+0x54>)
20007050:	f8df 804c 	ldr.w	r8, [pc, #76]	@ 200070a0 <prvIdleTask+0x58>
20007054:	e014      	b.n	20007080 <prvIdleTask+0x38>
20007056:	f7fe ff7d 	bl	20005f54 <vPortEnterCritical>
2000705a:	68fb      	ldr	r3, [r7, #12]
2000705c:	68dc      	ldr	r4, [r3, #12]
2000705e:	1d20      	adds	r0, r4, #4
20007060:	f7ff fb58 	bl	20006714 <uxListRemove>
20007064:	6833      	ldr	r3, [r6, #0]
20007066:	3b01      	subs	r3, #1
20007068:	6033      	str	r3, [r6, #0]
2000706a:	682b      	ldr	r3, [r5, #0]
2000706c:	3b01      	subs	r3, #1
2000706e:	602b      	str	r3, [r5, #0]
20007070:	f7fe ff7e 	bl	20005f70 <vPortExitCritical>
20007074:	6b20      	ldr	r0, [r4, #48]	@ 0x30
20007076:	f001 f8af 	bl	200081d8 <vPortFree>
2000707a:	4620      	mov	r0, r4
2000707c:	f001 f8ac 	bl	200081d8 <vPortFree>
20007080:	682b      	ldr	r3, [r5, #0]
20007082:	2b00      	cmp	r3, #0
20007084:	d1e7      	bne.n	20007056 <prvIdleTask+0xe>
20007086:	f8d8 3000 	ldr.w	r3, [r8]
2000708a:	2b01      	cmp	r3, #1
2000708c:	d9f8      	bls.n	20007080 <prvIdleTask+0x38>
2000708e:	f7fe ff55 	bl	20005f3c <vPortYield>
20007092:	e7f5      	b.n	20007080 <prvIdleTask+0x38>
20007094:	2001f990 	.word	0x2001f990
20007098:	2001fa40 	.word	0x2001fa40
2000709c:	2001f98c 	.word	0x2001f98c
200070a0:	2000f688 	.word	0x2000f688

200070a4 <xTaskCreate>:
200070a4:	b510      	push	{r4, lr}
200070a6:	b082      	sub	sp, #8
200070a8:	9c04      	ldr	r4, [sp, #16]
200070aa:	9400      	str	r4, [sp, #0]
200070ac:	9c05      	ldr	r4, [sp, #20]
200070ae:	9401      	str	r4, [sp, #4]
200070b0:	f7ff ff42 	bl	20006f38 <prvCreateTask>
200070b4:	b120      	cbz	r0, 200070c0 <xTaskCreate+0x1c>
200070b6:	f7ff fe43 	bl	20006d40 <prvAddNewTaskToReadyList>
200070ba:	2001      	movs	r0, #1
200070bc:	b002      	add	sp, #8
200070be:	bd10      	pop	{r4, pc}
200070c0:	f04f 30ff 	mov.w	r0, #4294967295	@ 0xffffffff
200070c4:	b002      	add	sp, #8
200070c6:	bd10      	pop	{r4, pc}

200070c8 <vTaskSuspend>:
200070c8:	b570      	push	{r4, r5, r6, lr}
200070ca:	4604      	mov	r4, r0
200070cc:	4e47      	ldr	r6, [pc, #284]	@ (200071ec <vTaskSuspend+0x124>)
200070ce:	f7fe ff41 	bl	20005f54 <vPortEnterCritical>
200070d2:	2c00      	cmp	r4, #0
200070d4:	d04b      	beq.n	2000716e <vTaskSuspend+0xa6>
200070d6:	1d25      	adds	r5, r4, #4
200070d8:	4628      	mov	r0, r5
200070da:	f7ff fb1b 	bl	20006714 <uxListRemove>
200070de:	b930      	cbnz	r0, 200070ee <vTaskSuspend+0x26>
200070e0:	6ae3      	ldr	r3, [r4, #44]	@ 0x2c
200070e2:	4a43      	ldr	r2, [pc, #268]	@ (200071f0 <vTaskSuspend+0x128>)
200070e4:	eb03 0183 	add.w	r1, r3, r3, lsl #2
200070e8:	f852 2021 	ldr.w	r2, [r2, r1, lsl #2]
200070ec:	b34a      	cbz	r2, 20007142 <vTaskSuspend+0x7a>
200070ee:	6aa3      	ldr	r3, [r4, #40]	@ 0x28
200070f0:	b11b      	cbz	r3, 200070fa <vTaskSuspend+0x32>
200070f2:	f104 0018 	add.w	r0, r4, #24
200070f6:	f7ff fb0d 	bl	20006714 <uxListRemove>
200070fa:	4629      	mov	r1, r5
200070fc:	483d      	ldr	r0, [pc, #244]	@ (200071f4 <vTaskSuspend+0x12c>)
200070fe:	f7ff fae3 	bl	200066c8 <vListInsertEnd>
20007102:	f894 306c 	ldrb.w	r3, [r4, #108]	@ 0x6c
20007106:	4d3c      	ldr	r5, [pc, #240]	@ (200071f8 <vTaskSuspend+0x130>)
20007108:	2b01      	cmp	r3, #1
2000710a:	bf04      	itt	eq
2000710c:	2300      	moveq	r3, #0
2000710e:	f884 306c 	strbeq.w	r3, [r4, #108]	@ 0x6c
20007112:	f7fe ff2d 	bl	20005f70 <vPortExitCritical>
20007116:	682b      	ldr	r3, [r5, #0]
20007118:	b9db      	cbnz	r3, 20007152 <vTaskSuspend+0x8a>
2000711a:	6833      	ldr	r3, [r6, #0]
2000711c:	42a3      	cmp	r3, r4
2000711e:	d000      	beq.n	20007122 <vTaskSuspend+0x5a>
20007120:	bd70      	pop	{r4, r5, r6, pc}
20007122:	682b      	ldr	r3, [r5, #0]
20007124:	2b00      	cmp	r3, #0
20007126:	d12b      	bne.n	20007180 <vTaskSuspend+0xb8>
20007128:	4934      	ldr	r1, [pc, #208]	@ (200071fc <vTaskSuspend+0x134>)
2000712a:	4a32      	ldr	r2, [pc, #200]	@ (200071f4 <vTaskSuspend+0x12c>)
2000712c:	6809      	ldr	r1, [r1, #0]
2000712e:	6812      	ldr	r2, [r2, #0]
20007130:	4291      	cmp	r1, r2
20007132:	d023      	beq.n	2000717c <vTaskSuspend+0xb4>
20007134:	4b32      	ldr	r3, [pc, #200]	@ (20007200 <vTaskSuspend+0x138>)
20007136:	681b      	ldr	r3, [r3, #0]
20007138:	b333      	cbz	r3, 20007188 <vTaskSuspend+0xc0>
2000713a:	2201      	movs	r2, #1
2000713c:	4b31      	ldr	r3, [pc, #196]	@ (20007204 <vTaskSuspend+0x13c>)
2000713e:	601a      	str	r2, [r3, #0]
20007140:	bd70      	pop	{r4, r5, r6, pc}
20007142:	2201      	movs	r2, #1
20007144:	4930      	ldr	r1, [pc, #192]	@ (20007208 <vTaskSuspend+0x140>)
20007146:	409a      	lsls	r2, r3
20007148:	680b      	ldr	r3, [r1, #0]
2000714a:	ea23 0302 	bic.w	r3, r3, r2
2000714e:	600b      	str	r3, [r1, #0]
20007150:	e7cd      	b.n	200070ee <vTaskSuspend+0x26>
20007152:	f7fe feff 	bl	20005f54 <vPortEnterCritical>
20007156:	4b2d      	ldr	r3, [pc, #180]	@ (2000720c <vTaskSuspend+0x144>)
20007158:	681a      	ldr	r2, [r3, #0]
2000715a:	6812      	ldr	r2, [r2, #0]
2000715c:	b14a      	cbz	r2, 20007172 <vTaskSuspend+0xaa>
2000715e:	681a      	ldr	r2, [r3, #0]
20007160:	4b2b      	ldr	r3, [pc, #172]	@ (20007210 <vTaskSuspend+0x148>)
20007162:	68d2      	ldr	r2, [r2, #12]
20007164:	6812      	ldr	r2, [r2, #0]
20007166:	601a      	str	r2, [r3, #0]
20007168:	f7fe ff02 	bl	20005f70 <vPortExitCritical>
2000716c:	e7d5      	b.n	2000711a <vTaskSuspend+0x52>
2000716e:	6834      	ldr	r4, [r6, #0]
20007170:	e7b1      	b.n	200070d6 <vTaskSuspend+0xe>
20007172:	f04f 32ff 	mov.w	r2, #4294967295	@ 0xffffffff
20007176:	4b26      	ldr	r3, [pc, #152]	@ (20007210 <vTaskSuspend+0x148>)
20007178:	601a      	str	r2, [r3, #0]
2000717a:	e7f5      	b.n	20007168 <vTaskSuspend+0xa0>
2000717c:	6033      	str	r3, [r6, #0]
2000717e:	bd70      	pop	{r4, r5, r6, pc}
20007180:	e8bd 4070 	ldmia.w	sp!, {r4, r5, r6, lr}
20007184:	f7fe beda 	b.w	20005f3c <vPortYield>
20007188:	4a1e      	ldr	r2, [pc, #120]	@ (20007204 <vTaskSuspend+0x13c>)
2000718a:	6013      	str	r3, [r2, #0]
2000718c:	6833      	ldr	r3, [r6, #0]
2000718e:	6b1b      	ldr	r3, [r3, #48]	@ 0x30
20007190:	681a      	ldr	r2, [r3, #0]
20007192:	f1b2 3fa5 	cmp.w	r2, #2779096485	@ 0xa5a5a5a5
20007196:	d10b      	bne.n	200071b0 <vTaskSuspend+0xe8>
20007198:	685a      	ldr	r2, [r3, #4]
2000719a:	f1b2 3fa5 	cmp.w	r2, #2779096485	@ 0xa5a5a5a5
2000719e:	d107      	bne.n	200071b0 <vTaskSuspend+0xe8>
200071a0:	689a      	ldr	r2, [r3, #8]
200071a2:	f1b2 3fa5 	cmp.w	r2, #2779096485	@ 0xa5a5a5a5
200071a6:	d103      	bne.n	200071b0 <vTaskSuspend+0xe8>
200071a8:	68db      	ldr	r3, [r3, #12]
200071aa:	f1b3 3fa5 	cmp.w	r3, #2779096485	@ 0xa5a5a5a5
200071ae:	d004      	beq.n	200071ba <vTaskSuspend+0xf2>
200071b0:	6831      	ldr	r1, [r6, #0]
200071b2:	6830      	ldr	r0, [r6, #0]
200071b4:	3134      	adds	r1, #52	@ 0x34
200071b6:	f7f9 f8eb 	bl	20000390 <vApplicationStackOverflowHook>
200071ba:	4b13      	ldr	r3, [pc, #76]	@ (20007208 <vTaskSuspend+0x140>)
200071bc:	681b      	ldr	r3, [r3, #0]
200071be:	fab3 f383 	clz	r3, r3
200071c2:	4a0b      	ldr	r2, [pc, #44]	@ (200071f0 <vTaskSuspend+0x128>)
200071c4:	f1c3 031f 	rsb	r3, r3, #31
200071c8:	eb03 0383 	add.w	r3, r3, r3, lsl #2
200071cc:	eb02 0183 	add.w	r1, r2, r3, lsl #2
200071d0:	460b      	mov	r3, r1
200071d2:	6848      	ldr	r0, [r1, #4]
200071d4:	3308      	adds	r3, #8
200071d6:	6842      	ldr	r2, [r0, #4]
200071d8:	429a      	cmp	r2, r3
200071da:	604a      	str	r2, [r1, #4]
200071dc:	bf08      	it	eq
200071de:	68ca      	ldreq	r2, [r1, #12]
200071e0:	68d3      	ldr	r3, [r2, #12]
200071e2:	bf08      	it	eq
200071e4:	604a      	streq	r2, [r1, #4]
200071e6:	6033      	str	r3, [r6, #0]
200071e8:	6833      	ldr	r3, [r6, #0]
200071ea:	bd70      	pop	{r4, r5, r6, pc}
200071ec:	2000f674 	.word	0x2000f674
200071f0:	2000f688 	.word	0x2000f688
200071f4:	2001fa2c 	.word	0x2001fa2c
200071f8:	2001fa28 	.word	0x2001fa28
200071fc:	2001f98c 	.word	0x2001f98c
20007200:	2001f994 	.word	0x2001f994
20007204:	2001fa60 	.word	0x2001fa60
20007208:	2001f99c 	.word	0x2001f99c
2000720c:	2000f67c 	.word	0x2000f67c
20007210:	2001fa08 	.word	0x2001fa08

20007214 <vTaskResume>:
20007214:	b5f8      	push	{r3, r4, r5, r6, r7, lr}
20007216:	4d20      	ldr	r5, [pc, #128]	@ (20007298 <vTaskResume+0x84>)
20007218:	682b      	ldr	r3, [r5, #0]
2000721a:	4283      	cmp	r3, r0
2000721c:	d00b      	beq.n	20007236 <vTaskResume+0x22>
2000721e:	4604      	mov	r4, r0
20007220:	b148      	cbz	r0, 20007236 <vTaskResume+0x22>
20007222:	f7fe fe97 	bl	20005f54 <vPortEnterCritical>
20007226:	4b1d      	ldr	r3, [pc, #116]	@ (2000729c <vTaskResume+0x88>)
20007228:	6962      	ldr	r2, [r4, #20]
2000722a:	429a      	cmp	r2, r3
2000722c:	d004      	beq.n	20007238 <vTaskResume+0x24>
2000722e:	e8bd 40f8 	ldmia.w	sp!, {r3, r4, r5, r6, r7, lr}
20007232:	f7fe be9d 	b.w	20005f70 <vPortExitCritical>
20007236:	bdf8      	pop	{r3, r4, r5, r6, r7, pc}
20007238:	6aa3      	ldr	r3, [r4, #40]	@ 0x28
2000723a:	4a19      	ldr	r2, [pc, #100]	@ (200072a0 <vTaskResume+0x8c>)
2000723c:	4293      	cmp	r3, r2
2000723e:	d0f6      	beq.n	2000722e <vTaskResume+0x1a>
20007240:	2b00      	cmp	r3, #0
20007242:	d1f4      	bne.n	2000722e <vTaskResume+0x1a>
20007244:	f894 306c 	ldrb.w	r3, [r4, #108]	@ 0x6c
20007248:	2b01      	cmp	r3, #1
2000724a:	d0f0      	beq.n	2000722e <vTaskResume+0x1a>
2000724c:	1d26      	adds	r6, r4, #4
2000724e:	4630      	mov	r0, r6
20007250:	f7ff fa60 	bl	20006714 <uxListRemove>
20007254:	2301      	movs	r3, #1
20007256:	4813      	ldr	r0, [pc, #76]	@ (200072a4 <vTaskResume+0x90>)
20007258:	6ae2      	ldr	r2, [r4, #44]	@ 0x2c
2000725a:	6807      	ldr	r7, [r0, #0]
2000725c:	4093      	lsls	r3, r2
2000725e:	433b      	orrs	r3, r7
20007260:	6003      	str	r3, [r0, #0]
20007262:	682b      	ldr	r3, [r5, #0]
20007264:	4910      	ldr	r1, [pc, #64]	@ (200072a8 <vTaskResume+0x94>)
20007266:	f8d3 e02c 	ldr.w	lr, [r3, #44]	@ 0x2c
2000726a:	eb02 0382 	add.w	r3, r2, r2, lsl #2
2000726e:	eb01 0783 	add.w	r7, r1, r3, lsl #2
20007272:	687d      	ldr	r5, [r7, #4]
20007274:	009b      	lsls	r3, r3, #2
20007276:	58c8      	ldr	r0, [r1, r3]
20007278:	f8d5 c008 	ldr.w	ip, [r5, #8]
2000727c:	3001      	adds	r0, #1
2000727e:	4572      	cmp	r2, lr
20007280:	60a5      	str	r5, [r4, #8]
20007282:	f8c4 c00c 	str.w	ip, [r4, #12]
20007286:	f8cc 6004 	str.w	r6, [ip, #4]
2000728a:	60ae      	str	r6, [r5, #8]
2000728c:	6167      	str	r7, [r4, #20]
2000728e:	50c8      	str	r0, [r1, r3]
20007290:	d9cd      	bls.n	2000722e <vTaskResume+0x1a>
20007292:	f7fe fe53 	bl	20005f3c <vPortYield>
20007296:	e7ca      	b.n	2000722e <vTaskResume+0x1a>
20007298:	2000f674 	.word	0x2000f674
2000729c:	2001fa2c 	.word	0x2001fa2c
200072a0:	2001fa14 	.word	0x2001fa14
200072a4:	2001f99c 	.word	0x2001f99c
200072a8:	2000f688 	.word	0x2000f688

200072ac <vTaskStartScheduler>:
200072ac:	b530      	push	{r4, r5, lr}
200072ae:	2400      	movs	r4, #0
200072b0:	4913      	ldr	r1, [pc, #76]	@ (20007300 <vTaskStartScheduler+0x54>)
200072b2:	4b14      	ldr	r3, [pc, #80]	@ (20007304 <vTaskStartScheduler+0x58>)
200072b4:	b087      	sub	sp, #28
200072b6:	9101      	str	r1, [sp, #4]
200072b8:	9302      	str	r3, [sp, #8]
200072ba:	f44f 7280 	mov.w	r2, #256	@ 0x100
200072be:	4623      	mov	r3, r4
200072c0:	4811      	ldr	r0, [pc, #68]	@ (20007308 <vTaskStartScheduler+0x5c>)
200072c2:	a902      	add	r1, sp, #8
200072c4:	9400      	str	r4, [sp, #0]
200072c6:	f88d 400c 	strb.w	r4, [sp, #12]
200072ca:	f7ff fe35 	bl	20006f38 <prvCreateTask>
200072ce:	b130      	cbz	r0, 200072de <vTaskStartScheduler+0x32>
200072d0:	f7ff fd36 	bl	20006d40 <prvAddNewTaskToReadyList>
200072d4:	f000 fec4 	bl	20008060 <xTimerCreateTimerTask>
200072d8:	2801      	cmp	r0, #1
200072da:	4605      	mov	r5, r0
200072dc:	d003      	beq.n	200072e6 <vTaskStartScheduler+0x3a>
200072de:	4b0b      	ldr	r3, [pc, #44]	@ (2000730c <vTaskStartScheduler+0x60>)
200072e0:	681b      	ldr	r3, [r3, #0]
200072e2:	b007      	add	sp, #28
200072e4:	bd30      	pop	{r4, r5, pc}
200072e6:	f7ff f8a3 	bl	20006430 <ulSetInterruptMask>
200072ea:	f04f 30ff 	mov.w	r0, #4294967295	@ 0xffffffff
200072ee:	4908      	ldr	r1, [pc, #32]	@ (20007310 <vTaskStartScheduler+0x64>)
200072f0:	4a08      	ldr	r2, [pc, #32]	@ (20007314 <vTaskStartScheduler+0x68>)
200072f2:	4b09      	ldr	r3, [pc, #36]	@ (20007318 <vTaskStartScheduler+0x6c>)
200072f4:	6008      	str	r0, [r1, #0]
200072f6:	6015      	str	r5, [r2, #0]
200072f8:	601c      	str	r4, [r3, #0]
200072fa:	f7fe fe97 	bl	2000602c <xPortStartScheduler>
200072fe:	e7ee      	b.n	200072de <vTaskStartScheduler+0x32>
20007300:	2001f9fc 	.word	0x2001f9fc
20007304:	454c4449 	.word	0x454c4449
20007308:	20007049 	.word	0x20007049
2000730c:	2000965c 	.word	0x2000965c
20007310:	2001fa08 	.word	0x2001fa08
20007314:	2001fa28 	.word	0x2001fa28
20007318:	2001fa54 	.word	0x2001fa54

2000731c <vTaskSuspendAll>:
2000731c:	4a02      	ldr	r2, [pc, #8]	@ (20007328 <vTaskSuspendAll+0xc>)
2000731e:	6813      	ldr	r3, [r2, #0]
20007320:	3301      	adds	r3, #1
20007322:	6013      	str	r3, [r2, #0]
20007324:	4770      	bx	lr
20007326:	bf00      	nop
20007328:	2001f994 	.word	0x2001f994

2000732c <xTaskGetTickCount>:
2000732c:	4b01      	ldr	r3, [pc, #4]	@ (20007334 <xTaskGetTickCount+0x8>)
2000732e:	6818      	ldr	r0, [r3, #0]
20007330:	4770      	bx	lr
20007332:	bf00      	nop
20007334:	2001fa54 	.word	0x2001fa54

20007338 <uxTaskGetNumberOfTasks>:
20007338:	4b01      	ldr	r3, [pc, #4]	@ (20007340 <uxTaskGetNumberOfTasks+0x8>)
2000733a:	6818      	ldr	r0, [r3, #0]
2000733c:	4770      	bx	lr
2000733e:	bf00      	nop
20007340:	2001f98c 	.word	0x2001f98c

20007344 <xTaskIncrementTick>:
20007344:	e92d 4ff0 	stmdb	sp!, {r4, r5, r6, r7, r8, r9, sl, fp, lr}
20007348:	4b60      	ldr	r3, [pc, #384]	@ (200074cc <xTaskIncrementTick+0x188>)
2000734a:	b083      	sub	sp, #12
2000734c:	681b      	ldr	r3, [r3, #0]
2000734e:	2b00      	cmp	r3, #0
20007350:	f040 809d 	bne.w	2000748e <xTaskIncrementTick+0x14a>
20007354:	4b5e      	ldr	r3, [pc, #376]	@ (200074d0 <xTaskIncrementTick+0x18c>)
20007356:	681e      	ldr	r6, [r3, #0]
20007358:	3601      	adds	r6, #1
2000735a:	601e      	str	r6, [r3, #0]
2000735c:	2e00      	cmp	r6, #0
2000735e:	d067      	beq.n	20007430 <xTaskIncrementTick+0xec>
20007360:	495c      	ldr	r1, [pc, #368]	@ (200074d4 <xTaskIncrementTick+0x190>)
20007362:	680b      	ldr	r3, [r1, #0]
20007364:	429e      	cmp	r6, r3
20007366:	d378      	bcc.n	2000745a <xTaskIncrementTick+0x116>
20007368:	4f5b      	ldr	r7, [pc, #364]	@ (200074d8 <xTaskIncrementTick+0x194>)
2000736a:	683b      	ldr	r3, [r7, #0]
2000736c:	681c      	ldr	r4, [r3, #0]
2000736e:	2c00      	cmp	r4, #0
20007370:	f000 80a7 	beq.w	200074c2 <xTaskIncrementTick+0x17e>
20007374:	2400      	movs	r4, #0
20007376:	4b59      	ldr	r3, [pc, #356]	@ (200074dc <xTaskIncrementTick+0x198>)
20007378:	46a6      	mov	lr, r4
2000737a:	46b3      	mov	fp, r6
2000737c:	46a1      	mov	r9, r4
2000737e:	4d58      	ldr	r5, [pc, #352]	@ (200074e0 <xTaskIncrementTick+0x19c>)
20007380:	f8df c170 	ldr.w	ip, [pc, #368]	@ 200074f4 <xTaskIncrementTick+0x1b0>
20007384:	9300      	str	r3, [sp, #0]
20007386:	9101      	str	r1, [sp, #4]
20007388:	e045      	b.n	20007416 <xTaskIncrementTick+0xd2>
2000738a:	6958      	ldr	r0, [r3, #20]
2000738c:	e9d3 2602 	ldrd	r2, r6, [r3, #8]
20007390:	6096      	str	r6, [r2, #8]
20007392:	6072      	str	r2, [r6, #4]
20007394:	6842      	ldr	r2, [r0, #4]
20007396:	428a      	cmp	r2, r1
20007398:	6802      	ldr	r2, [r0, #0]
2000739a:	bf08      	it	eq
2000739c:	6046      	streq	r6, [r0, #4]
2000739e:	3a01      	subs	r2, #1
200073a0:	f8c3 e014 	str.w	lr, [r3, #20]
200073a4:	6002      	str	r2, [r0, #0]
200073a6:	6a98      	ldr	r0, [r3, #40]	@ 0x28
200073a8:	b160      	cbz	r0, 200073c4 <xTaskIncrementTick+0x80>
200073aa:	e9d3 2607 	ldrd	r2, r6, [r3, #28]
200073ae:	6096      	str	r6, [r2, #8]
200073b0:	6072      	str	r2, [r6, #4]
200073b2:	6842      	ldr	r2, [r0, #4]
200073b4:	42a2      	cmp	r2, r4
200073b6:	6802      	ldr	r2, [r0, #0]
200073b8:	bf08      	it	eq
200073ba:	6046      	streq	r6, [r0, #4]
200073bc:	3a01      	subs	r2, #1
200073be:	f8c3 e028 	str.w	lr, [r3, #40]	@ 0x28
200073c2:	6002      	str	r2, [r0, #0]
200073c4:	f04f 0801 	mov.w	r8, #1
200073c8:	6ada      	ldr	r2, [r3, #44]	@ 0x2c
200073ca:	f8dc a000 	ldr.w	sl, [ip]
200073ce:	eb02 0082 	add.w	r0, r2, r2, lsl #2
200073d2:	eb05 0480 	add.w	r4, r5, r0, lsl #2
200073d6:	6866      	ldr	r6, [r4, #4]
200073d8:	fa08 f802 	lsl.w	r8, r8, r2
200073dc:	ea48 080a 	orr.w	r8, r8, sl
200073e0:	f8cc 8000 	str.w	r8, [ip]
200073e4:	f8d6 8008 	ldr.w	r8, [r6, #8]
200073e8:	609e      	str	r6, [r3, #8]
200073ea:	f8c3 800c 	str.w	r8, [r3, #12]
200073ee:	f8c8 1004 	str.w	r1, [r8, #4]
200073f2:	60b1      	str	r1, [r6, #8]
200073f4:	615c      	str	r4, [r3, #20]
200073f6:	f855 3020 	ldr.w	r3, [r5, r0, lsl #2]
200073fa:	3301      	adds	r3, #1
200073fc:	f845 3020 	str.w	r3, [r5, r0, lsl #2]
20007400:	9b00      	ldr	r3, [sp, #0]
20007402:	6819      	ldr	r1, [r3, #0]
20007404:	683b      	ldr	r3, [r7, #0]
20007406:	6ac9      	ldr	r1, [r1, #44]	@ 0x2c
20007408:	681b      	ldr	r3, [r3, #0]
2000740a:	428a      	cmp	r2, r1
2000740c:	bf88      	it	hi
2000740e:	f04f 0901 	movhi.w	r9, #1
20007412:	2b00      	cmp	r3, #0
20007414:	d04f      	beq.n	200074b6 <xTaskIncrementTick+0x172>
20007416:	683b      	ldr	r3, [r7, #0]
20007418:	68db      	ldr	r3, [r3, #12]
2000741a:	68db      	ldr	r3, [r3, #12]
2000741c:	685a      	ldr	r2, [r3, #4]
2000741e:	1d19      	adds	r1, r3, #4
20007420:	4593      	cmp	fp, r2
20007422:	f103 0418 	add.w	r4, r3, #24
20007426:	d2b0      	bcs.n	2000738a <xTaskIncrementTick+0x46>
20007428:	9901      	ldr	r1, [sp, #4]
2000742a:	464c      	mov	r4, r9
2000742c:	600a      	str	r2, [r1, #0]
2000742e:	e018      	b.n	20007462 <xTaskIncrementTick+0x11e>
20007430:	4b29      	ldr	r3, [pc, #164]	@ (200074d8 <xTaskIncrementTick+0x194>)
20007432:	4a2c      	ldr	r2, [pc, #176]	@ (200074e4 <xTaskIncrementTick+0x1a0>)
20007434:	6818      	ldr	r0, [r3, #0]
20007436:	6811      	ldr	r1, [r2, #0]
20007438:	6019      	str	r1, [r3, #0]
2000743a:	492b      	ldr	r1, [pc, #172]	@ (200074e8 <xTaskIncrementTick+0x1a4>)
2000743c:	6010      	str	r0, [r2, #0]
2000743e:	680a      	ldr	r2, [r1, #0]
20007440:	3201      	adds	r2, #1
20007442:	600a      	str	r2, [r1, #0]
20007444:	681a      	ldr	r2, [r3, #0]
20007446:	6812      	ldr	r2, [r2, #0]
20007448:	2a00      	cmp	r2, #0
2000744a:	d12e      	bne.n	200074aa <xTaskIncrementTick+0x166>
2000744c:	f04f 33ff 	mov.w	r3, #4294967295	@ 0xffffffff
20007450:	4920      	ldr	r1, [pc, #128]	@ (200074d4 <xTaskIncrementTick+0x190>)
20007452:	600b      	str	r3, [r1, #0]
20007454:	680b      	ldr	r3, [r1, #0]
20007456:	429e      	cmp	r6, r3
20007458:	d286      	bcs.n	20007368 <xTaskIncrementTick+0x24>
2000745a:	2400      	movs	r4, #0
2000745c:	4b1f      	ldr	r3, [pc, #124]	@ (200074dc <xTaskIncrementTick+0x198>)
2000745e:	4d20      	ldr	r5, [pc, #128]	@ (200074e0 <xTaskIncrementTick+0x19c>)
20007460:	9300      	str	r3, [sp, #0]
20007462:	9b00      	ldr	r3, [sp, #0]
20007464:	4a21      	ldr	r2, [pc, #132]	@ (200074ec <xTaskIncrementTick+0x1a8>)
20007466:	681b      	ldr	r3, [r3, #0]
20007468:	6812      	ldr	r2, [r2, #0]
2000746a:	6adb      	ldr	r3, [r3, #44]	@ 0x2c
2000746c:	eb03 0383 	add.w	r3, r3, r3, lsl #2
20007470:	f855 3023 	ldr.w	r3, [r5, r3, lsl #2]
20007474:	2b02      	cmp	r3, #2
20007476:	bf28      	it	cs
20007478:	2401      	movcs	r4, #1
2000747a:	b19a      	cbz	r2, 200074a4 <xTaskIncrementTick+0x160>
2000747c:	4b1c      	ldr	r3, [pc, #112]	@ (200074f0 <xTaskIncrementTick+0x1ac>)
2000747e:	681b      	ldr	r3, [r3, #0]
20007480:	2b00      	cmp	r3, #0
20007482:	bf18      	it	ne
20007484:	2401      	movne	r4, #1
20007486:	4620      	mov	r0, r4
20007488:	b003      	add	sp, #12
2000748a:	e8bd 8ff0 	ldmia.w	sp!, {r4, r5, r6, r7, r8, r9, sl, fp, pc}
2000748e:	2400      	movs	r4, #0
20007490:	4a16      	ldr	r2, [pc, #88]	@ (200074ec <xTaskIncrementTick+0x1a8>)
20007492:	6813      	ldr	r3, [r2, #0]
20007494:	3301      	adds	r3, #1
20007496:	6013      	str	r3, [r2, #0]
20007498:	f7f8 ff78 	bl	2000038c <vApplicationTickHook>
2000749c:	4620      	mov	r0, r4
2000749e:	b003      	add	sp, #12
200074a0:	e8bd 8ff0 	ldmia.w	sp!, {r4, r5, r6, r7, r8, r9, sl, fp, pc}
200074a4:	f7f8 ff72 	bl	2000038c <vApplicationTickHook>
200074a8:	e7e8      	b.n	2000747c <xTaskIncrementTick+0x138>
200074aa:	681b      	ldr	r3, [r3, #0]
200074ac:	4909      	ldr	r1, [pc, #36]	@ (200074d4 <xTaskIncrementTick+0x190>)
200074ae:	68db      	ldr	r3, [r3, #12]
200074b0:	681b      	ldr	r3, [r3, #0]
200074b2:	600b      	str	r3, [r1, #0]
200074b4:	e755      	b.n	20007362 <xTaskIncrementTick+0x1e>
200074b6:	464c      	mov	r4, r9
200074b8:	9901      	ldr	r1, [sp, #4]
200074ba:	f04f 33ff 	mov.w	r3, #4294967295	@ 0xffffffff
200074be:	600b      	str	r3, [r1, #0]
200074c0:	e7cf      	b.n	20007462 <xTaskIncrementTick+0x11e>
200074c2:	4b06      	ldr	r3, [pc, #24]	@ (200074dc <xTaskIncrementTick+0x198>)
200074c4:	4d06      	ldr	r5, [pc, #24]	@ (200074e0 <xTaskIncrementTick+0x19c>)
200074c6:	9300      	str	r3, [sp, #0]
200074c8:	e7f7      	b.n	200074ba <xTaskIncrementTick+0x176>
200074ca:	bf00      	nop
200074cc:	2001f994 	.word	0x2001f994
200074d0:	2001fa54 	.word	0x2001fa54
200074d4:	2001fa08 	.word	0x2001fa08
200074d8:	2000f67c 	.word	0x2000f67c
200074dc:	2000f674 	.word	0x2000f674
200074e0:	2000f688 	.word	0x2000f688
200074e4:	2000f680 	.word	0x2000f680
200074e8:	2001fa0c 	.word	0x2001fa0c
200074ec:	2001fa10 	.word	0x2001fa10
200074f0:	2001fa60 	.word	0x2001fa60
200074f4:	2001f99c 	.word	0x2001f99c

200074f8 <xTaskResumeAll>:
200074f8:	e92d 4ff0 	stmdb	sp!, {r4, r5, r6, r7, r8, r9, sl, fp, lr}
200074fc:	b083      	sub	sp, #12
200074fe:	f7fe fd29 	bl	20005f54 <vPortEnterCritical>
20007502:	4b4c      	ldr	r3, [pc, #304]	@ (20007634 <xTaskResumeAll+0x13c>)
20007504:	681a      	ldr	r2, [r3, #0]
20007506:	3a01      	subs	r2, #1
20007508:	601a      	str	r2, [r3, #0]
2000750a:	f8d3 8000 	ldr.w	r8, [r3]
2000750e:	f1b8 0f00 	cmp.w	r8, #0
20007512:	d177      	bne.n	20007604 <xTaskResumeAll+0x10c>
20007514:	4b48      	ldr	r3, [pc, #288]	@ (20007638 <xTaskResumeAll+0x140>)
20007516:	681b      	ldr	r3, [r3, #0]
20007518:	2b00      	cmp	r3, #0
2000751a:	d073      	beq.n	20007604 <xTaskResumeAll+0x10c>
2000751c:	f8df c134 	ldr.w	ip, [pc, #308]	@ 20007654 <xTaskResumeAll+0x15c>
20007520:	f8dc 3000 	ldr.w	r3, [ip]
20007524:	2b00      	cmp	r3, #0
20007526:	f000 8082 	beq.w	2000762e <xTaskResumeAll+0x136>
2000752a:	f04f 0901 	mov.w	r9, #1
2000752e:	4b43      	ldr	r3, [pc, #268]	@ (2000763c <xTaskResumeAll+0x144>)
20007530:	f8df e124 	ldr.w	lr, [pc, #292]	@ 20007658 <xTaskResumeAll+0x160>
20007534:	4e42      	ldr	r6, [pc, #264]	@ (20007640 <xTaskResumeAll+0x148>)
20007536:	9301      	str	r3, [sp, #4]
20007538:	f8dc 300c 	ldr.w	r3, [ip, #12]
2000753c:	68db      	ldr	r3, [r3, #12]
2000753e:	6a9a      	ldr	r2, [r3, #40]	@ 0x28
20007540:	e9d3 0107 	ldrd	r0, r1, [r3, #28]
20007544:	6854      	ldr	r4, [r2, #4]
20007546:	6081      	str	r1, [r0, #8]
20007548:	6048      	str	r0, [r1, #4]
2000754a:	f103 0018 	add.w	r0, r3, #24
2000754e:	4284      	cmp	r4, r0
20007550:	bf08      	it	eq
20007552:	6051      	streq	r1, [r2, #4]
20007554:	6811      	ldr	r1, [r2, #0]
20007556:	f8c3 8028 	str.w	r8, [r3, #40]	@ 0x28
2000755a:	3901      	subs	r1, #1
2000755c:	6011      	str	r1, [r2, #0]
2000755e:	6959      	ldr	r1, [r3, #20]
20007560:	e9d3 0202 	ldrd	r0, r2, [r3, #8]
20007564:	6082      	str	r2, [r0, #8]
20007566:	6050      	str	r0, [r2, #4]
20007568:	6848      	ldr	r0, [r1, #4]
2000756a:	1d1d      	adds	r5, r3, #4
2000756c:	42a8      	cmp	r0, r5
2000756e:	6808      	ldr	r0, [r1, #0]
20007570:	bf08      	it	eq
20007572:	604a      	streq	r2, [r1, #4]
20007574:	6ada      	ldr	r2, [r3, #44]	@ 0x2c
20007576:	f8de 4000 	ldr.w	r4, [lr]
2000757a:	3801      	subs	r0, #1
2000757c:	6008      	str	r0, [r1, #0]
2000757e:	fa09 f102 	lsl.w	r1, r9, r2
20007582:	4321      	orrs	r1, r4
20007584:	482f      	ldr	r0, [pc, #188]	@ (20007644 <xTaskResumeAll+0x14c>)
20007586:	f8ce 1000 	str.w	r1, [lr]
2000758a:	eb02 0182 	add.w	r1, r2, r2, lsl #2
2000758e:	6800      	ldr	r0, [r0, #0]
20007590:	eb06 0781 	add.w	r7, r6, r1, lsl #2
20007594:	687c      	ldr	r4, [r7, #4]
20007596:	f8d0 a02c 	ldr.w	sl, [r0, #44]	@ 0x2c
2000759a:	f856 0021 	ldr.w	r0, [r6, r1, lsl #2]
2000759e:	f8d4 b008 	ldr.w	fp, [r4, #8]
200075a2:	3001      	adds	r0, #1
200075a4:	4552      	cmp	r2, sl
200075a6:	609c      	str	r4, [r3, #8]
200075a8:	f8c3 b00c 	str.w	fp, [r3, #12]
200075ac:	f8cb 5004 	str.w	r5, [fp, #4]
200075b0:	60a5      	str	r5, [r4, #8]
200075b2:	615f      	str	r7, [r3, #20]
200075b4:	f846 0021 	str.w	r0, [r6, r1, lsl #2]
200075b8:	d92b      	bls.n	20007612 <xTaskResumeAll+0x11a>
200075ba:	9b01      	ldr	r3, [sp, #4]
200075bc:	f8c3 9000 	str.w	r9, [r3]
200075c0:	f8dc 3000 	ldr.w	r3, [ip]
200075c4:	2b00      	cmp	r3, #0
200075c6:	d1b7      	bne.n	20007538 <xTaskResumeAll+0x40>
200075c8:	4b1f      	ldr	r3, [pc, #124]	@ (20007648 <xTaskResumeAll+0x150>)
200075ca:	681a      	ldr	r2, [r3, #0]
200075cc:	6812      	ldr	r2, [r2, #0]
200075ce:	b34a      	cbz	r2, 20007624 <xTaskResumeAll+0x12c>
200075d0:	681a      	ldr	r2, [r3, #0]
200075d2:	4b1e      	ldr	r3, [pc, #120]	@ (2000764c <xTaskResumeAll+0x154>)
200075d4:	68d2      	ldr	r2, [r2, #12]
200075d6:	6812      	ldr	r2, [r2, #0]
200075d8:	601a      	str	r2, [r3, #0]
200075da:	4e1d      	ldr	r6, [pc, #116]	@ (20007650 <xTaskResumeAll+0x158>)
200075dc:	6834      	ldr	r4, [r6, #0]
200075de:	b144      	cbz	r4, 200075f2 <xTaskResumeAll+0xfa>
200075e0:	2501      	movs	r5, #1
200075e2:	9f01      	ldr	r7, [sp, #4]
200075e4:	f7ff feae 	bl	20007344 <xTaskIncrementTick>
200075e8:	b100      	cbz	r0, 200075ec <xTaskResumeAll+0xf4>
200075ea:	603d      	str	r5, [r7, #0]
200075ec:	3c01      	subs	r4, #1
200075ee:	d1f9      	bne.n	200075e4 <xTaskResumeAll+0xec>
200075f0:	6034      	str	r4, [r6, #0]
200075f2:	9b01      	ldr	r3, [sp, #4]
200075f4:	681b      	ldr	r3, [r3, #0]
200075f6:	b12b      	cbz	r3, 20007604 <xTaskResumeAll+0x10c>
200075f8:	4b12      	ldr	r3, [pc, #72]	@ (20007644 <xTaskResumeAll+0x14c>)
200075fa:	2401      	movs	r4, #1
200075fc:	681b      	ldr	r3, [r3, #0]
200075fe:	f7fe fc9d 	bl	20005f3c <vPortYield>
20007602:	e000      	b.n	20007606 <xTaskResumeAll+0x10e>
20007604:	2400      	movs	r4, #0
20007606:	f7fe fcb3 	bl	20005f70 <vPortExitCritical>
2000760a:	4620      	mov	r0, r4
2000760c:	b003      	add	sp, #12
2000760e:	e8bd 8ff0 	ldmia.w	sp!, {r4, r5, r6, r7, r8, r9, sl, fp, pc}
20007612:	f8dc 3000 	ldr.w	r3, [ip]
20007616:	2b00      	cmp	r3, #0
20007618:	d18e      	bne.n	20007538 <xTaskResumeAll+0x40>
2000761a:	4b0b      	ldr	r3, [pc, #44]	@ (20007648 <xTaskResumeAll+0x150>)
2000761c:	681a      	ldr	r2, [r3, #0]
2000761e:	6812      	ldr	r2, [r2, #0]
20007620:	2a00      	cmp	r2, #0
20007622:	d1d5      	bne.n	200075d0 <xTaskResumeAll+0xd8>
20007624:	f04f 32ff 	mov.w	r2, #4294967295	@ 0xffffffff
20007628:	4b08      	ldr	r3, [pc, #32]	@ (2000764c <xTaskResumeAll+0x154>)
2000762a:	601a      	str	r2, [r3, #0]
2000762c:	e7d5      	b.n	200075da <xTaskResumeAll+0xe2>
2000762e:	4b03      	ldr	r3, [pc, #12]	@ (2000763c <xTaskResumeAll+0x144>)
20007630:	9301      	str	r3, [sp, #4]
20007632:	e7d2      	b.n	200075da <xTaskResumeAll+0xe2>
20007634:	2001f994 	.word	0x2001f994
20007638:	2001f98c 	.word	0x2001f98c
2000763c:	2001fa60 	.word	0x2001fa60
20007640:	2000f688 	.word	0x2000f688
20007644:	2000f674 	.word	0x2000f674
20007648:	2000f67c 	.word	0x2000f67c
2000764c:	2001fa08 	.word	0x2001fa08
20007650:	2001fa10 	.word	0x2001fa10
20007654:	2001fa14 	.word	0x2001fa14
20007658:	2001f99c 	.word	0x2001f99c

2000765c <xTaskDelayUntil>:
2000765c:	4a13      	ldr	r2, [pc, #76]	@ (200076ac <xTaskDelayUntil+0x50>)
2000765e:	b510      	push	{r4, lr}
20007660:	6813      	ldr	r3, [r2, #0]
20007662:	3301      	adds	r3, #1
20007664:	6013      	str	r3, [r2, #0]
20007666:	4b12      	ldr	r3, [pc, #72]	@ (200076b0 <xTaskDelayUntil+0x54>)
20007668:	6802      	ldr	r2, [r0, #0]
2000766a:	681c      	ldr	r4, [r3, #0]
2000766c:	1853      	adds	r3, r2, r1
2000766e:	bf2c      	ite	cs
20007670:	2101      	movcs	r1, #1
20007672:	2100      	movcc	r1, #0
20007674:	42a2      	cmp	r2, r4
20007676:	d907      	bls.n	20007688 <xTaskDelayUntil+0x2c>
20007678:	b939      	cbnz	r1, 2000768a <xTaskDelayUntil+0x2e>
2000767a:	6003      	str	r3, [r0, #0]
2000767c:	2400      	movs	r4, #0
2000767e:	f7ff ff3b 	bl	200074f8 <xTaskResumeAll>
20007682:	b170      	cbz	r0, 200076a2 <xTaskDelayUntil+0x46>
20007684:	4620      	mov	r0, r4
20007686:	bd10      	pop	{r4, pc}
20007688:	b909      	cbnz	r1, 2000768e <xTaskDelayUntil+0x32>
2000768a:	429c      	cmp	r4, r3
2000768c:	d2f5      	bcs.n	2000767a <xTaskDelayUntil+0x1e>
2000768e:	6003      	str	r3, [r0, #0]
20007690:	2100      	movs	r1, #0
20007692:	1b18      	subs	r0, r3, r4
20007694:	f7ff fbe8 	bl	20006e68 <prvAddCurrentTaskToDelayedList>
20007698:	2401      	movs	r4, #1
2000769a:	f7ff ff2d 	bl	200074f8 <xTaskResumeAll>
2000769e:	2800      	cmp	r0, #0
200076a0:	d1f0      	bne.n	20007684 <xTaskDelayUntil+0x28>
200076a2:	f7fe fc4b 	bl	20005f3c <vPortYield>
200076a6:	4620      	mov	r0, r4
200076a8:	bd10      	pop	{r4, pc}
200076aa:	bf00      	nop
200076ac:	2001f994 	.word	0x2001f994
200076b0:	2001fa54 	.word	0x2001fa54

200076b4 <vTaskSwitchContext>:
200076b4:	4b1d      	ldr	r3, [pc, #116]	@ (2000772c <vTaskSwitchContext+0x78>)
200076b6:	681b      	ldr	r3, [r3, #0]
200076b8:	b11b      	cbz	r3, 200076c2 <vTaskSwitchContext+0xe>
200076ba:	2201      	movs	r2, #1
200076bc:	4b1c      	ldr	r3, [pc, #112]	@ (20007730 <vTaskSwitchContext+0x7c>)
200076be:	601a      	str	r2, [r3, #0]
200076c0:	4770      	bx	lr
200076c2:	4a1b      	ldr	r2, [pc, #108]	@ (20007730 <vTaskSwitchContext+0x7c>)
200076c4:	b510      	push	{r4, lr}
200076c6:	4c1b      	ldr	r4, [pc, #108]	@ (20007734 <vTaskSwitchContext+0x80>)
200076c8:	6013      	str	r3, [r2, #0]
200076ca:	6823      	ldr	r3, [r4, #0]
200076cc:	6b1b      	ldr	r3, [r3, #48]	@ 0x30
200076ce:	681a      	ldr	r2, [r3, #0]
200076d0:	f1b2 3fa5 	cmp.w	r2, #2779096485	@ 0xa5a5a5a5
200076d4:	d103      	bne.n	200076de <vTaskSwitchContext+0x2a>
200076d6:	685a      	ldr	r2, [r3, #4]
200076d8:	f1b2 3fa5 	cmp.w	r2, #2779096485	@ 0xa5a5a5a5
200076dc:	d01c      	beq.n	20007718 <vTaskSwitchContext+0x64>
200076de:	6821      	ldr	r1, [r4, #0]
200076e0:	6820      	ldr	r0, [r4, #0]
200076e2:	3134      	adds	r1, #52	@ 0x34
200076e4:	f7f8 fe54 	bl	20000390 <vApplicationStackOverflowHook>
200076e8:	4b13      	ldr	r3, [pc, #76]	@ (20007738 <vTaskSwitchContext+0x84>)
200076ea:	681b      	ldr	r3, [r3, #0]
200076ec:	fab3 f383 	clz	r3, r3
200076f0:	4a12      	ldr	r2, [pc, #72]	@ (2000773c <vTaskSwitchContext+0x88>)
200076f2:	f1c3 031f 	rsb	r3, r3, #31
200076f6:	eb03 0383 	add.w	r3, r3, r3, lsl #2
200076fa:	eb02 0183 	add.w	r1, r2, r3, lsl #2
200076fe:	460a      	mov	r2, r1
20007700:	6848      	ldr	r0, [r1, #4]
20007702:	3208      	adds	r2, #8
20007704:	6843      	ldr	r3, [r0, #4]
20007706:	4293      	cmp	r3, r2
20007708:	604b      	str	r3, [r1, #4]
2000770a:	bf04      	itt	eq
2000770c:	68cb      	ldreq	r3, [r1, #12]
2000770e:	604b      	streq	r3, [r1, #4]
20007710:	68db      	ldr	r3, [r3, #12]
20007712:	6023      	str	r3, [r4, #0]
20007714:	6823      	ldr	r3, [r4, #0]
20007716:	bd10      	pop	{r4, pc}
20007718:	689a      	ldr	r2, [r3, #8]
2000771a:	f1b2 3fa5 	cmp.w	r2, #2779096485	@ 0xa5a5a5a5
2000771e:	d1de      	bne.n	200076de <vTaskSwitchContext+0x2a>
20007720:	68db      	ldr	r3, [r3, #12]
20007722:	f1b3 3fa5 	cmp.w	r3, #2779096485	@ 0xa5a5a5a5
20007726:	d1da      	bne.n	200076de <vTaskSwitchContext+0x2a>
20007728:	e7de      	b.n	200076e8 <vTaskSwitchContext+0x34>
2000772a:	bf00      	nop
2000772c:	2001f994 	.word	0x2001f994
20007730:	2001fa60 	.word	0x2001fa60
20007734:	2000f674 	.word	0x2000f674
20007738:	2001f99c 	.word	0x2001f99c
2000773c:	2000f688 	.word	0x2000f688

20007740 <vTaskPlaceOnEventList>:
20007740:	e92d 41f0 	stmdb	sp!, {r4, r5, r6, r7, r8, lr}
20007744:	4d25      	ldr	r5, [pc, #148]	@ (200077dc <vTaskPlaceOnEventList+0x9c>)
20007746:	460c      	mov	r4, r1
20007748:	6829      	ldr	r1, [r5, #0]
2000774a:	3118      	adds	r1, #24
2000774c:	f7fe ffca 	bl	200066e4 <vListInsert>
20007750:	4a23      	ldr	r2, [pc, #140]	@ (200077e0 <vTaskPlaceOnEventList+0xa0>)
20007752:	4924      	ldr	r1, [pc, #144]	@ (200077e4 <vTaskPlaceOnEventList+0xa4>)
20007754:	4b24      	ldr	r3, [pc, #144]	@ (200077e8 <vTaskPlaceOnEventList+0xa8>)
20007756:	680e      	ldr	r6, [r1, #0]
20007758:	6817      	ldr	r7, [r2, #0]
2000775a:	2200      	movs	r2, #0
2000775c:	f8d3 8000 	ldr.w	r8, [r3]
20007760:	682b      	ldr	r3, [r5, #0]
20007762:	6828      	ldr	r0, [r5, #0]
20007764:	f883 206d 	strb.w	r2, [r3, #109]	@ 0x6d
20007768:	3004      	adds	r0, #4
2000776a:	f7fe ffd3 	bl	20006714 <uxListRemove>
2000776e:	b940      	cbnz	r0, 20007782 <vTaskPlaceOnEventList+0x42>
20007770:	2201      	movs	r2, #1
20007772:	682b      	ldr	r3, [r5, #0]
20007774:	491d      	ldr	r1, [pc, #116]	@ (200077ec <vTaskPlaceOnEventList+0xac>)
20007776:	6adb      	ldr	r3, [r3, #44]	@ 0x2c
20007778:	409a      	lsls	r2, r3
2000777a:	680b      	ldr	r3, [r1, #0]
2000777c:	ea23 0302 	bic.w	r3, r3, r2
20007780:	600b      	str	r3, [r1, #0]
20007782:	1c63      	adds	r3, r4, #1
20007784:	d015      	beq.n	200077b2 <vTaskPlaceOnEventList+0x72>
20007786:	682b      	ldr	r3, [r5, #0]
20007788:	19a4      	adds	r4, r4, r6
2000778a:	6829      	ldr	r1, [r5, #0]
2000778c:	605c      	str	r4, [r3, #4]
2000778e:	d20a      	bcs.n	200077a6 <vTaskPlaceOnEventList+0x66>
20007790:	4638      	mov	r0, r7
20007792:	3104      	adds	r1, #4
20007794:	f7fe ffa6 	bl	200066e4 <vListInsert>
20007798:	4b15      	ldr	r3, [pc, #84]	@ (200077f0 <vTaskPlaceOnEventList+0xb0>)
2000779a:	681a      	ldr	r2, [r3, #0]
2000779c:	4294      	cmp	r4, r2
2000779e:	bf38      	it	cc
200077a0:	601c      	strcc	r4, [r3, #0]
200077a2:	e8bd 81f0 	ldmia.w	sp!, {r4, r5, r6, r7, r8, pc}
200077a6:	4640      	mov	r0, r8
200077a8:	e8bd 41f0 	ldmia.w	sp!, {r4, r5, r6, r7, r8, lr}
200077ac:	3104      	adds	r1, #4
200077ae:	f7fe bf99 	b.w	200066e4 <vListInsert>
200077b2:	4b10      	ldr	r3, [pc, #64]	@ (200077f4 <vTaskPlaceOnEventList+0xb4>)
200077b4:	6829      	ldr	r1, [r5, #0]
200077b6:	685a      	ldr	r2, [r3, #4]
200077b8:	681c      	ldr	r4, [r3, #0]
200077ba:	608a      	str	r2, [r1, #8]
200077bc:	682e      	ldr	r6, [r5, #0]
200077be:	3401      	adds	r4, #1
200077c0:	6828      	ldr	r0, [r5, #0]
200077c2:	6829      	ldr	r1, [r5, #0]
200077c4:	601c      	str	r4, [r3, #0]
200077c6:	682d      	ldr	r5, [r5, #0]
200077c8:	6894      	ldr	r4, [r2, #8]
200077ca:	3004      	adds	r0, #4
200077cc:	3104      	adds	r1, #4
200077ce:	60f4      	str	r4, [r6, #12]
200077d0:	6060      	str	r0, [r4, #4]
200077d2:	6091      	str	r1, [r2, #8]
200077d4:	616b      	str	r3, [r5, #20]
200077d6:	e8bd 81f0 	ldmia.w	sp!, {r4, r5, r6, r7, r8, pc}
200077da:	bf00      	nop
200077dc:	2000f674 	.word	0x2000f674
200077e0:	2000f67c 	.word	0x2000f67c
200077e4:	2001fa54 	.word	0x2001fa54
200077e8:	2000f680 	.word	0x2000f680
200077ec:	2001f99c 	.word	0x2001f99c
200077f0:	2001fa08 	.word	0x2001fa08
200077f4:	2001fa2c 	.word	0x2001fa2c

200077f8 <vTaskPlaceOnUnorderedEventList>:
200077f8:	e92d 4ff0 	stmdb	sp!, {r4, r5, r6, r7, r8, r9, sl, fp, lr}
200077fc:	4c37      	ldr	r4, [pc, #220]	@ (200078dc <vTaskPlaceOnUnorderedEventList+0xe4>)
200077fe:	f04f 0800 	mov.w	r8, #0
20007802:	6826      	ldr	r6, [r4, #0]
20007804:	f8d4 b000 	ldr.w	fp, [r4]
20007808:	f8d4 a000 	ldr.w	sl, [r4]
2000780c:	6823      	ldr	r3, [r4, #0]
2000780e:	4615      	mov	r5, r2
20007810:	f103 0c18 	add.w	ip, r3, #24
20007814:	4603      	mov	r3, r0
20007816:	4f32      	ldr	r7, [pc, #200]	@ (200078e0 <vTaskPlaceOnUnorderedEventList+0xe8>)
20007818:	4a32      	ldr	r2, [pc, #200]	@ (200078e4 <vTaskPlaceOnUnorderedEventList+0xec>)
2000781a:	f041 4100 	orr.w	r1, r1, #2147483648	@ 0x80000000
2000781e:	61b1      	str	r1, [r6, #24]
20007820:	f8df e0d0 	ldr.w	lr, [pc, #208]	@ 200078f4 <vTaskPlaceOnUnorderedEventList+0xfc>
20007824:	6826      	ldr	r6, [r4, #0]
20007826:	f8d4 9000 	ldr.w	r9, [r4]
2000782a:	683f      	ldr	r7, [r7, #0]
2000782c:	6812      	ldr	r2, [r2, #0]
2000782e:	b083      	sub	sp, #12
20007830:	9200      	str	r2, [sp, #0]
20007832:	f8de 2000 	ldr.w	r2, [lr]
20007836:	6859      	ldr	r1, [r3, #4]
20007838:	9201      	str	r2, [sp, #4]
2000783a:	681a      	ldr	r2, [r3, #0]
2000783c:	f8cb 101c 	str.w	r1, [fp, #28]
20007840:	f8d4 e000 	ldr.w	lr, [r4]
20007844:	f8d1 b008 	ldr.w	fp, [r1, #8]
20007848:	6820      	ldr	r0, [r4, #0]
2000784a:	3618      	adds	r6, #24
2000784c:	3201      	adds	r2, #1
2000784e:	f8ca b020 	str.w	fp, [sl, #32]
20007852:	3004      	adds	r0, #4
20007854:	f8cb c004 	str.w	ip, [fp, #4]
20007858:	608e      	str	r6, [r1, #8]
2000785a:	f8c9 3028 	str.w	r3, [r9, #40]	@ 0x28
2000785e:	601a      	str	r2, [r3, #0]
20007860:	f88e 806d 	strb.w	r8, [lr, #109]	@ 0x6d
20007864:	f7fe ff56 	bl	20006714 <uxListRemove>
20007868:	b940      	cbnz	r0, 2000787c <vTaskPlaceOnUnorderedEventList+0x84>
2000786a:	2201      	movs	r2, #1
2000786c:	6823      	ldr	r3, [r4, #0]
2000786e:	491e      	ldr	r1, [pc, #120]	@ (200078e8 <vTaskPlaceOnUnorderedEventList+0xf0>)
20007870:	6adb      	ldr	r3, [r3, #44]	@ 0x2c
20007872:	409a      	lsls	r2, r3
20007874:	680b      	ldr	r3, [r1, #0]
20007876:	ea23 0302 	bic.w	r3, r3, r2
2000787a:	600b      	str	r3, [r1, #0]
2000787c:	1c6b      	adds	r3, r5, #1
2000787e:	d017      	beq.n	200078b0 <vTaskPlaceOnUnorderedEventList+0xb8>
20007880:	6823      	ldr	r3, [r4, #0]
20007882:	19ed      	adds	r5, r5, r7
20007884:	6821      	ldr	r1, [r4, #0]
20007886:	605d      	str	r5, [r3, #4]
20007888:	d20b      	bcs.n	200078a2 <vTaskPlaceOnUnorderedEventList+0xaa>
2000788a:	9800      	ldr	r0, [sp, #0]
2000788c:	3104      	adds	r1, #4
2000788e:	f7fe ff29 	bl	200066e4 <vListInsert>
20007892:	4b16      	ldr	r3, [pc, #88]	@ (200078ec <vTaskPlaceOnUnorderedEventList+0xf4>)
20007894:	681a      	ldr	r2, [r3, #0]
20007896:	4295      	cmp	r5, r2
20007898:	bf38      	it	cc
2000789a:	601d      	strcc	r5, [r3, #0]
2000789c:	b003      	add	sp, #12
2000789e:	e8bd 8ff0 	ldmia.w	sp!, {r4, r5, r6, r7, r8, r9, sl, fp, pc}
200078a2:	9801      	ldr	r0, [sp, #4]
200078a4:	3104      	adds	r1, #4
200078a6:	b003      	add	sp, #12
200078a8:	e8bd 4ff0 	ldmia.w	sp!, {r4, r5, r6, r7, r8, r9, sl, fp, lr}
200078ac:	f7fe bf1a 	b.w	200066e4 <vListInsert>
200078b0:	4b0f      	ldr	r3, [pc, #60]	@ (200078f0 <vTaskPlaceOnUnorderedEventList+0xf8>)
200078b2:	6821      	ldr	r1, [r4, #0]
200078b4:	685a      	ldr	r2, [r3, #4]
200078b6:	6826      	ldr	r6, [r4, #0]
200078b8:	608a      	str	r2, [r1, #8]
200078ba:	6820      	ldr	r0, [r4, #0]
200078bc:	6821      	ldr	r1, [r4, #0]
200078be:	6825      	ldr	r5, [r4, #0]
200078c0:	681c      	ldr	r4, [r3, #0]
200078c2:	3004      	adds	r0, #4
200078c4:	3401      	adds	r4, #1
200078c6:	601c      	str	r4, [r3, #0]
200078c8:	6894      	ldr	r4, [r2, #8]
200078ca:	3104      	adds	r1, #4
200078cc:	60f4      	str	r4, [r6, #12]
200078ce:	6060      	str	r0, [r4, #4]
200078d0:	6091      	str	r1, [r2, #8]
200078d2:	616b      	str	r3, [r5, #20]
200078d4:	b003      	add	sp, #12
200078d6:	e8bd 8ff0 	ldmia.w	sp!, {r4, r5, r6, r7, r8, r9, sl, fp, pc}
200078da:	bf00      	nop
200078dc:	2000f674 	.word	0x2000f674
200078e0:	2001fa54 	.word	0x2001fa54
200078e4:	2000f67c 	.word	0x2000f67c
200078e8:	2001f99c 	.word	0x2001f99c
200078ec:	2001fa08 	.word	0x2001fa08
200078f0:	2001fa2c 	.word	0x2001fa2c
200078f4:	2000f680 	.word	0x2000f680

200078f8 <vTaskPlaceOnEventListRestricted>:
200078f8:	e92d 4ff0 	stmdb	sp!, {r4, r5, r6, r7, r8, r9, sl, fp, lr}
200078fc:	4615      	mov	r5, r2
200078fe:	4603      	mov	r3, r0
20007900:	f04f 0e00 	mov.w	lr, #0
20007904:	4c42      	ldr	r4, [pc, #264]	@ (20007a10 <vTaskPlaceOnEventListRestricted+0x118>)
20007906:	f8df 811c 	ldr.w	r8, [pc, #284]	@ 20007a24 <vTaskPlaceOnEventListRestricted+0x12c>
2000790a:	4a42      	ldr	r2, [pc, #264]	@ (20007a14 <vTaskPlaceOnEventListRestricted+0x11c>)
2000790c:	f8d4 b000 	ldr.w	fp, [r4]
20007910:	f8df c114 	ldr.w	ip, [pc, #276]	@ 20007a28 <vTaskPlaceOnEventListRestricted+0x130>
20007914:	f8d4 9000 	ldr.w	r9, [r4]
20007918:	6827      	ldr	r7, [r4, #0]
2000791a:	6826      	ldr	r6, [r4, #0]
2000791c:	f8d4 a000 	ldr.w	sl, [r4]
20007920:	f8d8 8000 	ldr.w	r8, [r8]
20007924:	6812      	ldr	r2, [r2, #0]
20007926:	b085      	sub	sp, #20
20007928:	1e28      	subs	r0, r5, #0
2000792a:	9201      	str	r2, [sp, #4]
2000792c:	f8dc 2000 	ldr.w	r2, [ip]
20007930:	bf08      	it	eq
20007932:	460d      	moveq	r5, r1
20007934:	6859      	ldr	r1, [r3, #4]
20007936:	9202      	str	r2, [sp, #8]
20007938:	681a      	ldr	r2, [r3, #0]
2000793a:	f8cb 101c 	str.w	r1, [fp, #28]
2000793e:	f8d4 c000 	ldr.w	ip, [r4]
20007942:	f8d1 b008 	ldr.w	fp, [r1, #8]
20007946:	9003      	str	r0, [sp, #12]
20007948:	6820      	ldr	r0, [r4, #0]
2000794a:	f107 0718 	add.w	r7, r7, #24
2000794e:	f106 0618 	add.w	r6, r6, #24
20007952:	f102 0201 	add.w	r2, r2, #1
20007956:	f8c9 b020 	str.w	fp, [r9, #32]
2000795a:	f100 0004 	add.w	r0, r0, #4
2000795e:	f8cb 7004 	str.w	r7, [fp, #4]
20007962:	608e      	str	r6, [r1, #8]
20007964:	f8ca 3028 	str.w	r3, [sl, #40]	@ 0x28
20007968:	601a      	str	r2, [r3, #0]
2000796a:	f88c e06d 	strb.w	lr, [ip, #109]	@ 0x6d
2000796e:	bf18      	it	ne
20007970:	f04f 35ff 	movne.w	r5, #4294967295	@ 0xffffffff
20007974:	f7fe fece 	bl	20006714 <uxListRemove>
20007978:	b940      	cbnz	r0, 2000798c <vTaskPlaceOnEventListRestricted+0x94>
2000797a:	2201      	movs	r2, #1
2000797c:	6823      	ldr	r3, [r4, #0]
2000797e:	4926      	ldr	r1, [pc, #152]	@ (20007a18 <vTaskPlaceOnEventListRestricted+0x120>)
20007980:	6adb      	ldr	r3, [r3, #44]	@ 0x2c
20007982:	409a      	lsls	r2, r3
20007984:	680b      	ldr	r3, [r1, #0]
20007986:	ea23 0302 	bic.w	r3, r3, r2
2000798a:	600b      	str	r3, [r1, #0]
2000798c:	1c6b      	adds	r3, r5, #1
2000798e:	d019      	beq.n	200079c4 <vTaskPlaceOnEventListRestricted+0xcc>
20007990:	6823      	ldr	r3, [r4, #0]
20007992:	eb15 0508 	adds.w	r5, r5, r8
20007996:	605d      	str	r5, [r3, #4]
20007998:	d20c      	bcs.n	200079b4 <vTaskPlaceOnEventListRestricted+0xbc>
2000799a:	6821      	ldr	r1, [r4, #0]
2000799c:	9801      	ldr	r0, [sp, #4]
2000799e:	3104      	adds	r1, #4
200079a0:	f7fe fea0 	bl	200066e4 <vListInsert>
200079a4:	4b1d      	ldr	r3, [pc, #116]	@ (20007a1c <vTaskPlaceOnEventListRestricted+0x124>)
200079a6:	681a      	ldr	r2, [r3, #0]
200079a8:	4295      	cmp	r5, r2
200079aa:	d200      	bcs.n	200079ae <vTaskPlaceOnEventListRestricted+0xb6>
200079ac:	601d      	str	r5, [r3, #0]
200079ae:	b005      	add	sp, #20
200079b0:	e8bd 8ff0 	ldmia.w	sp!, {r4, r5, r6, r7, r8, r9, sl, fp, pc}
200079b4:	6821      	ldr	r1, [r4, #0]
200079b6:	9802      	ldr	r0, [sp, #8]
200079b8:	3104      	adds	r1, #4
200079ba:	b005      	add	sp, #20
200079bc:	e8bd 4ff0 	ldmia.w	sp!, {r4, r5, r6, r7, r8, r9, sl, fp, lr}
200079c0:	f7fe be90 	b.w	200066e4 <vListInsert>
200079c4:	9b03      	ldr	r3, [sp, #12]
200079c6:	b973      	cbnz	r3, 200079e6 <vTaskPlaceOnEventListRestricted+0xee>
200079c8:	6823      	ldr	r3, [r4, #0]
200079ca:	f108 32ff 	add.w	r2, r8, #4294967295	@ 0xffffffff
200079ce:	605a      	str	r2, [r3, #4]
200079d0:	f1b8 0f00 	cmp.w	r8, #0
200079d4:	d1ee      	bne.n	200079b4 <vTaskPlaceOnEventListRestricted+0xbc>
200079d6:	6821      	ldr	r1, [r4, #0]
200079d8:	9801      	ldr	r0, [sp, #4]
200079da:	3104      	adds	r1, #4
200079dc:	f7fe fe82 	bl	200066e4 <vListInsert>
200079e0:	4b0e      	ldr	r3, [pc, #56]	@ (20007a1c <vTaskPlaceOnEventListRestricted+0x124>)
200079e2:	681b      	ldr	r3, [r3, #0]
200079e4:	e7e3      	b.n	200079ae <vTaskPlaceOnEventListRestricted+0xb6>
200079e6:	4b0e      	ldr	r3, [pc, #56]	@ (20007a20 <vTaskPlaceOnEventListRestricted+0x128>)
200079e8:	6821      	ldr	r1, [r4, #0]
200079ea:	685a      	ldr	r2, [r3, #4]
200079ec:	6826      	ldr	r6, [r4, #0]
200079ee:	608a      	str	r2, [r1, #8]
200079f0:	6820      	ldr	r0, [r4, #0]
200079f2:	6821      	ldr	r1, [r4, #0]
200079f4:	6825      	ldr	r5, [r4, #0]
200079f6:	681c      	ldr	r4, [r3, #0]
200079f8:	3004      	adds	r0, #4
200079fa:	3401      	adds	r4, #1
200079fc:	601c      	str	r4, [r3, #0]
200079fe:	6894      	ldr	r4, [r2, #8]
20007a00:	3104      	adds	r1, #4
20007a02:	60f4      	str	r4, [r6, #12]
20007a04:	6060      	str	r0, [r4, #4]
20007a06:	6091      	str	r1, [r2, #8]
20007a08:	616b      	str	r3, [r5, #20]
20007a0a:	b005      	add	sp, #20
20007a0c:	e8bd 8ff0 	ldmia.w	sp!, {r4, r5, r6, r7, r8, r9, sl, fp, pc}
20007a10:	2000f674 	.word	0x2000f674
20007a14:	2000f67c 	.word	0x2000f67c
20007a18:	2001f99c 	.word	0x2001f99c
20007a1c:	2001fa08 	.word	0x2001fa08
20007a20:	2001fa2c 	.word	0x2001fa2c
20007a24:	2001fa54 	.word	0x2001fa54
20007a28:	2000f680 	.word	0x2000f680

20007a2c <xTaskRemoveFromEventList>:
20007a2c:	e92d 43f0 	stmdb	sp!, {r4, r5, r6, r7, r8, r9, lr}
20007a30:	2600      	movs	r6, #0
20007a32:	68c3      	ldr	r3, [r0, #12]
20007a34:	68db      	ldr	r3, [r3, #12]
20007a36:	6a9a      	ldr	r2, [r3, #40]	@ 0x28
20007a38:	e9d3 0107 	ldrd	r0, r1, [r3, #28]
20007a3c:	6081      	str	r1, [r0, #8]
20007a3e:	6048      	str	r0, [r1, #4]
20007a40:	6850      	ldr	r0, [r2, #4]
20007a42:	f103 0418 	add.w	r4, r3, #24
20007a46:	42a0      	cmp	r0, r4
20007a48:	482a      	ldr	r0, [pc, #168]	@ (20007af4 <xTaskRemoveFromEventList+0xc8>)
20007a4a:	bf08      	it	eq
20007a4c:	6051      	streq	r1, [r2, #4]
20007a4e:	6811      	ldr	r1, [r2, #0]
20007a50:	6805      	ldr	r5, [r0, #0]
20007a52:	3901      	subs	r1, #1
20007a54:	6ad8      	ldr	r0, [r3, #44]	@ 0x2c
20007a56:	629e      	str	r6, [r3, #40]	@ 0x28
20007a58:	6011      	str	r1, [r2, #0]
20007a5a:	2d00      	cmp	r5, #0
20007a5c:	d137      	bne.n	20007ace <xTaskRemoveFromEventList+0xa2>
20007a5e:	e9d3 4102 	ldrd	r4, r1, [r3, #8]
20007a62:	695a      	ldr	r2, [r3, #20]
20007a64:	60a1      	str	r1, [r4, #8]
20007a66:	604c      	str	r4, [r1, #4]
20007a68:	6854      	ldr	r4, [r2, #4]
20007a6a:	1d1f      	adds	r7, r3, #4
20007a6c:	42bc      	cmp	r4, r7
20007a6e:	bf08      	it	eq
20007a70:	6051      	streq	r1, [r2, #4]
20007a72:	6811      	ldr	r1, [r2, #0]
20007a74:	4c20      	ldr	r4, [pc, #128]	@ (20007af8 <xTaskRemoveFromEventList+0xcc>)
20007a76:	3901      	subs	r1, #1
20007a78:	6011      	str	r1, [r2, #0]
20007a7a:	2201      	movs	r2, #1
20007a7c:	eb00 0180 	add.w	r1, r0, r0, lsl #2
20007a80:	eb04 0e81 	add.w	lr, r4, r1, lsl #2
20007a84:	f8de 6004 	ldr.w	r6, [lr, #4]
20007a88:	f8df c07c 	ldr.w	ip, [pc, #124]	@ 20007b08 <xTaskRemoveFromEventList+0xdc>
20007a8c:	f8d6 9008 	ldr.w	r9, [r6, #8]
20007a90:	f8dc 8000 	ldr.w	r8, [ip]
20007a94:	0089      	lsls	r1, r1, #2
20007a96:	5865      	ldr	r5, [r4, r1]
20007a98:	609e      	str	r6, [r3, #8]
20007a9a:	f8c3 900c 	str.w	r9, [r3, #12]
20007a9e:	f8c9 7004 	str.w	r7, [r9, #4]
20007aa2:	60b7      	str	r7, [r6, #8]
20007aa4:	f8c3 e014 	str.w	lr, [r3, #20]
20007aa8:	fa02 f300 	lsl.w	r3, r2, r0
20007aac:	ea43 0308 	orr.w	r3, r3, r8
20007ab0:	f8cc 3000 	str.w	r3, [ip]
20007ab4:	4b11      	ldr	r3, [pc, #68]	@ (20007afc <xTaskRemoveFromEventList+0xd0>)
20007ab6:	4415      	add	r5, r2
20007ab8:	681b      	ldr	r3, [r3, #0]
20007aba:	5065      	str	r5, [r4, r1]
20007abc:	6adb      	ldr	r3, [r3, #44]	@ 0x2c
20007abe:	4283      	cmp	r3, r0
20007ac0:	d215      	bcs.n	20007aee <xTaskRemoveFromEventList+0xc2>
20007ac2:	2301      	movs	r3, #1
20007ac4:	4a0e      	ldr	r2, [pc, #56]	@ (20007b00 <xTaskRemoveFromEventList+0xd4>)
20007ac6:	4618      	mov	r0, r3
20007ac8:	6013      	str	r3, [r2, #0]
20007aca:	e8bd 83f0 	ldmia.w	sp!, {r4, r5, r6, r7, r8, r9, pc}
20007ace:	4a0d      	ldr	r2, [pc, #52]	@ (20007b04 <xTaskRemoveFromEventList+0xd8>)
20007ad0:	6815      	ldr	r5, [r2, #0]
20007ad2:	6851      	ldr	r1, [r2, #4]
20007ad4:	3501      	adds	r5, #1
20007ad6:	6015      	str	r5, [r2, #0]
20007ad8:	688d      	ldr	r5, [r1, #8]
20007ada:	61d9      	str	r1, [r3, #28]
20007adc:	621d      	str	r5, [r3, #32]
20007ade:	606c      	str	r4, [r5, #4]
20007ae0:	608c      	str	r4, [r1, #8]
20007ae2:	629a      	str	r2, [r3, #40]	@ 0x28
20007ae4:	4b05      	ldr	r3, [pc, #20]	@ (20007afc <xTaskRemoveFromEventList+0xd0>)
20007ae6:	681b      	ldr	r3, [r3, #0]
20007ae8:	6adb      	ldr	r3, [r3, #44]	@ 0x2c
20007aea:	4283      	cmp	r3, r0
20007aec:	d3e9      	bcc.n	20007ac2 <xTaskRemoveFromEventList+0x96>
20007aee:	2000      	movs	r0, #0
20007af0:	e8bd 83f0 	ldmia.w	sp!, {r4, r5, r6, r7, r8, r9, pc}
20007af4:	2001f994 	.word	0x2001f994
20007af8:	2000f688 	.word	0x2000f688
20007afc:	2000f674 	.word	0x2000f674
20007b00:	2001fa60 	.word	0x2001fa60
20007b04:	2001fa14 	.word	0x2001fa14
20007b08:	2001f99c 	.word	0x2001f99c

20007b0c <vTaskRemoveFromUnorderedEventList>:
20007b0c:	e92d 47f0 	stmdb	sp!, {r4, r5, r6, r7, r8, r9, sl, lr}
20007b10:	e9d0 5401 	ldrd	r5, r4, [r0, #4]
20007b14:	2700      	movs	r7, #0
20007b16:	f04f 0c01 	mov.w	ip, #1
20007b1a:	6902      	ldr	r2, [r0, #16]
20007b1c:	f041 4100 	orr.w	r1, r1, #2147483648	@ 0x80000000
20007b20:	6001      	str	r1, [r0, #0]
20007b22:	6851      	ldr	r1, [r2, #4]
20007b24:	68c3      	ldr	r3, [r0, #12]
20007b26:	4281      	cmp	r1, r0
20007b28:	6811      	ldr	r1, [r2, #0]
20007b2a:	60ac      	str	r4, [r5, #8]
20007b2c:	6065      	str	r5, [r4, #4]
20007b2e:	f101 31ff 	add.w	r1, r1, #4294967295	@ 0xffffffff
20007b32:	bf08      	it	eq
20007b34:	6054      	streq	r4, [r2, #4]
20007b36:	e9d3 5402 	ldrd	r5, r4, [r3, #8]
20007b3a:	6107      	str	r7, [r0, #16]
20007b3c:	6011      	str	r1, [r2, #0]
20007b3e:	695a      	ldr	r2, [r3, #20]
20007b40:	1d1e      	adds	r6, r3, #4
20007b42:	6851      	ldr	r1, [r2, #4]
20007b44:	6810      	ldr	r0, [r2, #0]
20007b46:	42b1      	cmp	r1, r6
20007b48:	f100 30ff 	add.w	r0, r0, #4294967295	@ 0xffffffff
20007b4c:	6ad9      	ldr	r1, [r3, #44]	@ 0x2c
20007b4e:	60ac      	str	r4, [r5, #8]
20007b50:	6065      	str	r5, [r4, #4]
20007b52:	6010      	str	r0, [r2, #0]
20007b54:	4815      	ldr	r0, [pc, #84]	@ (20007bac <vTaskRemoveFromUnorderedEventList+0xa0>)
20007b56:	bf08      	it	eq
20007b58:	6054      	streq	r4, [r2, #4]
20007b5a:	eb01 0281 	add.w	r2, r1, r1, lsl #2
20007b5e:	eb00 0982 	add.w	r9, r0, r2, lsl #2
20007b62:	f8d9 5004 	ldr.w	r5, [r9, #4]
20007b66:	4f12      	ldr	r7, [pc, #72]	@ (20007bb0 <vTaskRemoveFromUnorderedEventList+0xa4>)
20007b68:	f8d5 a008 	ldr.w	sl, [r5, #8]
20007b6c:	0092      	lsls	r2, r2, #2
20007b6e:	5884      	ldr	r4, [r0, r2]
20007b70:	f8d7 8000 	ldr.w	r8, [r7]
20007b74:	609d      	str	r5, [r3, #8]
20007b76:	f8c3 a00c 	str.w	sl, [r3, #12]
20007b7a:	f8ca 6004 	str.w	r6, [sl, #4]
20007b7e:	60ae      	str	r6, [r5, #8]
20007b80:	f8c3 9014 	str.w	r9, [r3, #20]
20007b84:	fa0c f301 	lsl.w	r3, ip, r1
20007b88:	ea43 0308 	orr.w	r3, r3, r8
20007b8c:	f8df e028 	ldr.w	lr, [pc, #40]	@ 20007bb8 <vTaskRemoveFromUnorderedEventList+0xac>
20007b90:	4464      	add	r4, ip
20007b92:	5084      	str	r4, [r0, r2]
20007b94:	603b      	str	r3, [r7, #0]
20007b96:	f8de 3000 	ldr.w	r3, [lr]
20007b9a:	6adb      	ldr	r3, [r3, #44]	@ 0x2c
20007b9c:	4299      	cmp	r1, r3
20007b9e:	bf84      	itt	hi
20007ba0:	4b04      	ldrhi	r3, [pc, #16]	@ (20007bb4 <vTaskRemoveFromUnorderedEventList+0xa8>)
20007ba2:	f8c3 c000 	strhi.w	ip, [r3]
20007ba6:	e8bd 87f0 	ldmia.w	sp!, {r4, r5, r6, r7, r8, r9, sl, pc}
20007baa:	bf00      	nop
20007bac:	2000f688 	.word	0x2000f688
20007bb0:	2001f99c 	.word	0x2001f99c
20007bb4:	2001fa60 	.word	0x2001fa60
20007bb8:	2000f674 	.word	0x2000f674

20007bbc <vTaskInternalSetTimeOutState>:
20007bbc:	4a03      	ldr	r2, [pc, #12]	@ (20007bcc <vTaskInternalSetTimeOutState+0x10>)
20007bbe:	4b04      	ldr	r3, [pc, #16]	@ (20007bd0 <vTaskInternalSetTimeOutState+0x14>)
20007bc0:	6812      	ldr	r2, [r2, #0]
20007bc2:	681b      	ldr	r3, [r3, #0]
20007bc4:	e9c0 2300 	strd	r2, r3, [r0]
20007bc8:	4770      	bx	lr
20007bca:	bf00      	nop
20007bcc:	2001fa0c 	.word	0x2001fa0c
20007bd0:	2001fa54 	.word	0x2001fa54

20007bd4 <xTaskCheckForTimeOut>:
20007bd4:	b5f8      	push	{r3, r4, r5, r6, r7, lr}
20007bd6:	4604      	mov	r4, r0
20007bd8:	460d      	mov	r5, r1
20007bda:	f7fe f9bb 	bl	20005f54 <vPortEnterCritical>
20007bde:	4a18      	ldr	r2, [pc, #96]	@ (20007c40 <xTaskCheckForTimeOut+0x6c>)
20007be0:	4b18      	ldr	r3, [pc, #96]	@ (20007c44 <xTaskCheckForTimeOut+0x70>)
20007be2:	6816      	ldr	r6, [r2, #0]
20007be4:	6818      	ldr	r0, [r3, #0]
20007be6:	6861      	ldr	r1, [r4, #4]
20007be8:	f890 006d 	ldrb.w	r0, [r0, #109]	@ 0x6d
20007bec:	b140      	cbz	r0, 20007c00 <xTaskCheckForTimeOut+0x2c>
20007bee:	2200      	movs	r2, #0
20007bf0:	681b      	ldr	r3, [r3, #0]
20007bf2:	f883 206d 	strb.w	r2, [r3, #109]	@ 0x6d
20007bf6:	2401      	movs	r4, #1
20007bf8:	f7fe f9ba 	bl	20005f70 <vPortExitCritical>
20007bfc:	4620      	mov	r0, r4
20007bfe:	bdf8      	pop	{r3, r4, r5, r6, r7, pc}
20007c00:	682b      	ldr	r3, [r5, #0]
20007c02:	1c58      	adds	r0, r3, #1
20007c04:	d016      	beq.n	20007c34 <xTaskCheckForTimeOut+0x60>
20007c06:	f8df c040 	ldr.w	ip, [pc, #64]	@ 20007c48 <xTaskCheckForTimeOut+0x74>
20007c0a:	6820      	ldr	r0, [r4, #0]
20007c0c:	f8dc 7000 	ldr.w	r7, [ip]
20007c10:	42b8      	cmp	r0, r7
20007c12:	d004      	beq.n	20007c1e <xTaskCheckForTimeOut+0x4a>
20007c14:	42b1      	cmp	r1, r6
20007c16:	d802      	bhi.n	20007c1e <xTaskCheckForTimeOut+0x4a>
20007c18:	2300      	movs	r3, #0
20007c1a:	602b      	str	r3, [r5, #0]
20007c1c:	e7eb      	b.n	20007bf6 <xTaskCheckForTimeOut+0x22>
20007c1e:	1a77      	subs	r7, r6, r1
20007c20:	42bb      	cmp	r3, r7
20007c22:	d9f9      	bls.n	20007c18 <xTaskCheckForTimeOut+0x44>
20007c24:	1b9b      	subs	r3, r3, r6
20007c26:	440b      	add	r3, r1
20007c28:	f8dc 1000 	ldr.w	r1, [ip]
20007c2c:	6812      	ldr	r2, [r2, #0]
20007c2e:	602b      	str	r3, [r5, #0]
20007c30:	e9c4 1200 	strd	r1, r2, [r4]
20007c34:	2400      	movs	r4, #0
20007c36:	f7fe f99b 	bl	20005f70 <vPortExitCritical>
20007c3a:	4620      	mov	r0, r4
20007c3c:	bdf8      	pop	{r3, r4, r5, r6, r7, pc}
20007c3e:	bf00      	nop
20007c40:	2001fa54 	.word	0x2001fa54
20007c44:	2000f674 	.word	0x2000f674
20007c48:	2001fa0c 	.word	0x2001fa0c

20007c4c <vTaskMissedYield>:
20007c4c:	2201      	movs	r2, #1
20007c4e:	4b01      	ldr	r3, [pc, #4]	@ (20007c54 <vTaskMissedYield+0x8>)
20007c50:	601a      	str	r2, [r3, #0]
20007c52:	4770      	bx	lr
20007c54:	2001fa60 	.word	0x2001fa60

20007c58 <xTaskGetCurrentTaskHandle>:
20007c58:	4b01      	ldr	r3, [pc, #4]	@ (20007c60 <xTaskGetCurrentTaskHandle+0x8>)
20007c5a:	6818      	ldr	r0, [r3, #0]
20007c5c:	4770      	bx	lr
20007c5e:	bf00      	nop
20007c60:	2000f674 	.word	0x2000f674

20007c64 <xTaskPriorityDisinherit>:
20007c64:	b168      	cbz	r0, 20007c82 <xTaskPriorityDisinherit+0x1e>
20007c66:	e92d 43f8 	stmdb	sp!, {r3, r4, r5, r6, r7, r8, r9, lr}
20007c6a:	6ac1      	ldr	r1, [r0, #44]	@ 0x2c
20007c6c:	6d03      	ldr	r3, [r0, #80]	@ 0x50
20007c6e:	6cc2      	ldr	r2, [r0, #76]	@ 0x4c
20007c70:	3b01      	subs	r3, #1
20007c72:	4291      	cmp	r1, r2
20007c74:	4604      	mov	r4, r0
20007c76:	6503      	str	r3, [r0, #80]	@ 0x50
20007c78:	d000      	beq.n	20007c7c <xTaskPriorityDisinherit+0x18>
20007c7a:	b123      	cbz	r3, 20007c86 <xTaskPriorityDisinherit+0x22>
20007c7c:	2000      	movs	r0, #0
20007c7e:	e8bd 83f8 	ldmia.w	sp!, {r3, r4, r5, r6, r7, r8, r9, pc}
20007c82:	2000      	movs	r0, #0
20007c84:	4770      	bx	lr
20007c86:	f100 0804 	add.w	r8, r0, #4
20007c8a:	4640      	mov	r0, r8
20007c8c:	f7fe fd42 	bl	20006714 <uxListRemove>
20007c90:	b328      	cbz	r0, 20007cde <xTaskPriorityDisinherit+0x7a>
20007c92:	4d17      	ldr	r5, [pc, #92]	@ (20007cf0 <xTaskPriorityDisinherit+0x8c>)
20007c94:	6ce2      	ldr	r2, [r4, #76]	@ 0x4c
20007c96:	4817      	ldr	r0, [pc, #92]	@ (20007cf4 <xTaskPriorityDisinherit+0x90>)
20007c98:	f1c2 0320 	rsb	r3, r2, #32
20007c9c:	61a3      	str	r3, [r4, #24]
20007c9e:	2301      	movs	r3, #1
20007ca0:	eb02 0182 	add.w	r1, r2, r2, lsl #2
20007ca4:	eb00 0e81 	add.w	lr, r0, r1, lsl #2
20007ca8:	f8de 7004 	ldr.w	r7, [lr, #4]
20007cac:	0089      	lsls	r1, r1, #2
20007cae:	5846      	ldr	r6, [r0, r1]
20007cb0:	f8d7 9008 	ldr.w	r9, [r7, #8]
20007cb4:	f8d5 c000 	ldr.w	ip, [r5]
20007cb8:	441e      	add	r6, r3
20007cba:	62e2      	str	r2, [r4, #44]	@ 0x2c
20007cbc:	60a7      	str	r7, [r4, #8]
20007cbe:	f8c4 900c 	str.w	r9, [r4, #12]
20007cc2:	f8c9 8004 	str.w	r8, [r9, #4]
20007cc6:	f8c7 8008 	str.w	r8, [r7, #8]
20007cca:	f8c4 e014 	str.w	lr, [r4, #20]
20007cce:	5046      	str	r6, [r0, r1]
20007cd0:	4618      	mov	r0, r3
20007cd2:	4093      	lsls	r3, r2
20007cd4:	ea43 030c 	orr.w	r3, r3, ip
20007cd8:	602b      	str	r3, [r5, #0]
20007cda:	e8bd 83f8 	ldmia.w	sp!, {r3, r4, r5, r6, r7, r8, r9, pc}
20007cde:	2201      	movs	r2, #1
20007ce0:	4d03      	ldr	r5, [pc, #12]	@ (20007cf0 <xTaskPriorityDisinherit+0x8c>)
20007ce2:	6ae1      	ldr	r1, [r4, #44]	@ 0x2c
20007ce4:	682b      	ldr	r3, [r5, #0]
20007ce6:	408a      	lsls	r2, r1
20007ce8:	ea23 0302 	bic.w	r3, r3, r2
20007cec:	602b      	str	r3, [r5, #0]
20007cee:	e7d1      	b.n	20007c94 <xTaskPriorityDisinherit+0x30>
20007cf0:	2001f99c 	.word	0x2001f99c
20007cf4:	2000f688 	.word	0x2000f688

20007cf8 <uxTaskResetEventItemValue>:
20007cf8:	4a04      	ldr	r2, [pc, #16]	@ (20007d0c <uxTaskResetEventItemValue+0x14>)
20007cfa:	6811      	ldr	r1, [r2, #0]
20007cfc:	6813      	ldr	r3, [r2, #0]
20007cfe:	6812      	ldr	r2, [r2, #0]
20007d00:	6adb      	ldr	r3, [r3, #44]	@ 0x2c
20007d02:	6988      	ldr	r0, [r1, #24]
20007d04:	f1c3 0320 	rsb	r3, r3, #32
20007d08:	6193      	str	r3, [r2, #24]
20007d0a:	4770      	bx	lr
20007d0c:	2000f674 	.word	0x2000f674

20007d10 <prvTimerTask>:
20007d10:	e92d 4ff0 	stmdb	sp!, {r4, r5, r6, r7, r8, r9, sl, fp, lr}
20007d14:	4fb7      	ldr	r7, [pc, #732]	@ (20007ff4 <prvTimerTask+0x2e4>)
20007d16:	f8df b2e4 	ldr.w	fp, [pc, #740]	@ 20007ffc <prvTimerTask+0x2ec>
20007d1a:	f8df 82e4 	ldr.w	r8, [pc, #740]	@ 20008000 <prvTimerTask+0x2f0>
20007d1e:	4db6      	ldr	r5, [pc, #728]	@ (20007ff8 <prvTimerTask+0x2e8>)
20007d20:	b087      	sub	sp, #28
20007d22:	683b      	ldr	r3, [r7, #0]
20007d24:	681c      	ldr	r4, [r3, #0]
20007d26:	2c00      	cmp	r4, #0
20007d28:	f000 811d 	beq.w	20007f66 <prvTimerTask+0x256>
20007d2c:	68db      	ldr	r3, [r3, #12]
20007d2e:	681c      	ldr	r4, [r3, #0]
20007d30:	f7ff faf4 	bl	2000731c <vTaskSuspendAll>
20007d34:	f7ff fafa 	bl	2000732c <xTaskGetTickCount>
20007d38:	f8db 3000 	ldr.w	r3, [fp]
20007d3c:	4681      	mov	r9, r0
20007d3e:	4298      	cmp	r0, r3
20007d40:	d346      	bcc.n	20007dd0 <prvTimerTask+0xc0>
20007d42:	4284      	cmp	r4, r0
20007d44:	f8cb 0000 	str.w	r0, [fp]
20007d48:	f240 813e 	bls.w	20007fc8 <prvTimerTask+0x2b8>
20007d4c:	2200      	movs	r2, #0
20007d4e:	6828      	ldr	r0, [r5, #0]
20007d50:	eba4 0109 	sub.w	r1, r4, r9
20007d54:	f7fe ffcc 	bl	20006cf0 <vQueueWaitForMessageRestricted>
20007d58:	f7ff fbce 	bl	200074f8 <xTaskResumeAll>
20007d5c:	2800      	cmp	r0, #0
20007d5e:	f000 8125 	beq.w	20007fac <prvTimerTask+0x29c>
20007d62:	2300      	movs	r3, #0
20007d64:	e9cd 3302 	strd	r3, r3, [sp, #8]
20007d68:	e9cd 3304 	strd	r3, r3, [sp, #16]
20007d6c:	2200      	movs	r2, #0
20007d6e:	6828      	ldr	r0, [r5, #0]
20007d70:	a902      	add	r1, sp, #8
20007d72:	f7fe fea7 	bl	20006ac4 <xQueueReceive>
20007d76:	2800      	cmp	r0, #0
20007d78:	d0d3      	beq.n	20007d22 <prvTimerTask+0x12>
20007d7a:	9b02      	ldr	r3, [sp, #8]
20007d7c:	9804      	ldr	r0, [sp, #16]
20007d7e:	2b00      	cmp	r3, #0
20007d80:	f2c0 80e9 	blt.w	20007f56 <prvTimerTask+0x246>
20007d84:	f8dd a010 	ldr.w	sl, [sp, #16]
20007d88:	f8da 3014 	ldr.w	r3, [sl, #20]
20007d8c:	b11b      	cbz	r3, 20007d96 <prvTimerTask+0x86>
20007d8e:	f10a 0004 	add.w	r0, sl, #4
20007d92:	f7fe fcbf 	bl	20006714 <uxListRemove>
20007d96:	f7ff fac9 	bl	2000732c <xTaskGetTickCount>
20007d9a:	f8db 3000 	ldr.w	r3, [fp]
20007d9e:	9001      	str	r0, [sp, #4]
20007da0:	4298      	cmp	r0, r3
20007da2:	d343      	bcc.n	20007e2c <prvTimerTask+0x11c>
20007da4:	e9dd 2301 	ldrd	r2, r3, [sp, #4]
20007da8:	3b01      	subs	r3, #1
20007daa:	f8cb 2000 	str.w	r2, [fp]
20007dae:	2b08      	cmp	r3, #8
20007db0:	d8dc      	bhi.n	20007d6c <prvTimerTask+0x5c>
20007db2:	e8df f003 	tbb	[pc, r3]
20007db6:	6161      	.short	0x6161
20007db8:	61c7a5c0 	.word	0x61c7a5c0
20007dbc:	c061      	.short	0xc061
20007dbe:	a5          	.byte	0xa5
20007dbf:	00          	.byte	0x00
20007dc0:	f022 0201 	bic.w	r2, r2, #1
20007dc4:	f88a 2028 	strb.w	r2, [sl, #40]	@ 0x28
20007dc8:	4650      	mov	r0, sl
20007dca:	f8da 3020 	ldr.w	r3, [sl, #32]
20007dce:	4798      	blx	r3
20007dd0:	683b      	ldr	r3, [r7, #0]
20007dd2:	681a      	ldr	r2, [r3, #0]
20007dd4:	2a00      	cmp	r2, #0
20007dd6:	f000 80d9 	beq.w	20007f8c <prvTimerTask+0x27c>
20007dda:	68da      	ldr	r2, [r3, #12]
20007ddc:	f8d2 a00c 	ldr.w	sl, [r2, #12]
20007de0:	6814      	ldr	r4, [r2, #0]
20007de2:	f10a 0604 	add.w	r6, sl, #4
20007de6:	4630      	mov	r0, r6
20007de8:	f7fe fc94 	bl	20006714 <uxListRemove>
20007dec:	f89a 2028 	ldrb.w	r2, [sl, #40]	@ 0x28
20007df0:	0751      	lsls	r1, r2, #29
20007df2:	d5e5      	bpl.n	20007dc0 <prvTimerTask+0xb0>
20007df4:	e003      	b.n	20007dfe <prvTimerTask+0xee>
20007df6:	4650      	mov	r0, sl
20007df8:	f8da 2020 	ldr.w	r2, [sl, #32]
20007dfc:	4790      	blx	r2
20007dfe:	f8da 2018 	ldr.w	r2, [sl, #24]
20007e02:	f8ca a010 	str.w	sl, [sl, #16]
20007e06:	18a1      	adds	r1, r4, r2
20007e08:	18a4      	adds	r4, r4, r2
20007e0a:	f8ca 1004 	str.w	r1, [sl, #4]
20007e0e:	d3f2      	bcc.n	20007df6 <prvTimerTask+0xe6>
20007e10:	4631      	mov	r1, r6
20007e12:	f8d8 0000 	ldr.w	r0, [r8]
20007e16:	f7fe fc65 	bl	200066e4 <vListInsert>
20007e1a:	e7d5      	b.n	20007dc8 <prvTimerTask+0xb8>
20007e1c:	f021 0101 	bic.w	r1, r1, #1
20007e20:	f889 1028 	strb.w	r1, [r9, #40]	@ 0x28
20007e24:	4648      	mov	r0, r9
20007e26:	f8d9 3020 	ldr.w	r3, [r9, #32]
20007e2a:	4798      	blx	r3
20007e2c:	683b      	ldr	r3, [r7, #0]
20007e2e:	6819      	ldr	r1, [r3, #0]
20007e30:	2900      	cmp	r1, #0
20007e32:	f000 80b5 	beq.w	20007fa0 <prvTimerTask+0x290>
20007e36:	68d9      	ldr	r1, [r3, #12]
20007e38:	f8d1 900c 	ldr.w	r9, [r1, #12]
20007e3c:	680c      	ldr	r4, [r1, #0]
20007e3e:	f109 0604 	add.w	r6, r9, #4
20007e42:	4630      	mov	r0, r6
20007e44:	f7fe fc66 	bl	20006714 <uxListRemove>
20007e48:	f899 1028 	ldrb.w	r1, [r9, #40]	@ 0x28
20007e4c:	0748      	lsls	r0, r1, #29
20007e4e:	d5e5      	bpl.n	20007e1c <prvTimerTask+0x10c>
20007e50:	e003      	b.n	20007e5a <prvTimerTask+0x14a>
20007e52:	4648      	mov	r0, r9
20007e54:	f8d9 1020 	ldr.w	r1, [r9, #32]
20007e58:	4788      	blx	r1
20007e5a:	f8d9 1018 	ldr.w	r1, [r9, #24]
20007e5e:	f8c9 9010 	str.w	r9, [r9, #16]
20007e62:	1860      	adds	r0, r4, r1
20007e64:	1864      	adds	r4, r4, r1
20007e66:	f8c9 0004 	str.w	r0, [r9, #4]
20007e6a:	d3f2      	bcc.n	20007e52 <prvTimerTask+0x142>
20007e6c:	4631      	mov	r1, r6
20007e6e:	f8d8 0000 	ldr.w	r0, [r8]
20007e72:	f7fe fc37 	bl	200066e4 <vListInsert>
20007e76:	e7d5      	b.n	20007e24 <prvTimerTask+0x114>
20007e78:	f89a 0028 	ldrb.w	r0, [sl, #40]	@ 0x28
20007e7c:	9903      	ldr	r1, [sp, #12]
20007e7e:	f8da 4018 	ldr.w	r4, [sl, #24]
20007e82:	9a01      	ldr	r2, [sp, #4]
20007e84:	190b      	adds	r3, r1, r4
20007e86:	f040 0601 	orr.w	r6, r0, #1
20007e8a:	f88a 6028 	strb.w	r6, [sl, #40]	@ 0x28
20007e8e:	bf2c      	ite	cs
20007e90:	2601      	movcs	r6, #1
20007e92:	2600      	movcc	r6, #0
20007e94:	4293      	cmp	r3, r2
20007e96:	f8ca 3004 	str.w	r3, [sl, #4]
20007e9a:	f8ca a010 	str.w	sl, [sl, #16]
20007e9e:	f200 8088 	bhi.w	20007fb2 <prvTimerTask+0x2a2>
20007ea2:	1a51      	subs	r1, r2, r1
20007ea4:	428c      	cmp	r4, r1
20007ea6:	d83f      	bhi.n	20007f28 <prvTimerTask+0x218>
20007ea8:	0741      	lsls	r1, r0, #29
20007eaa:	d412      	bmi.n	20007ed2 <prvTimerTask+0x1c2>
20007eac:	f020 0001 	bic.w	r0, r0, #1
20007eb0:	f88a 0028 	strb.w	r0, [sl, #40]	@ 0x28
20007eb4:	4650      	mov	r0, sl
20007eb6:	f8da 3020 	ldr.w	r3, [sl, #32]
20007eba:	4798      	blx	r3
20007ebc:	e756      	b.n	20007d6c <prvTimerTask+0x5c>
20007ebe:	428c      	cmp	r4, r1
20007ec0:	f200 80c6 	bhi.w	20008050 <prvTimerTask+0x340>
20007ec4:	f8da 3020 	ldr.w	r3, [sl, #32]
20007ec8:	4650      	mov	r0, sl
20007eca:	4798      	blx	r3
20007ecc:	4633      	mov	r3, r6
20007ece:	f8da 4018 	ldr.w	r4, [sl, #24]
20007ed2:	9a01      	ldr	r2, [sp, #4]
20007ed4:	18e6      	adds	r6, r4, r3
20007ed6:	bf2c      	ite	cs
20007ed8:	2001      	movcs	r0, #1
20007eda:	2000      	movcc	r0, #0
20007edc:	42b2      	cmp	r2, r6
20007ede:	eba2 0103 	sub.w	r1, r2, r3
20007ee2:	f8ca 6004 	str.w	r6, [sl, #4]
20007ee6:	f8ca a010 	str.w	sl, [sl, #16]
20007eea:	d2e8      	bcs.n	20007ebe <prvTimerTask+0x1ae>
20007eec:	429a      	cmp	r2, r3
20007eee:	d201      	bcs.n	20007ef4 <prvTimerTask+0x1e4>
20007ef0:	2800      	cmp	r0, #0
20007ef2:	d0e7      	beq.n	20007ec4 <prvTimerTask+0x1b4>
20007ef4:	6838      	ldr	r0, [r7, #0]
20007ef6:	f10a 0104 	add.w	r1, sl, #4
20007efa:	f7fe fbf3 	bl	200066e4 <vListInsert>
20007efe:	e7d9      	b.n	20007eb4 <prvTimerTask+0x1a4>
20007f00:	9903      	ldr	r1, [sp, #12]
20007f02:	9a01      	ldr	r2, [sp, #4]
20007f04:	f89a 3028 	ldrb.w	r3, [sl, #40]	@ 0x28
20007f08:	1888      	adds	r0, r1, r2
20007f0a:	f043 0301 	orr.w	r3, r3, #1
20007f0e:	4290      	cmp	r0, r2
20007f10:	f88a 3028 	strb.w	r3, [sl, #40]	@ 0x28
20007f14:	f8ca 1018 	str.w	r1, [sl, #24]
20007f18:	f8ca 0004 	str.w	r0, [sl, #4]
20007f1c:	f8ca a010 	str.w	sl, [sl, #16]
20007f20:	d84c      	bhi.n	20007fbc <prvTimerTask+0x2ac>
20007f22:	2900      	cmp	r1, #0
20007f24:	f43f af22 	beq.w	20007d6c <prvTimerTask+0x5c>
20007f28:	f8d8 0000 	ldr.w	r0, [r8]
20007f2c:	f10a 0104 	add.w	r1, sl, #4
20007f30:	f7fe fbd8 	bl	200066e4 <vListInsert>
20007f34:	e71a      	b.n	20007d6c <prvTimerTask+0x5c>
20007f36:	f89a 3028 	ldrb.w	r3, [sl, #40]	@ 0x28
20007f3a:	f023 0301 	bic.w	r3, r3, #1
20007f3e:	f88a 3028 	strb.w	r3, [sl, #40]	@ 0x28
20007f42:	e713      	b.n	20007d6c <prvTimerTask+0x5c>
20007f44:	f89a 3028 	ldrb.w	r3, [sl, #40]	@ 0x28
20007f48:	079a      	lsls	r2, r3, #30
20007f4a:	d577      	bpl.n	2000803c <prvTimerTask+0x32c>
20007f4c:	f023 0301 	bic.w	r3, r3, #1
20007f50:	f88a 3028 	strb.w	r3, [sl, #40]	@ 0x28
20007f54:	e70a      	b.n	20007d6c <prvTimerTask+0x5c>
20007f56:	9b03      	ldr	r3, [sp, #12]
20007f58:	9905      	ldr	r1, [sp, #20]
20007f5a:	4798      	blx	r3
20007f5c:	9b02      	ldr	r3, [sp, #8]
20007f5e:	2b00      	cmp	r3, #0
20007f60:	f6ff af04 	blt.w	20007d6c <prvTimerTask+0x5c>
20007f64:	e70e      	b.n	20007d84 <prvTimerTask+0x74>
20007f66:	f7ff f9d9 	bl	2000731c <vTaskSuspendAll>
20007f6a:	f7ff f9df 	bl	2000732c <xTaskGetTickCount>
20007f6e:	f8db 3000 	ldr.w	r3, [fp]
20007f72:	4681      	mov	r9, r0
20007f74:	4298      	cmp	r0, r3
20007f76:	f4ff af2b 	bcc.w	20007dd0 <prvTimerTask+0xc0>
20007f7a:	f8d8 3000 	ldr.w	r3, [r8]
20007f7e:	f8cb 9000 	str.w	r9, [fp]
20007f82:	681a      	ldr	r2, [r3, #0]
20007f84:	fab2 f282 	clz	r2, r2
20007f88:	0952      	lsrs	r2, r2, #5
20007f8a:	e6e0      	b.n	20007d4e <prvTimerTask+0x3e>
20007f8c:	f8d8 2000 	ldr.w	r2, [r8]
20007f90:	f8cb 9000 	str.w	r9, [fp]
20007f94:	603a      	str	r2, [r7, #0]
20007f96:	f8c8 3000 	str.w	r3, [r8]
20007f9a:	f7ff faad 	bl	200074f8 <xTaskResumeAll>
20007f9e:	e6e0      	b.n	20007d62 <prvTimerTask+0x52>
20007fa0:	f8d8 1000 	ldr.w	r1, [r8]
20007fa4:	f8c8 3000 	str.w	r3, [r8]
20007fa8:	6039      	str	r1, [r7, #0]
20007faa:	e6fb      	b.n	20007da4 <prvTimerTask+0x94>
20007fac:	f7fd ffc6 	bl	20005f3c <vPortYield>
20007fb0:	e6d7      	b.n	20007d62 <prvTimerTask+0x52>
20007fb2:	4291      	cmp	r1, r2
20007fb4:	d902      	bls.n	20007fbc <prvTimerTask+0x2ac>
20007fb6:	2e00      	cmp	r6, #0
20007fb8:	f43f af76 	beq.w	20007ea8 <prvTimerTask+0x198>
20007fbc:	6838      	ldr	r0, [r7, #0]
20007fbe:	f10a 0104 	add.w	r1, sl, #4
20007fc2:	f7fe fb8f 	bl	200066e4 <vListInsert>
20007fc6:	e6d1      	b.n	20007d6c <prvTimerTask+0x5c>
20007fc8:	f7ff fa96 	bl	200074f8 <xTaskResumeAll>
20007fcc:	683b      	ldr	r3, [r7, #0]
20007fce:	68db      	ldr	r3, [r3, #12]
20007fd0:	68de      	ldr	r6, [r3, #12]
20007fd2:	1d33      	adds	r3, r6, #4
20007fd4:	4618      	mov	r0, r3
20007fd6:	9301      	str	r3, [sp, #4]
20007fd8:	f7fe fb9c 	bl	20006714 <uxListRemove>
20007fdc:	f896 2028 	ldrb.w	r2, [r6, #40]	@ 0x28
20007fe0:	0753      	lsls	r3, r2, #29
20007fe2:	d415      	bmi.n	20008010 <prvTimerTask+0x300>
20007fe4:	f022 0201 	bic.w	r2, r2, #1
20007fe8:	f886 2028 	strb.w	r2, [r6, #40]	@ 0x28
20007fec:	4630      	mov	r0, r6
20007fee:	6a33      	ldr	r3, [r6, #32]
20007ff0:	4798      	blx	r3
20007ff2:	e6b6      	b.n	20007d62 <prvTimerTask+0x52>
20007ff4:	2000f678 	.word	0x2000f678
20007ff8:	2001fa58 	.word	0x2001fa58
20007ffc:	2001fa00 	.word	0x2001fa00
20008000:	2000f684 	.word	0x2000f684
20008004:	4281      	cmp	r1, r0
20008006:	d81d      	bhi.n	20008044 <prvTimerTask+0x334>
20008008:	4630      	mov	r0, r6
2000800a:	6a31      	ldr	r1, [r6, #32]
2000800c:	4788      	blx	r1
2000800e:	4654      	mov	r4, sl
20008010:	69b1      	ldr	r1, [r6, #24]
20008012:	eba9 0004 	sub.w	r0, r9, r4
20008016:	eb14 0a01 	adds.w	sl, r4, r1
2000801a:	bf2c      	ite	cs
2000801c:	2301      	movcs	r3, #1
2000801e:	2300      	movcc	r3, #0
20008020:	45d1      	cmp	r9, sl
20008022:	f8c6 a004 	str.w	sl, [r6, #4]
20008026:	6136      	str	r6, [r6, #16]
20008028:	d2ec      	bcs.n	20008004 <prvTimerTask+0x2f4>
2000802a:	45a1      	cmp	r9, r4
2000802c:	d201      	bcs.n	20008032 <prvTimerTask+0x322>
2000802e:	2b00      	cmp	r3, #0
20008030:	d0ea      	beq.n	20008008 <prvTimerTask+0x2f8>
20008032:	9901      	ldr	r1, [sp, #4]
20008034:	6838      	ldr	r0, [r7, #0]
20008036:	f7fe fb55 	bl	200066e4 <vListInsert>
2000803a:	e7d7      	b.n	20007fec <prvTimerTask+0x2dc>
2000803c:	4650      	mov	r0, sl
2000803e:	f000 f8cb 	bl	200081d8 <vPortFree>
20008042:	e693      	b.n	20007d6c <prvTimerTask+0x5c>
20008044:	9901      	ldr	r1, [sp, #4]
20008046:	f8d8 0000 	ldr.w	r0, [r8]
2000804a:	f7fe fb4b 	bl	200066e4 <vListInsert>
2000804e:	e7cd      	b.n	20007fec <prvTimerTask+0x2dc>
20008050:	f8d8 0000 	ldr.w	r0, [r8]
20008054:	f10a 0104 	add.w	r1, sl, #4
20008058:	f7fe fb44 	bl	200066e4 <vListInsert>
2000805c:	e72a      	b.n	20007eb4 <prvTimerTask+0x1a4>
2000805e:	bf00      	nop

20008060 <xTimerCreateTimerTask>:
20008060:	b5f0      	push	{r4, r5, r6, r7, lr}
20008062:	4c17      	ldr	r4, [pc, #92]	@ (200080c0 <xTimerCreateTimerTask+0x60>)
20008064:	b083      	sub	sp, #12
20008066:	f7fd ff75 	bl	20005f54 <vPortEnterCritical>
2000806a:	6825      	ldr	r5, [r4, #0]
2000806c:	b185      	cbz	r5, 20008090 <xTimerCreateTimerTask+0x30>
2000806e:	f7fd ff7f 	bl	20005f70 <vPortExitCritical>
20008072:	6820      	ldr	r0, [r4, #0]
20008074:	b150      	cbz	r0, 2000808c <xTimerCreateTimerTask+0x2c>
20008076:	241f      	movs	r4, #31
20008078:	4812      	ldr	r0, [pc, #72]	@ (200080c4 <xTimerCreateTimerTask+0x64>)
2000807a:	2300      	movs	r3, #0
2000807c:	9001      	str	r0, [sp, #4]
2000807e:	f44f 6280 	mov.w	r2, #1024	@ 0x400
20008082:	4911      	ldr	r1, [pc, #68]	@ (200080c8 <xTimerCreateTimerTask+0x68>)
20008084:	4811      	ldr	r0, [pc, #68]	@ (200080cc <xTimerCreateTimerTask+0x6c>)
20008086:	9400      	str	r4, [sp, #0]
20008088:	f7ff f80c 	bl	200070a4 <xTaskCreate>
2000808c:	b003      	add	sp, #12
2000808e:	bdf0      	pop	{r4, r5, r6, r7, pc}
20008090:	4e0f      	ldr	r6, [pc, #60]	@ (200080d0 <xTimerCreateTimerTask+0x70>)
20008092:	4f10      	ldr	r7, [pc, #64]	@ (200080d4 <xTimerCreateTimerTask+0x74>)
20008094:	4630      	mov	r0, r6
20008096:	f7fe fb07 	bl	200066a8 <vListInitialise>
2000809a:	4638      	mov	r0, r7
2000809c:	f7fe fb04 	bl	200066a8 <vListInitialise>
200080a0:	4a0d      	ldr	r2, [pc, #52]	@ (200080d8 <xTimerCreateTimerTask+0x78>)
200080a2:	4b0e      	ldr	r3, [pc, #56]	@ (200080dc <xTimerCreateTimerTask+0x7c>)
200080a4:	6017      	str	r7, [r2, #0]
200080a6:	2110      	movs	r1, #16
200080a8:	462a      	mov	r2, r5
200080aa:	200a      	movs	r0, #10
200080ac:	601e      	str	r6, [r3, #0]
200080ae:	f7fe fc7d 	bl	200069ac <xQueueGenericCreate>
200080b2:	6020      	str	r0, [r4, #0]
200080b4:	2800      	cmp	r0, #0
200080b6:	d0da      	beq.n	2000806e <xTimerCreateTimerTask+0xe>
200080b8:	4909      	ldr	r1, [pc, #36]	@ (200080e0 <xTimerCreateTimerTask+0x80>)
200080ba:	f7fe fd81 	bl	20006bc0 <vQueueAddToRegistry>
200080be:	e7d6      	b.n	2000806e <xTimerCreateTimerTask+0xe>
200080c0:	2001fa58 	.word	0x2001fa58
200080c4:	2001fa5c 	.word	0x2001fa5c
200080c8:	200093d0 	.word	0x200093d0
200080cc:	20007d11 	.word	0x20007d11
200080d0:	2001f9a8 	.word	0x2001f9a8
200080d4:	2001f9bc 	.word	0x2001f9bc
200080d8:	2000f684 	.word	0x2000f684
200080dc:	2000f678 	.word	0x2000f678
200080e0:	200093c8 	.word	0x200093c8

200080e4 <xTimerPendFunctionCallFromISR>:
200080e4:	469c      	mov	ip, r3
200080e6:	b5f0      	push	{r4, r5, r6, r7, lr}
200080e8:	4607      	mov	r7, r0
200080ea:	460e      	mov	r6, r1
200080ec:	4615      	mov	r5, r2
200080ee:	f06f 0401 	mvn.w	r4, #1
200080f2:	4b07      	ldr	r3, [pc, #28]	@ (20008110 <xTimerPendFunctionCallFromISR+0x2c>)
200080f4:	b085      	sub	sp, #20
200080f6:	4669      	mov	r1, sp
200080f8:	4662      	mov	r2, ip
200080fa:	6818      	ldr	r0, [r3, #0]
200080fc:	2300      	movs	r3, #0
200080fe:	e9cd 7601 	strd	r7, r6, [sp, #4]
20008102:	9503      	str	r5, [sp, #12]
20008104:	9400      	str	r4, [sp, #0]
20008106:	f7fe fc91 	bl	20006a2c <xQueueGenericSendFromISR>
2000810a:	b005      	add	sp, #20
2000810c:	bdf0      	pop	{r4, r5, r6, r7, pc}
2000810e:	bf00      	nop
20008110:	2001fa58 	.word	0x2001fa58

20008114 <exception_set_exclusive_handler>:
20008114:	b5f8      	push	{r3, r4, r5, r6, r7, lr}
20008116:	4604      	mov	r4, r0
20008118:	460d      	mov	r5, r1
2000811a:	f3ef 8710 	mrs	r7, PRIMASK
2000811e:	b672      	cpsid	i
20008120:	4b0c      	ldr	r3, [pc, #48]	@ (20008154 <exception_set_exclusive_handler+0x40>)
20008122:	689b      	ldr	r3, [r3, #8]
20008124:	f853 6020 	ldr.w	r6, [r3, r0, lsl #2]
20008128:	42b1      	cmp	r1, r6
2000812a:	d004      	beq.n	20008136 <exception_set_exclusive_handler+0x22>
2000812c:	4b0a      	ldr	r3, [pc, #40]	@ (20008158 <exception_set_exclusive_handler+0x44>)
2000812e:	429e      	cmp	r6, r3
20008130:	d20b      	bcs.n	2000814a <exception_set_exclusive_handler+0x36>
20008132:	f7fa ff2d 	bl	20002f90 <hard_assertion_failure>
20008136:	4b07      	ldr	r3, [pc, #28]	@ (20008154 <exception_set_exclusive_handler+0x40>)
20008138:	689b      	ldr	r3, [r3, #8]
2000813a:	f843 5024 	str.w	r5, [r3, r4, lsl #2]
2000813e:	f3bf 8f5f 	dmb	sy
20008142:	f387 8810 	msr	PRIMASK, r7
20008146:	4630      	mov	r0, r6
20008148:	bdf8      	pop	{r3, r4, r5, r6, r7, pc}
2000814a:	4b04      	ldr	r3, [pc, #16]	@ (2000815c <exception_set_exclusive_handler+0x48>)
2000814c:	429e      	cmp	r6, r3
2000814e:	d3f2      	bcc.n	20008136 <exception_set_exclusive_handler+0x22>
20008150:	e7ef      	b.n	20008132 <exception_set_exclusive_handler+0x1e>
20008152:	bf00      	nop
20008154:	e000ed00 	.word	0xe000ed00
20008158:	10000110 	.word	0x10000110
2000815c:	10000124 	.word	0x10000124

20008160 <pvPortMalloc>:
20008160:	b538      	push	{r3, r4, r5, lr}
20008162:	f010 0307 	ands.w	r3, r0, #7
20008166:	4604      	mov	r4, r0
20008168:	d005      	beq.n	20008176 <pvPortMalloc+0x16>
2000816a:	f1a3 0209 	sub.w	r2, r3, #9
2000816e:	4282      	cmp	r2, r0
20008170:	d316      	bcc.n	200081a0 <pvPortMalloc+0x40>
20008172:	3408      	adds	r4, #8
20008174:	1ae4      	subs	r4, r4, r3
20008176:	f7ff f8d1 	bl	2000731c <vTaskSuspendAll>
2000817a:	4b14      	ldr	r3, [pc, #80]	@ (200081cc <pvPortMalloc+0x6c>)
2000817c:	681d      	ldr	r5, [r3, #0]
2000817e:	b1dd      	cbz	r5, 200081b8 <pvPortMalloc+0x58>
20008180:	b19c      	cbz	r4, 200081aa <pvPortMalloc+0x4a>
20008182:	4a13      	ldr	r2, [pc, #76]	@ (200081d0 <pvPortMalloc+0x70>)
20008184:	6813      	ldr	r3, [r2, #0]
20008186:	18e4      	adds	r4, r4, r3
20008188:	d20f      	bcs.n	200081aa <pvPortMalloc+0x4a>
2000818a:	f64f 71f7 	movw	r1, #65527	@ 0xfff7
2000818e:	428c      	cmp	r4, r1
20008190:	d80b      	bhi.n	200081aa <pvPortMalloc+0x4a>
20008192:	441d      	add	r5, r3
20008194:	6014      	str	r4, [r2, #0]
20008196:	f7ff f9af 	bl	200074f8 <xTaskResumeAll>
2000819a:	b145      	cbz	r5, 200081ae <pvPortMalloc+0x4e>
2000819c:	4628      	mov	r0, r5
2000819e:	bd38      	pop	{r3, r4, r5, pc}
200081a0:	f7ff f8bc 	bl	2000731c <vTaskSuspendAll>
200081a4:	4b09      	ldr	r3, [pc, #36]	@ (200081cc <pvPortMalloc+0x6c>)
200081a6:	681a      	ldr	r2, [r3, #0]
200081a8:	b15a      	cbz	r2, 200081c2 <pvPortMalloc+0x62>
200081aa:	f7ff f9a5 	bl	200074f8 <xTaskResumeAll>
200081ae:	2500      	movs	r5, #0
200081b0:	f7f8 f8f6 	bl	200003a0 <vApplicationMallocFailedHook>
200081b4:	4628      	mov	r0, r5
200081b6:	bd38      	pop	{r3, r4, r5, pc}
200081b8:	4d06      	ldr	r5, [pc, #24]	@ (200081d4 <pvPortMalloc+0x74>)
200081ba:	f025 0507 	bic.w	r5, r5, #7
200081be:	601d      	str	r5, [r3, #0]
200081c0:	e7de      	b.n	20008180 <pvPortMalloc+0x20>
200081c2:	4a04      	ldr	r2, [pc, #16]	@ (200081d4 <pvPortMalloc+0x74>)
200081c4:	f022 0207 	bic.w	r2, r2, #7
200081c8:	601a      	str	r2, [r3, #0]
200081ca:	e7ee      	b.n	200081aa <pvPortMalloc+0x4a>
200081cc:	2000f66c 	.word	0x2000f66c
200081d0:	2001fa04 	.word	0x2001fa04
200081d4:	2000f977 	.word	0x2000f977

200081d8 <vPortFree>:
200081d8:	4770      	bx	lr
200081da:	bf00      	nop

200081dc <__popcountsi2>:
200081dc:	0843      	lsrs	r3, r0, #1
200081de:	f003 3355 	and.w	r3, r3, #1431655765	@ 0x55555555
200081e2:	1ac0      	subs	r0, r0, r3
200081e4:	0883      	lsrs	r3, r0, #2
200081e6:	f000 3033 	and.w	r0, r0, #858993459	@ 0x33333333
200081ea:	f003 3333 	and.w	r3, r3, #858993459	@ 0x33333333
200081ee:	4418      	add	r0, r3
200081f0:	eb00 1010 	add.w	r0, r0, r0, lsr #4
200081f4:	f000 300f 	and.w	r0, r0, #252645135	@ 0xf0f0f0f
200081f8:	eb00 2000 	add.w	r0, r0, r0, lsl #8
200081fc:	eb00 4000 	add.w	r0, r0, r0, lsl #16
20008200:	0e00      	lsrs	r0, r0, #24
20008202:	4770      	bx	lr

20008204 <__paritysi2>:
20008204:	ea80 4310 	eor.w	r3, r0, r0, lsr #16
20008208:	f646 1296 	movw	r2, #27030	@ 0x6996
2000820c:	ea83 2313 	eor.w	r3, r3, r3, lsr #8
20008210:	ea83 1313 	eor.w	r3, r3, r3, lsr #4
20008214:	f003 030f 	and.w	r3, r3, #15
20008218:	fa42 f003 	asr.w	r0, r2, r3
2000821c:	f000 0001 	and.w	r0, r0, #1
20008220:	4770      	bx	lr
20008222:	bf00      	nop

20008224 <memset>:
20008224:	b570      	push	{r4, r5, r6, lr}
20008226:	0786      	lsls	r6, r0, #30
20008228:	d047      	beq.n	200082ba <memset+0x96>
2000822a:	1e54      	subs	r4, r2, #1
2000822c:	2a00      	cmp	r2, #0
2000822e:	d03e      	beq.n	200082ae <memset+0x8a>
20008230:	b2ca      	uxtb	r2, r1
20008232:	4603      	mov	r3, r0
20008234:	e001      	b.n	2000823a <memset+0x16>
20008236:	3c01      	subs	r4, #1
20008238:	d339      	bcc.n	200082ae <memset+0x8a>
2000823a:	f803 2b01 	strb.w	r2, [r3], #1
2000823e:	079d      	lsls	r5, r3, #30
20008240:	d1f9      	bne.n	20008236 <memset+0x12>
20008242:	2c03      	cmp	r4, #3
20008244:	d92c      	bls.n	200082a0 <memset+0x7c>
20008246:	b2cd      	uxtb	r5, r1
20008248:	2c0f      	cmp	r4, #15
2000824a:	eb05 2505 	add.w	r5, r5, r5, lsl #8
2000824e:	eb05 4505 	add.w	r5, r5, r5, lsl #16
20008252:	d935      	bls.n	200082c0 <memset+0x9c>
20008254:	f1a4 0c10 	sub.w	ip, r4, #16
20008258:	f103 0e10 	add.w	lr, r3, #16
2000825c:	461a      	mov	r2, r3
2000825e:	f02c 060f 	bic.w	r6, ip, #15
20008262:	ea4f 1c1c 	mov.w	ip, ip, lsr #4
20008266:	44b6      	add	lr, r6
20008268:	e9c2 5500 	strd	r5, r5, [r2]
2000826c:	e9c2 5502 	strd	r5, r5, [r2, #8]
20008270:	3210      	adds	r2, #16
20008272:	4572      	cmp	r2, lr
20008274:	d1f8      	bne.n	20008268 <memset+0x44>
20008276:	f10c 0201 	add.w	r2, ip, #1
2000827a:	f014 0f0c 	tst.w	r4, #12
2000827e:	f004 0c0f 	and.w	ip, r4, #15
20008282:	eb03 1202 	add.w	r2, r3, r2, lsl #4
20008286:	d013      	beq.n	200082b0 <memset+0x8c>
20008288:	f1ac 0304 	sub.w	r3, ip, #4
2000828c:	f023 0303 	bic.w	r3, r3, #3
20008290:	3304      	adds	r3, #4
20008292:	4413      	add	r3, r2
20008294:	f842 5b04 	str.w	r5, [r2], #4
20008298:	4293      	cmp	r3, r2
2000829a:	d1fb      	bne.n	20008294 <memset+0x70>
2000829c:	f00c 0403 	and.w	r4, ip, #3
200082a0:	b12c      	cbz	r4, 200082ae <memset+0x8a>
200082a2:	b2c9      	uxtb	r1, r1
200082a4:	441c      	add	r4, r3
200082a6:	f803 1b01 	strb.w	r1, [r3], #1
200082aa:	42a3      	cmp	r3, r4
200082ac:	d1fb      	bne.n	200082a6 <memset+0x82>
200082ae:	bd70      	pop	{r4, r5, r6, pc}
200082b0:	4664      	mov	r4, ip
200082b2:	4613      	mov	r3, r2
200082b4:	2c00      	cmp	r4, #0
200082b6:	d1f4      	bne.n	200082a2 <memset+0x7e>
200082b8:	e7f9      	b.n	200082ae <memset+0x8a>
200082ba:	4603      	mov	r3, r0
200082bc:	4614      	mov	r4, r2
200082be:	e7c0      	b.n	20008242 <memset+0x1e>
200082c0:	461a      	mov	r2, r3
200082c2:	46a4      	mov	ip, r4
200082c4:	e7e0      	b.n	20008288 <memset+0x64>
200082c6:	bf00      	nop

200082c8 <memcpy>:
200082c8:	4684      	mov	ip, r0
200082ca:	ea41 0300 	orr.w	r3, r1, r0
200082ce:	f013 0303 	ands.w	r3, r3, #3
200082d2:	d149      	bne.n	20008368 <memcpy+0xa0>
200082d4:	3a40      	subs	r2, #64	@ 0x40
200082d6:	d323      	bcc.n	20008320 <memcpy+0x58>
200082d8:	680b      	ldr	r3, [r1, #0]
200082da:	6003      	str	r3, [r0, #0]
200082dc:	684b      	ldr	r3, [r1, #4]
200082de:	6043      	str	r3, [r0, #4]
200082e0:	688b      	ldr	r3, [r1, #8]
200082e2:	6083      	str	r3, [r0, #8]
200082e4:	68cb      	ldr	r3, [r1, #12]
200082e6:	60c3      	str	r3, [r0, #12]
200082e8:	690b      	ldr	r3, [r1, #16]
200082ea:	6103      	str	r3, [r0, #16]
200082ec:	694b      	ldr	r3, [r1, #20]
200082ee:	6143      	str	r3, [r0, #20]
200082f0:	698b      	ldr	r3, [r1, #24]
200082f2:	6183      	str	r3, [r0, #24]
200082f4:	69cb      	ldr	r3, [r1, #28]
200082f6:	61c3      	str	r3, [r0, #28]
200082f8:	6a0b      	ldr	r3, [r1, #32]
200082fa:	6203      	str	r3, [r0, #32]
200082fc:	6a4b      	ldr	r3, [r1, #36]	@ 0x24
200082fe:	6243      	str	r3, [r0, #36]	@ 0x24
20008300:	6a8b      	ldr	r3, [r1, #40]	@ 0x28
20008302:	6283      	str	r3, [r0, #40]	@ 0x28
20008304:	6acb      	ldr	r3, [r1, #44]	@ 0x2c
20008306:	62c3      	str	r3, [r0, #44]	@ 0x2c
20008308:	6b0b      	ldr	r3, [r1, #48]	@ 0x30
2000830a:	6303      	str	r3, [r0, #48]	@ 0x30
2000830c:	6b4b      	ldr	r3, [r1, #52]	@ 0x34
2000830e:	6343      	str	r3, [r0, #52]	@ 0x34
20008310:	6b8b      	ldr	r3, [r1, #56]	@ 0x38
20008312:	6383      	str	r3, [r0, #56]	@ 0x38
20008314:	6bcb      	ldr	r3, [r1, #60]	@ 0x3c
20008316:	63c3      	str	r3, [r0, #60]	@ 0x3c
20008318:	3040      	adds	r0, #64	@ 0x40
2000831a:	3140      	adds	r1, #64	@ 0x40
2000831c:	3a40      	subs	r2, #64	@ 0x40
2000831e:	d2db      	bcs.n	200082d8 <memcpy+0x10>
20008320:	3230      	adds	r2, #48	@ 0x30
20008322:	d30b      	bcc.n	2000833c <memcpy+0x74>
20008324:	680b      	ldr	r3, [r1, #0]
20008326:	6003      	str	r3, [r0, #0]
20008328:	684b      	ldr	r3, [r1, #4]
2000832a:	6043      	str	r3, [r0, #4]
2000832c:	688b      	ldr	r3, [r1, #8]
2000832e:	6083      	str	r3, [r0, #8]
20008330:	68cb      	ldr	r3, [r1, #12]
20008332:	60c3      	str	r3, [r0, #12]
20008334:	3010      	adds	r0, #16
20008336:	3110      	adds	r1, #16
20008338:	3a10      	subs	r2, #16
2000833a:	d2f3      	bcs.n	20008324 <memcpy+0x5c>
2000833c:	320c      	adds	r2, #12
2000833e:	d305      	bcc.n	2000834c <memcpy+0x84>
20008340:	f851 3b04 	ldr.w	r3, [r1], #4
20008344:	f840 3b04 	str.w	r3, [r0], #4
20008348:	3a04      	subs	r2, #4
2000834a:	d2f9      	bcs.n	20008340 <memcpy+0x78>
2000834c:	3204      	adds	r2, #4
2000834e:	d008      	beq.n	20008362 <memcpy+0x9a>
20008350:	07d2      	lsls	r2, r2, #31
20008352:	bf1c      	itt	ne
20008354:	f811 3b01 	ldrbne.w	r3, [r1], #1
20008358:	f800 3b01 	strbne.w	r3, [r0], #1
2000835c:	d301      	bcc.n	20008362 <memcpy+0x9a>
2000835e:	880b      	ldrh	r3, [r1, #0]
20008360:	8003      	strh	r3, [r0, #0]
20008362:	4660      	mov	r0, ip
20008364:	4770      	bx	lr
20008366:	bf00      	nop
20008368:	2a08      	cmp	r2, #8
2000836a:	d313      	bcc.n	20008394 <memcpy+0xcc>
2000836c:	078b      	lsls	r3, r1, #30
2000836e:	d0b1      	beq.n	200082d4 <memcpy+0xc>
20008370:	f010 0303 	ands.w	r3, r0, #3
20008374:	d0ae      	beq.n	200082d4 <memcpy+0xc>
20008376:	f1c3 0304 	rsb	r3, r3, #4
2000837a:	1ad2      	subs	r2, r2, r3
2000837c:	07db      	lsls	r3, r3, #31
2000837e:	bf1c      	itt	ne
20008380:	f811 3b01 	ldrbne.w	r3, [r1], #1
20008384:	f800 3b01 	strbne.w	r3, [r0], #1
20008388:	d3a4      	bcc.n	200082d4 <memcpy+0xc>
2000838a:	f831 3b02 	ldrh.w	r3, [r1], #2
2000838e:	f820 3b02 	strh.w	r3, [r0], #2
20008392:	e79f      	b.n	200082d4 <memcpy+0xc>
20008394:	3a04      	subs	r2, #4
20008396:	d3d9      	bcc.n	2000834c <memcpy+0x84>
20008398:	3a01      	subs	r2, #1
2000839a:	f811 3b01 	ldrb.w	r3, [r1], #1
2000839e:	f800 3b01 	strb.w	r3, [r0], #1
200083a2:	d2f9      	bcs.n	20008398 <memcpy+0xd0>
200083a4:	780b      	ldrb	r3, [r1, #0]
200083a6:	7003      	strb	r3, [r0, #0]
200083a8:	784b      	ldrb	r3, [r1, #1]
200083aa:	7043      	strb	r3, [r0, #1]
200083ac:	788b      	ldrb	r3, [r1, #2]
200083ae:	7083      	strb	r3, [r0, #2]
200083b0:	4660      	mov	r0, ip
200083b2:	4770      	bx	lr

200083b4 <atexit>:
200083b4:	2300      	movs	r3, #0
200083b6:	4601      	mov	r1, r0
200083b8:	461a      	mov	r2, r3
200083ba:	4618      	mov	r0, r3
200083bc:	f000 b842 	b.w	20008444 <__register_exitproc>

200083c0 <strlen>:
200083c0:	f020 0103 	bic.w	r1, r0, #3
200083c4:	f010 0003 	ands.w	r0, r0, #3
200083c8:	f1c0 0000 	rsb	r0, r0, #0
200083cc:	f851 3b04 	ldr.w	r3, [r1], #4
200083d0:	f100 0c04 	add.w	ip, r0, #4
200083d4:	ea4f 0ccc 	mov.w	ip, ip, lsl #3
200083d8:	f06f 0200 	mvn.w	r2, #0
200083dc:	bf1c      	itt	ne
200083de:	fa22 f20c 	lsrne.w	r2, r2, ip
200083e2:	4313      	orrne	r3, r2
200083e4:	f04f 0c01 	mov.w	ip, #1
200083e8:	ea4c 2c0c 	orr.w	ip, ip, ip, lsl #8
200083ec:	ea4c 4c0c 	orr.w	ip, ip, ip, lsl #16
200083f0:	eba3 020c 	sub.w	r2, r3, ip
200083f4:	ea22 0203 	bic.w	r2, r2, r3
200083f8:	ea12 12cc 	ands.w	r2, r2, ip, lsl #7
200083fc:	bf04      	itt	eq
200083fe:	f851 3b04 	ldreq.w	r3, [r1], #4
20008402:	3004      	addeq	r0, #4
20008404:	d0f4      	beq.n	200083f0 <strlen+0x30>
20008406:	f1c2 0100 	rsb	r1, r2, #0
2000840a:	ea02 0201 	and.w	r2, r2, r1
2000840e:	fab2 f282 	clz	r2, r2
20008412:	f1c2 021f 	rsb	r2, r2, #31
20008416:	eb00 00d2 	add.w	r0, r0, r2, lsr #3
2000841a:	4770      	bx	lr

2000841c <__libc_fini_array>:
2000841c:	b538      	push	{r3, r4, r5, lr}
2000841e:	4d07      	ldr	r5, [pc, #28]	@ (2000843c <__libc_fini_array+0x20>)
20008420:	4c07      	ldr	r4, [pc, #28]	@ (20008440 <__libc_fini_array+0x24>)
20008422:	1b2c      	subs	r4, r5, r4
20008424:	10a4      	asrs	r4, r4, #2
20008426:	d005      	beq.n	20008434 <__libc_fini_array+0x18>
20008428:	3c01      	subs	r4, #1
2000842a:	f855 3d04 	ldr.w	r3, [r5, #-4]!
2000842e:	4798      	blx	r3
20008430:	2c00      	cmp	r4, #0
20008432:	d1f9      	bne.n	20008428 <__libc_fini_array+0xc>
20008434:	e8bd 4038 	ldmia.w	sp!, {r3, r4, r5, lr}
20008438:	f000 b840 	b.w	200084bc <_fini>
2000843c:	200097e4 	.word	0x200097e4
20008440:	200097e4 	.word	0x200097e4

20008444 <__register_exitproc>:
20008444:	b470      	push	{r4, r5, r6}
20008446:	4d16      	ldr	r5, [pc, #88]	@ (200084a0 <__register_exitproc+0x5c>)
20008448:	682c      	ldr	r4, [r5, #0]
2000844a:	b31c      	cbz	r4, 20008494 <__register_exitproc+0x50>
2000844c:	6865      	ldr	r5, [r4, #4]
2000844e:	2d1f      	cmp	r5, #31
20008450:	dc23      	bgt.n	2000849a <__register_exitproc+0x56>
20008452:	b938      	cbnz	r0, 20008464 <__register_exitproc+0x20>
20008454:	1c6b      	adds	r3, r5, #1
20008456:	2000      	movs	r0, #0
20008458:	3502      	adds	r5, #2
2000845a:	6063      	str	r3, [r4, #4]
2000845c:	f844 1025 	str.w	r1, [r4, r5, lsl #2]
20008460:	bc70      	pop	{r4, r5, r6}
20008462:	4770      	bx	lr
20008464:	eb04 0c85 	add.w	ip, r4, r5, lsl #2
20008468:	2802      	cmp	r0, #2
2000846a:	f8cc 2088 	str.w	r2, [ip, #136]	@ 0x88
2000846e:	f04f 0201 	mov.w	r2, #1
20008472:	f8d4 6188 	ldr.w	r6, [r4, #392]	@ 0x188
20008476:	fa02 f205 	lsl.w	r2, r2, r5
2000847a:	ea46 0602 	orr.w	r6, r6, r2
2000847e:	f8c4 6188 	str.w	r6, [r4, #392]	@ 0x188
20008482:	f8cc 3108 	str.w	r3, [ip, #264]	@ 0x108
20008486:	d1e5      	bne.n	20008454 <__register_exitproc+0x10>
20008488:	f8d4 318c 	ldr.w	r3, [r4, #396]	@ 0x18c
2000848c:	4313      	orrs	r3, r2
2000848e:	f8c4 318c 	str.w	r3, [r4, #396]	@ 0x18c
20008492:	e7df      	b.n	20008454 <__register_exitproc+0x10>
20008494:	4c03      	ldr	r4, [pc, #12]	@ (200084a4 <__register_exitproc+0x60>)
20008496:	602c      	str	r4, [r5, #0]
20008498:	e7d8      	b.n	2000844c <__register_exitproc+0x8>
2000849a:	f04f 30ff 	mov.w	r0, #4294967295	@ 0xffffffff
2000849e:	e7df      	b.n	20008460 <__register_exitproc+0x1c>
200084a0:	2000abdc 	.word	0x2000abdc
200084a4:	2000aa4c 	.word	0x2000aa4c

200084a8 <register_fini>:
200084a8:	4b02      	ldr	r3, [pc, #8]	@ (200084b4 <register_fini+0xc>)
200084aa:	b113      	cbz	r3, 200084b2 <register_fini+0xa>
200084ac:	4802      	ldr	r0, [pc, #8]	@ (200084b8 <register_fini+0x10>)
200084ae:	f7ff bf81 	b.w	200083b4 <atexit>
200084b2:	4770      	bx	lr
200084b4:	00000000 	.word	0x00000000
200084b8:	2000841d 	.word	0x2000841d

200084bc <_fini>:
200084bc:	b5f8      	push	{r3, r4, r5, r6, r7, lr}
200084be:	bf00      	nop

Disassembly of section .data:

200084c0 <mutex_try_enter_block_until>:
200084c0:	e92d 41f0 	stmdb	sp!, {r4, r5, r6, r7, r8, lr}
200084c4:	461f      	mov	r7, r3
200084c6:	4604      	mov	r4, r0
200084c8:	4616      	mov	r6, r2
200084ca:	6803      	ldr	r3, [r0, #0]
200084cc:	f3ef 8810 	mrs	r8, PRIMASK
200084d0:	b672      	cpsid	i
200084d2:	e8d3 1fcf 	ldaexb	r1, [r3]
200084d6:	2201      	movs	r2, #1
200084d8:	2900      	cmp	r1, #0
200084da:	d1fa      	bne.n	200084d2 <mutex_try_enter_block_until+0x12>
200084dc:	e8c3 2f41 	strexb	r1, r2, [r3]
200084e0:	2900      	cmp	r1, #0
200084e2:	d1f6      	bne.n	200084d2 <mutex_try_enter_block_until+0x12>
200084e4:	f3bf 8f5f 	dmb	sy
200084e8:	6845      	ldr	r5, [r0, #4]
200084ea:	1c6b      	adds	r3, r5, #1
200084ec:	d00c      	beq.n	20008508 <mutex_try_enter_block_until+0x48>
200084ee:	2300      	movs	r3, #0
200084f0:	6802      	ldr	r2, [r0, #0]
200084f2:	e8c2 3f8f 	stlb	r3, [r2]
200084f6:	f388 8810 	msr	PRIMASK, r8
200084fa:	f7fd fe2f 	bl	2000615c <ulPortLockGetCurrentOwnerId>
200084fe:	42a8      	cmp	r0, r5
20008500:	d10d      	bne.n	2000851e <mutex_try_enter_block_until+0x5e>
20008502:	2000      	movs	r0, #0
20008504:	e8bd 81f0 	ldmia.w	sp!, {r4, r5, r6, r7, r8, pc}
20008508:	f7fd fe28 	bl	2000615c <ulPortLockGetCurrentOwnerId>
2000850c:	2300      	movs	r3, #0
2000850e:	6822      	ldr	r2, [r4, #0]
20008510:	6060      	str	r0, [r4, #4]
20008512:	e8c2 3f8f 	stlb	r3, [r2]
20008516:	f388 8810 	msr	PRIMASK, r8
2000851a:	2001      	movs	r0, #1
2000851c:	e7f2      	b.n	20008504 <mutex_try_enter_block_until+0x44>
2000851e:	f7fd fe1d 	bl	2000615c <ulPortLockGetCurrentOwnerId>
20008522:	4680      	mov	r8, r0
20008524:	e006      	b.n	20008534 <mutex_try_enter_block_until+0x74>
20008526:	4632      	mov	r2, r6
20008528:	463b      	mov	r3, r7
2000852a:	4620      	mov	r0, r4
2000852c:	f7fd fea6 	bl	2000627c <xPortLockInternalSpinUnlockWithBestEffortWaitOrTimeout>
20008530:	2800      	cmp	r0, #0
20008532:	d1e6      	bne.n	20008502 <mutex_try_enter_block_until+0x42>
20008534:	6825      	ldr	r5, [r4, #0]
20008536:	f3ef 8110 	mrs	r1, PRIMASK
2000853a:	b672      	cpsid	i
2000853c:	e8d5 2fcf 	ldaexb	r2, [r5]
20008540:	2301      	movs	r3, #1
20008542:	2a00      	cmp	r2, #0
20008544:	d1fa      	bne.n	2000853c <mutex_try_enter_block_until+0x7c>
20008546:	e8c5 3f42 	strexb	r2, r3, [r5]
2000854a:	2a00      	cmp	r2, #0
2000854c:	d1f6      	bne.n	2000853c <mutex_try_enter_block_until+0x7c>
2000854e:	f3bf 8f5f 	dmb	sy
20008552:	6863      	ldr	r3, [r4, #4]
20008554:	3301      	adds	r3, #1
20008556:	d1e6      	bne.n	20008526 <mutex_try_enter_block_until+0x66>
20008558:	2300      	movs	r3, #0
2000855a:	6822      	ldr	r2, [r4, #0]
2000855c:	f8c4 8004 	str.w	r8, [r4, #4]
20008560:	e8c2 3f8f 	stlb	r3, [r2]
20008564:	f381 8810 	msr	PRIMASK, r1
20008568:	e7d7      	b.n	2000851a <mutex_try_enter_block_until+0x5a>
2000856a:	bf00      	nop

2000856c <mutex_enter_timeout_ms>:
2000856c:	b5f8      	push	{r3, r4, r5, r6, r7, lr}
2000856e:	460f      	mov	r7, r1
20008570:	4604      	mov	r4, r0
20008572:	f7f9 fec3 	bl	200022fc <time_us_64>
20008576:	f44f 737a 	mov.w	r3, #1000	@ 0x3e8
2000857a:	4605      	mov	r5, r0
2000857c:	f04f 3cff 	mov.w	ip, #4294967295	@ 0xffffffff
20008580:	f06f 4200 	mvn.w	r2, #2147483648	@ 0x80000000
20008584:	fbe7 5103 	umlal	r5, r1, r7, r3
20008588:	45ac      	cmp	ip, r5
2000858a:	eb72 0301 	sbcs.w	r3, r2, r1
2000858e:	bf3a      	itte	cc
20008590:	4665      	movcc	r5, ip
20008592:	4616      	movcc	r6, r2
20008594:	460e      	movcs	r6, r1
20008596:	f7fd fde1 	bl	2000615c <ulPortLockGetCurrentOwnerId>
2000859a:	4607      	mov	r7, r0
2000859c:	e005      	b.n	200085aa <mutex_enter_timeout_ms+0x3e>
2000859e:	462a      	mov	r2, r5
200085a0:	4633      	mov	r3, r6
200085a2:	4620      	mov	r0, r4
200085a4:	f7fd fe6a 	bl	2000627c <xPortLockInternalSpinUnlockWithBestEffortWaitOrTimeout>
200085a8:	b9d0      	cbnz	r0, 200085e0 <mutex_enter_timeout_ms+0x74>
200085aa:	6823      	ldr	r3, [r4, #0]
200085ac:	f3ef 8110 	mrs	r1, PRIMASK
200085b0:	b672      	cpsid	i
200085b2:	e8d3 0fcf 	ldaexb	r0, [r3]
200085b6:	2201      	movs	r2, #1
200085b8:	2800      	cmp	r0, #0
200085ba:	d1fa      	bne.n	200085b2 <mutex_enter_timeout_ms+0x46>
200085bc:	e8c3 2f40 	strexb	r0, r2, [r3]
200085c0:	2800      	cmp	r0, #0
200085c2:	d1f6      	bne.n	200085b2 <mutex_enter_timeout_ms+0x46>
200085c4:	f3bf 8f5f 	dmb	sy
200085c8:	6863      	ldr	r3, [r4, #4]
200085ca:	3301      	adds	r3, #1
200085cc:	d1e7      	bne.n	2000859e <mutex_enter_timeout_ms+0x32>
200085ce:	2300      	movs	r3, #0
200085d0:	6822      	ldr	r2, [r4, #0]
200085d2:	6067      	str	r7, [r4, #4]
200085d4:	e8c2 3f8f 	stlb	r3, [r2]
200085d8:	f381 8810 	msr	PRIMASK, r1
200085dc:	2001      	movs	r0, #1
200085de:	bdf8      	pop	{r3, r4, r5, r6, r7, pc}
200085e0:	2000      	movs	r0, #0
200085e2:	bdf8      	pop	{r3, r4, r5, r6, r7, pc}

200085e4 <mutex_exit>:
200085e4:	b500      	push	{lr}
200085e6:	6802      	ldr	r2, [r0, #0]
200085e8:	f3ef 8110 	mrs	r1, PRIMASK
200085ec:	b672      	cpsid	i
200085ee:	e8d2 efcf 	ldaexb	lr, [r2]
200085f2:	f05f 0c01 	movs.w	ip, #1
200085f6:	f1be 0f00 	cmp.w	lr, #0
200085fa:	d1f8      	bne.n	200085ee <mutex_exit+0xa>
200085fc:	e8c2 cf4e 	strexb	lr, ip, [r2]
20008600:	f1be 0f00 	cmp.w	lr, #0
20008604:	d1f3      	bne.n	200085ee <mutex_exit+0xa>
20008606:	f3bf 8f5f 	dmb	sy
2000860a:	f04f 32ff 	mov.w	r2, #4294967295	@ 0xffffffff
2000860e:	f85d eb04 	ldr.w	lr, [sp], #4
20008612:	6042      	str	r2, [r0, #4]
20008614:	f7fd bdb6 	b.w	20006184 <vPortLockInternalSpinUnlockWithNotify>

20008618 <reset_non_control_endpoints>:
20008618:	2100      	movs	r1, #0
2000861a:	b508      	push	{r3, lr}
2000861c:	4b13      	ldr	r3, [pc, #76]	@ (2000866c <reset_non_control_endpoints+0x54>)
2000861e:	f44f 7270 	mov.w	r2, #960	@ 0x3c0
20008622:	6099      	str	r1, [r3, #8]
20008624:	4812      	ldr	r0, [pc, #72]	@ (20008670 <reset_non_control_endpoints+0x58>)
20008626:	60d9      	str	r1, [r3, #12]
20008628:	6119      	str	r1, [r3, #16]
2000862a:	6159      	str	r1, [r3, #20]
2000862c:	6199      	str	r1, [r3, #24]
2000862e:	61d9      	str	r1, [r3, #28]
20008630:	6219      	str	r1, [r3, #32]
20008632:	6259      	str	r1, [r3, #36]	@ 0x24
20008634:	6299      	str	r1, [r3, #40]	@ 0x28
20008636:	62d9      	str	r1, [r3, #44]	@ 0x2c
20008638:	6319      	str	r1, [r3, #48]	@ 0x30
2000863a:	6359      	str	r1, [r3, #52]	@ 0x34
2000863c:	6399      	str	r1, [r3, #56]	@ 0x38
2000863e:	63d9      	str	r1, [r3, #60]	@ 0x3c
20008640:	6419      	str	r1, [r3, #64]	@ 0x40
20008642:	6459      	str	r1, [r3, #68]	@ 0x44
20008644:	6499      	str	r1, [r3, #72]	@ 0x48
20008646:	64d9      	str	r1, [r3, #76]	@ 0x4c
20008648:	6519      	str	r1, [r3, #80]	@ 0x50
2000864a:	6559      	str	r1, [r3, #84]	@ 0x54
2000864c:	6599      	str	r1, [r3, #88]	@ 0x58
2000864e:	65d9      	str	r1, [r3, #92]	@ 0x5c
20008650:	6619      	str	r1, [r3, #96]	@ 0x60
20008652:	6659      	str	r1, [r3, #100]	@ 0x64
20008654:	6699      	str	r1, [r3, #104]	@ 0x68
20008656:	66d9      	str	r1, [r3, #108]	@ 0x6c
20008658:	6719      	str	r1, [r3, #112]	@ 0x70
2000865a:	6759      	str	r1, [r3, #116]	@ 0x74
2000865c:	6799      	str	r1, [r3, #120]	@ 0x78
2000865e:	67d9      	str	r1, [r3, #124]	@ 0x7c
20008660:	f7ff fde0 	bl	20008224 <memset>
20008664:	4b03      	ldr	r3, [pc, #12]	@ (20008674 <reset_non_control_endpoints+0x5c>)
20008666:	4a04      	ldr	r2, [pc, #16]	@ (20008678 <reset_non_control_endpoints+0x60>)
20008668:	601a      	str	r2, [r3, #0]
2000866a:	bd08      	pop	{r3, pc}
2000866c:	50100000 	.word	0x50100000
20008670:	2000f278 	.word	0x2000f278
20008674:	2000f640 	.word	0x2000f640
20008678:	50100180 	.word	0x50100180

2000867c <hw_handle_buff_status>:
2000867c:	e92d 4ff0 	stmdb	sp!, {r4, r5, r6, r7, r8, r9, sl, fp, lr}
20008680:	4b20      	ldr	r3, [pc, #128]	@ (20008704 <hw_handle_buff_status+0x88>)
20008682:	b085      	sub	sp, #20
20008684:	6d9e      	ldr	r6, [r3, #88]	@ 0x58
20008686:	b30e      	cbz	r6, 200086cc <hw_handle_buff_status+0x50>
20008688:	2400      	movs	r4, #0
2000868a:	2501      	movs	r5, #1
2000868c:	4f1e      	ldr	r7, [pc, #120]	@ (20008708 <hw_handle_buff_status+0x8c>)
2000868e:	e001      	b.n	20008694 <hw_handle_buff_status+0x18>
20008690:	2c20      	cmp	r4, #32
20008692:	d01b      	beq.n	200086cc <hw_handle_buff_status+0x50>
20008694:	ea06 0305 	and.w	r3, r6, r5
20008698:	1c62      	adds	r2, r4, #1
2000869a:	4621      	mov	r1, r4
2000869c:	46aa      	mov	sl, r5
2000869e:	b2d4      	uxtb	r4, r2
200086a0:	006d      	lsls	r5, r5, #1
200086a2:	2b00      	cmp	r3, #0
200086a4:	d0f4      	beq.n	20008690 <hw_handle_buff_status+0x14>
200086a6:	2302      	movs	r3, #2
200086a8:	f004 0801 	and.w	r8, r4, #1
200086ac:	ea4f 0951 	mov.w	r9, r1, lsr #1
200086b0:	fb13 8b09 	smlabb	fp, r3, r9, r8
200086b4:	4b15      	ldr	r3, [pc, #84]	@ (2000870c <hw_handle_buff_status+0x90>)
200086b6:	eb07 1b4b 	add.w	fp, r7, fp, lsl #5
200086ba:	4658      	mov	r0, fp
200086bc:	f8c3 a058 	str.w	sl, [r3, #88]	@ 0x58
200086c0:	f000 fc10 	bl	20008ee4 <hw_endpoint_xfer_continue>
200086c4:	b928      	cbnz	r0, 200086d2 <hw_handle_buff_status+0x56>
200086c6:	ea36 060a 	bics.w	r6, r6, sl
200086ca:	d1e1      	bne.n	20008690 <hw_handle_buff_status+0x14>
200086cc:	b005      	add	sp, #20
200086ce:	e8bd 8ff0 	ldmia.w	sp!, {r4, r5, r6, r7, r8, r9, sl, fp, pc}
200086d2:	f44f 62e0 	mov.w	r2, #1792	@ 0x700
200086d6:	f8ad 2004 	strh.w	r2, [sp, #4]
200086da:	2200      	movs	r2, #0
200086dc:	eb08 0349 	add.w	r3, r8, r9, lsl #1
200086e0:	eb07 1343 	add.w	r3, r7, r3, lsl #5
200086e4:	f88d 2009 	strb.w	r2, [sp, #9]
200086e8:	789a      	ldrb	r2, [r3, #2]
200086ea:	8adb      	ldrh	r3, [r3, #22]
200086ec:	a801      	add	r0, sp, #4
200086ee:	2101      	movs	r1, #1
200086f0:	f88d 2008 	strb.w	r2, [sp, #8]
200086f4:	9303      	str	r3, [sp, #12]
200086f6:	f000 fc13 	bl	20008f20 <dcd_event_handler>
200086fa:	4658      	mov	r0, fp
200086fc:	f000 fb98 	bl	20008e30 <hw_endpoint_reset_transfer>
20008700:	e7e1      	b.n	200086c6 <hw_handle_buff_status+0x4a>
20008702:	bf00      	nop
20008704:	50110000 	.word	0x50110000
20008708:	2000f238 	.word	0x2000f238
2000870c:	50113000 	.word	0x50113000

20008710 <dcd_rp2040_irq>:
20008710:	b5f0      	push	{r4, r5, r6, r7, lr}
20008712:	4bb4      	ldr	r3, [pc, #720]	@ (200089e4 <dcd_rp2040_irq+0x2d4>)
20008714:	b085      	sub	sp, #20
20008716:	f8d3 5098 	ldr.w	r5, [r3, #152]	@ 0x98
2000871a:	f415 3600 	ands.w	r6, r5, #131072	@ 0x20000
2000871e:	d074      	beq.n	2000880a <dcd_rp2040_irq+0xfa>
20008720:	4bb1      	ldr	r3, [pc, #708]	@ (200089e8 <dcd_rp2040_irq+0x2d8>)
20008722:	4cb2      	ldr	r4, [pc, #712]	@ (200089ec <dcd_rp2040_irq+0x2dc>)
20008724:	6a99      	ldr	r1, [r3, #40]	@ 0x28
20008726:	f894 303b 	ldrb.w	r3, [r4, #59]	@ 0x3b
2000872a:	4ab1      	ldr	r2, [pc, #708]	@ (200089f0 <dcd_rp2040_irq+0x2e0>)
2000872c:	2b02      	cmp	r3, #2
2000872e:	6011      	str	r1, [r2, #0]
20008730:	f000 80fd 	beq.w	2000892e <dcd_rp2040_irq+0x21e>
20008734:	2600      	movs	r6, #0
20008736:	f894 307b 	ldrb.w	r3, [r4, #123]	@ 0x7b
2000873a:	2b02      	cmp	r3, #2
2000873c:	f000 81d8 	beq.w	20008af0 <dcd_rp2040_irq+0x3e0>
20008740:	f894 30bb 	ldrb.w	r3, [r4, #187]	@ 0xbb
20008744:	2b02      	cmp	r3, #2
20008746:	f000 81c9 	beq.w	20008adc <dcd_rp2040_irq+0x3cc>
2000874a:	f894 30fb 	ldrb.w	r3, [r4, #251]	@ 0xfb
2000874e:	2b02      	cmp	r3, #2
20008750:	f000 81ba 	beq.w	20008ac8 <dcd_rp2040_irq+0x3b8>
20008754:	f894 313b 	ldrb.w	r3, [r4, #315]	@ 0x13b
20008758:	2b02      	cmp	r3, #2
2000875a:	f000 81aa 	beq.w	20008ab2 <dcd_rp2040_irq+0x3a2>
2000875e:	f894 317b 	ldrb.w	r3, [r4, #379]	@ 0x17b
20008762:	2b02      	cmp	r3, #2
20008764:	f000 819a 	beq.w	20008a9c <dcd_rp2040_irq+0x38c>
20008768:	f894 31bb 	ldrb.w	r3, [r4, #443]	@ 0x1bb
2000876c:	2b02      	cmp	r3, #2
2000876e:	f000 818a 	beq.w	20008a86 <dcd_rp2040_irq+0x376>
20008772:	f894 31fb 	ldrb.w	r3, [r4, #507]	@ 0x1fb
20008776:	2b02      	cmp	r3, #2
20008778:	f000 817a 	beq.w	20008a70 <dcd_rp2040_irq+0x360>
2000877c:	f894 323b 	ldrb.w	r3, [r4, #571]	@ 0x23b
20008780:	2b02      	cmp	r3, #2
20008782:	f000 8169 	beq.w	20008a58 <dcd_rp2040_irq+0x348>
20008786:	f894 327b 	ldrb.w	r3, [r4, #635]	@ 0x27b
2000878a:	2b02      	cmp	r3, #2
2000878c:	f000 8158 	beq.w	20008a40 <dcd_rp2040_irq+0x330>
20008790:	f894 32bb 	ldrb.w	r3, [r4, #699]	@ 0x2bb
20008794:	2b02      	cmp	r3, #2
20008796:	f000 8147 	beq.w	20008a28 <dcd_rp2040_irq+0x318>
2000879a:	f894 32fb 	ldrb.w	r3, [r4, #763]	@ 0x2fb
2000879e:	2b02      	cmp	r3, #2
200087a0:	f000 8136 	beq.w	20008a10 <dcd_rp2040_irq+0x300>
200087a4:	f894 333b 	ldrb.w	r3, [r4, #827]	@ 0x33b
200087a8:	2b02      	cmp	r3, #2
200087aa:	f000 810e 	beq.w	200089ca <dcd_rp2040_irq+0x2ba>
200087ae:	f894 337b 	ldrb.w	r3, [r4, #891]	@ 0x37b
200087b2:	2b02      	cmp	r3, #2
200087b4:	f000 80cd 	beq.w	20008952 <dcd_rp2040_irq+0x242>
200087b8:	f894 33bb 	ldrb.w	r3, [r4, #955]	@ 0x3bb
200087bc:	2b02      	cmp	r3, #2
200087be:	f000 80f0 	beq.w	200089a2 <dcd_rp2040_irq+0x292>
200087c2:	f894 33fb 	ldrb.w	r3, [r4, #1019]	@ 0x3fb
200087c6:	2b02      	cmp	r3, #2
200087c8:	f000 80da 	beq.w	20008980 <dcd_rp2040_irq+0x270>
200087cc:	b93e      	cbnz	r6, 200087de <dcd_rp2040_irq+0xce>
200087ce:	4b89      	ldr	r3, [pc, #548]	@ (200089f4 <dcd_rp2040_irq+0x2e4>)
200087d0:	781b      	ldrb	r3, [r3, #0]
200087d2:	b923      	cbnz	r3, 200087de <dcd_rp2040_irq+0xce>
200087d4:	f44f 3200 	mov.w	r2, #131072	@ 0x20000
200087d8:	4b87      	ldr	r3, [pc, #540]	@ (200089f8 <dcd_rp2040_irq+0x2e8>)
200087da:	f8c3 2090 	str.w	r2, [r3, #144]	@ 0x90
200087de:	f44f 7240 	mov.w	r2, #768	@ 0x300
200087e2:	4b80      	ldr	r3, [pc, #512]	@ (200089e4 <dcd_rp2040_irq+0x2d4>)
200087e4:	2101      	movs	r1, #1
200087e6:	6c9b      	ldr	r3, [r3, #72]	@ 0x48
200087e8:	a801      	add	r0, sp, #4
200087ea:	f3c3 030a 	ubfx	r3, r3, #0, #11
200087ee:	9302      	str	r3, [sp, #8]
200087f0:	f8ad 2004 	strh.w	r2, [sp, #4]
200087f4:	f000 fb94 	bl	20008f20 <dcd_event_handler>
200087f8:	06e9      	lsls	r1, r5, #27
200087fa:	f44f 3600 	mov.w	r6, #131072	@ 0x20000
200087fe:	4c7f      	ldr	r4, [pc, #508]	@ (200089fc <dcd_rp2040_irq+0x2ec>)
20008800:	d507      	bpl.n	20008812 <dcd_rp2040_irq+0x102>
20008802:	f7ff ff3b 	bl	2000867c <hw_handle_buff_status>
20008806:	4626      	mov	r6, r4
20008808:	e003      	b.n	20008812 <dcd_rp2040_irq+0x102>
2000880a:	06e9      	lsls	r1, r5, #27
2000880c:	f04f 0410 	mov.w	r4, #16
20008810:	d4f7      	bmi.n	20008802 <dcd_rp2040_irq+0xf2>
20008812:	03ea      	lsls	r2, r5, #15
20008814:	d532      	bpl.n	2000887c <dcd_rp2040_irq+0x16c>
20008816:	4c75      	ldr	r4, [pc, #468]	@ (200089ec <dcd_rp2040_irq+0x2dc>)
20008818:	f446 3680 	orr.w	r6, r6, #65536	@ 0x10000
2000881c:	7ea3      	ldrb	r3, [r4, #26]
2000881e:	b19b      	cbz	r3, 20008848 <dcd_rp2040_irq+0x138>
20008820:	2102      	movs	r1, #2
20008822:	4b77      	ldr	r3, [pc, #476]	@ (20008a00 <dcd_rp2040_irq+0x2f0>)
20008824:	4a6f      	ldr	r2, [pc, #444]	@ (200089e4 <dcd_rp2040_irq+0x2d4>)
20008826:	6619      	str	r1, [r3, #96]	@ 0x60
20008828:	6e53      	ldr	r3, [r2, #100]	@ 0x64
2000882a:	079b      	lsls	r3, r3, #30
2000882c:	d5fc      	bpl.n	20008828 <dcd_rp2040_irq+0x118>
2000882e:	f44f 5240 	mov.w	r2, #12288	@ 0x3000
20008832:	2100      	movs	r1, #0
20008834:	486d      	ldr	r0, [pc, #436]	@ (200089ec <dcd_rp2040_irq+0x2dc>)
20008836:	f000 fb01 	bl	20008e3c <_hw_endpoint_buffer_control_update32>
2000883a:	486c      	ldr	r0, [pc, #432]	@ (200089ec <dcd_rp2040_irq+0x2dc>)
2000883c:	f000 faf8 	bl	20008e30 <hw_endpoint_reset_transfer>
20008840:	2202      	movs	r2, #2
20008842:	4b6d      	ldr	r3, [pc, #436]	@ (200089f8 <dcd_rp2040_irq+0x2e8>)
20008844:	665a      	str	r2, [r3, #100]	@ 0x64
20008846:	661a      	str	r2, [r3, #96]	@ 0x60
20008848:	2301      	movs	r3, #1
2000884a:	f894 203a 	ldrb.w	r2, [r4, #58]	@ 0x3a
2000884e:	70e3      	strb	r3, [r4, #3]
20008850:	b9fa      	cbnz	r2, 20008892 <dcd_rp2040_irq+0x182>
20008852:	2301      	movs	r3, #1
20008854:	f44f 61c0 	mov.w	r1, #1536	@ 0x600
20008858:	4a6a      	ldr	r2, [pc, #424]	@ (20008a04 <dcd_rp2040_irq+0x2f4>)
2000885a:	f884 3023 	strb.w	r3, [r4, #35]	@ 0x23
2000885e:	f8ad 1004 	strh.w	r1, [sp, #4]
20008862:	e892 0003 	ldmia.w	r2, {r0, r1}
20008866:	aa04      	add	r2, sp, #16
20008868:	e902 0003 	stmdb	r2, {r0, r1}
2000886c:	4619      	mov	r1, r3
2000886e:	a801      	add	r0, sp, #4
20008870:	f000 fb56 	bl	20008f20 <dcd_event_handler>
20008874:	f44f 3200 	mov.w	r2, #131072	@ 0x20000
20008878:	4b5f      	ldr	r3, [pc, #380]	@ (200089f8 <dcd_rp2040_irq+0x2e8>)
2000887a:	651a      	str	r2, [r3, #80]	@ 0x50
2000887c:	04e8      	lsls	r0, r5, #19
2000887e:	d41d      	bmi.n	200088bc <dcd_rp2040_irq+0x1ac>
20008880:	046a      	lsls	r2, r5, #17
20008882:	d436      	bmi.n	200088f2 <dcd_rp2040_irq+0x1e2>
20008884:	042b      	lsls	r3, r5, #16
20008886:	d443      	bmi.n	20008910 <dcd_rp2040_irq+0x200>
20008888:	42ae      	cmp	r6, r5
2000888a:	f040 81ac 	bne.w	20008be6 <dcd_rp2040_irq+0x4d6>
2000888e:	b005      	add	sp, #20
20008890:	bdf0      	pop	{r4, r5, r6, r7, pc}
20008892:	4a5b      	ldr	r2, [pc, #364]	@ (20008a00 <dcd_rp2040_irq+0x2f0>)
20008894:	6613      	str	r3, [r2, #96]	@ 0x60
20008896:	f5a2 5200 	sub.w	r2, r2, #8192	@ 0x2000
2000889a:	6e53      	ldr	r3, [r2, #100]	@ 0x64
2000889c:	07df      	lsls	r7, r3, #31
2000889e:	d5fc      	bpl.n	2000889a <dcd_rp2040_irq+0x18a>
200088a0:	f44f 5240 	mov.w	r2, #12288	@ 0x3000
200088a4:	2100      	movs	r1, #0
200088a6:	4858      	ldr	r0, [pc, #352]	@ (20008a08 <dcd_rp2040_irq+0x2f8>)
200088a8:	f000 fac8 	bl	20008e3c <_hw_endpoint_buffer_control_update32>
200088ac:	4856      	ldr	r0, [pc, #344]	@ (20008a08 <dcd_rp2040_irq+0x2f8>)
200088ae:	f000 fabf 	bl	20008e30 <hw_endpoint_reset_transfer>
200088b2:	2201      	movs	r2, #1
200088b4:	4b50      	ldr	r3, [pc, #320]	@ (200089f8 <dcd_rp2040_irq+0x2e8>)
200088b6:	665a      	str	r2, [r3, #100]	@ 0x64
200088b8:	661a      	str	r2, [r3, #96]	@ 0x60
200088ba:	e7ca      	b.n	20008852 <dcd_rp2040_irq+0x142>
200088bc:	2700      	movs	r7, #0
200088be:	4c49      	ldr	r4, [pc, #292]	@ (200089e4 <dcd_rp2040_irq+0x2d4>)
200088c0:	6027      	str	r7, [r4, #0]
200088c2:	f7ff fea9 	bl	20008618 <reset_non_control_endpoints>
200088c6:	f44f 7380 	mov.w	r3, #256	@ 0x100
200088ca:	2101      	movs	r1, #1
200088cc:	a801      	add	r0, sp, #4
200088ce:	f8ad 3004 	strh.w	r3, [sp, #4]
200088d2:	f88d 7008 	strb.w	r7, [sp, #8]
200088d6:	f000 fb23 	bl	20008f20 <dcd_event_handler>
200088da:	f44f 2200 	mov.w	r2, #524288	@ 0x80000
200088de:	4b46      	ldr	r3, [pc, #280]	@ (200089f8 <dcd_rp2040_irq+0x2e8>)
200088e0:	651a      	str	r2, [r3, #80]	@ 0x50
200088e2:	6ce3      	ldr	r3, [r4, #76]	@ 0x4c
200088e4:	03d9      	lsls	r1, r3, #15
200088e6:	f100 810d 	bmi.w	20008b04 <dcd_rp2040_irq+0x3f4>
200088ea:	046a      	lsls	r2, r5, #17
200088ec:	f446 5680 	orr.w	r6, r6, #4096	@ 0x1000
200088f0:	d5c8      	bpl.n	20008884 <dcd_rp2040_irq+0x174>
200088f2:	f44f 6380 	mov.w	r3, #1024	@ 0x400
200088f6:	2101      	movs	r1, #1
200088f8:	a801      	add	r0, sp, #4
200088fa:	f8ad 3004 	strh.w	r3, [sp, #4]
200088fe:	f000 fb0f 	bl	20008f20 <dcd_event_handler>
20008902:	2210      	movs	r2, #16
20008904:	4b3c      	ldr	r3, [pc, #240]	@ (200089f8 <dcd_rp2040_irq+0x2e8>)
20008906:	f446 4680 	orr.w	r6, r6, #16384	@ 0x4000
2000890a:	651a      	str	r2, [r3, #80]	@ 0x50
2000890c:	042b      	lsls	r3, r5, #16
2000890e:	d5bb      	bpl.n	20008888 <dcd_rp2040_irq+0x178>
20008910:	f44f 63a0 	mov.w	r3, #1280	@ 0x500
20008914:	2101      	movs	r1, #1
20008916:	a801      	add	r0, sp, #4
20008918:	f8ad 3004 	strh.w	r3, [sp, #4]
2000891c:	f000 fb00 	bl	20008f20 <dcd_event_handler>
20008920:	f44f 6200 	mov.w	r2, #2048	@ 0x800
20008924:	4b34      	ldr	r3, [pc, #208]	@ (200089f8 <dcd_rp2040_irq+0x2e8>)
20008926:	f446 4600 	orr.w	r6, r6, #32768	@ 0x8000
2000892a:	651a      	str	r2, [r3, #80]	@ 0x50
2000892c:	e7ac      	b.n	20008888 <dcd_rp2040_irq+0x178>
2000892e:	f894 603a 	ldrb.w	r6, [r4, #58]	@ 0x3a
20008932:	2e00      	cmp	r6, #0
20008934:	f43f aeff 	beq.w	20008736 <dcd_rp2040_irq+0x26>
20008938:	f894 303c 	ldrb.w	r3, [r4, #60]	@ 0x3c
2000893c:	2b00      	cmp	r3, #0
2000893e:	f43f aefa 	beq.w	20008736 <dcd_rp2040_irq+0x26>
20008942:	2300      	movs	r3, #0
20008944:	f104 0020 	add.w	r0, r4, #32
20008948:	f884 303c 	strb.w	r3, [r4, #60]	@ 0x3c
2000894c:	f000 fa98 	bl	20008e80 <hw_endpoint_start_next_buffer>
20008950:	e6f1      	b.n	20008736 <dcd_rp2040_irq+0x26>
20008952:	f894 737a 	ldrb.w	r7, [r4, #890]	@ 0x37a
20008956:	2f00      	cmp	r7, #0
20008958:	f43f af2e 	beq.w	200087b8 <dcd_rp2040_irq+0xa8>
2000895c:	f894 337c 	ldrb.w	r3, [r4, #892]	@ 0x37c
20008960:	2b00      	cmp	r3, #0
20008962:	f040 8139 	bne.w	20008bd8 <dcd_rp2040_irq+0x4c8>
20008966:	f894 33bb 	ldrb.w	r3, [r4, #955]	@ 0x3bb
2000896a:	2b02      	cmp	r3, #2
2000896c:	d123      	bne.n	200089b6 <dcd_rp2040_irq+0x2a6>
2000896e:	f894 33ba 	ldrb.w	r3, [r4, #954]	@ 0x3ba
20008972:	b9db      	cbnz	r3, 200089ac <dcd_rp2040_irq+0x29c>
20008974:	f894 33fb 	ldrb.w	r3, [r4, #1019]	@ 0x3fb
20008978:	2b02      	cmp	r3, #2
2000897a:	f47f af30 	bne.w	200087de <dcd_rp2040_irq+0xce>
2000897e:	463e      	mov	r6, r7
20008980:	f894 33fa 	ldrb.w	r3, [r4, #1018]	@ 0x3fa
20008984:	2b00      	cmp	r3, #0
20008986:	f43f af21 	beq.w	200087cc <dcd_rp2040_irq+0xbc>
2000898a:	f894 33fc 	ldrb.w	r3, [r4, #1020]	@ 0x3fc
2000898e:	2b00      	cmp	r3, #0
20008990:	f43f af25 	beq.w	200087de <dcd_rp2040_irq+0xce>
20008994:	2300      	movs	r3, #0
20008996:	481d      	ldr	r0, [pc, #116]	@ (20008a0c <dcd_rp2040_irq+0x2fc>)
20008998:	f884 33fc 	strb.w	r3, [r4, #1020]	@ 0x3fc
2000899c:	f000 fa70 	bl	20008e80 <hw_endpoint_start_next_buffer>
200089a0:	e71d      	b.n	200087de <dcd_rp2040_irq+0xce>
200089a2:	f894 33ba 	ldrb.w	r3, [r4, #954]	@ 0x3ba
200089a6:	2b00      	cmp	r3, #0
200089a8:	f43f af0b 	beq.w	200087c2 <dcd_rp2040_irq+0xb2>
200089ac:	f894 33bc 	ldrb.w	r3, [r4, #956]	@ 0x3bc
200089b0:	2b00      	cmp	r3, #0
200089b2:	f040 80aa 	bne.w	20008b0a <dcd_rp2040_irq+0x3fa>
200089b6:	f894 33fb 	ldrb.w	r3, [r4, #1019]	@ 0x3fb
200089ba:	2b02      	cmp	r3, #2
200089bc:	f47f af0f 	bne.w	200087de <dcd_rp2040_irq+0xce>
200089c0:	f894 33fa 	ldrb.w	r3, [r4, #1018]	@ 0x3fa
200089c4:	2b00      	cmp	r3, #0
200089c6:	d1e0      	bne.n	2000898a <dcd_rp2040_irq+0x27a>
200089c8:	e709      	b.n	200087de <dcd_rp2040_irq+0xce>
200089ca:	f894 733a 	ldrb.w	r7, [r4, #826]	@ 0x33a
200089ce:	2f00      	cmp	r7, #0
200089d0:	f43f aeed 	beq.w	200087ae <dcd_rp2040_irq+0x9e>
200089d4:	f894 333c 	ldrb.w	r3, [r4, #828]	@ 0x33c
200089d8:	2b00      	cmp	r3, #0
200089da:	f040 80f5 	bne.w	20008bc8 <dcd_rp2040_irq+0x4b8>
200089de:	463e      	mov	r6, r7
200089e0:	e6e5      	b.n	200087ae <dcd_rp2040_irq+0x9e>
200089e2:	bf00      	nop
200089e4:	50110000 	.word	0x50110000
200089e8:	400b0000 	.word	0x400b0000
200089ec:	2000f238 	.word	0x2000f238
200089f0:	2000f230 	.word	0x2000f230
200089f4:	2001fa68 	.word	0x2001fa68
200089f8:	50113000 	.word	0x50113000
200089fc:	00020010 	.word	0x00020010
20008a00:	50112000 	.word	0x50112000
20008a04:	50100000 	.word	0x50100000
20008a08:	2000f258 	.word	0x2000f258
20008a0c:	2000f618 	.word	0x2000f618
20008a10:	f894 72fa 	ldrb.w	r7, [r4, #762]	@ 0x2fa
20008a14:	2f00      	cmp	r7, #0
20008a16:	f43f aec5 	beq.w	200087a4 <dcd_rp2040_irq+0x94>
20008a1a:	f894 32fc 	ldrb.w	r3, [r4, #764]	@ 0x2fc
20008a1e:	2b00      	cmp	r3, #0
20008a20:	f040 80ca 	bne.w	20008bb8 <dcd_rp2040_irq+0x4a8>
20008a24:	463e      	mov	r6, r7
20008a26:	e6bd      	b.n	200087a4 <dcd_rp2040_irq+0x94>
20008a28:	f894 72ba 	ldrb.w	r7, [r4, #698]	@ 0x2ba
20008a2c:	2f00      	cmp	r7, #0
20008a2e:	f43f aeb4 	beq.w	2000879a <dcd_rp2040_irq+0x8a>
20008a32:	f894 32bc 	ldrb.w	r3, [r4, #700]	@ 0x2bc
20008a36:	2b00      	cmp	r3, #0
20008a38:	f040 80b6 	bne.w	20008ba8 <dcd_rp2040_irq+0x498>
20008a3c:	463e      	mov	r6, r7
20008a3e:	e6ac      	b.n	2000879a <dcd_rp2040_irq+0x8a>
20008a40:	f894 727a 	ldrb.w	r7, [r4, #634]	@ 0x27a
20008a44:	2f00      	cmp	r7, #0
20008a46:	f43f aea3 	beq.w	20008790 <dcd_rp2040_irq+0x80>
20008a4a:	f894 327c 	ldrb.w	r3, [r4, #636]	@ 0x27c
20008a4e:	2b00      	cmp	r3, #0
20008a50:	f040 80a2 	bne.w	20008b98 <dcd_rp2040_irq+0x488>
20008a54:	463e      	mov	r6, r7
20008a56:	e69b      	b.n	20008790 <dcd_rp2040_irq+0x80>
20008a58:	f894 723a 	ldrb.w	r7, [r4, #570]	@ 0x23a
20008a5c:	2f00      	cmp	r7, #0
20008a5e:	f43f ae92 	beq.w	20008786 <dcd_rp2040_irq+0x76>
20008a62:	f894 323c 	ldrb.w	r3, [r4, #572]	@ 0x23c
20008a66:	2b00      	cmp	r3, #0
20008a68:	f040 808e 	bne.w	20008b88 <dcd_rp2040_irq+0x478>
20008a6c:	463e      	mov	r6, r7
20008a6e:	e68a      	b.n	20008786 <dcd_rp2040_irq+0x76>
20008a70:	f894 71fa 	ldrb.w	r7, [r4, #506]	@ 0x1fa
20008a74:	2f00      	cmp	r7, #0
20008a76:	f43f ae81 	beq.w	2000877c <dcd_rp2040_irq+0x6c>
20008a7a:	f894 31fc 	ldrb.w	r3, [r4, #508]	@ 0x1fc
20008a7e:	2b00      	cmp	r3, #0
20008a80:	d17a      	bne.n	20008b78 <dcd_rp2040_irq+0x468>
20008a82:	463e      	mov	r6, r7
20008a84:	e67a      	b.n	2000877c <dcd_rp2040_irq+0x6c>
20008a86:	f894 71ba 	ldrb.w	r7, [r4, #442]	@ 0x1ba
20008a8a:	2f00      	cmp	r7, #0
20008a8c:	f43f ae71 	beq.w	20008772 <dcd_rp2040_irq+0x62>
20008a90:	f894 31bc 	ldrb.w	r3, [r4, #444]	@ 0x1bc
20008a94:	2b00      	cmp	r3, #0
20008a96:	d167      	bne.n	20008b68 <dcd_rp2040_irq+0x458>
20008a98:	463e      	mov	r6, r7
20008a9a:	e66a      	b.n	20008772 <dcd_rp2040_irq+0x62>
20008a9c:	f894 717a 	ldrb.w	r7, [r4, #378]	@ 0x17a
20008aa0:	2f00      	cmp	r7, #0
20008aa2:	f43f ae61 	beq.w	20008768 <dcd_rp2040_irq+0x58>
20008aa6:	f894 317c 	ldrb.w	r3, [r4, #380]	@ 0x17c
20008aaa:	2b00      	cmp	r3, #0
20008aac:	d154      	bne.n	20008b58 <dcd_rp2040_irq+0x448>
20008aae:	463e      	mov	r6, r7
20008ab0:	e65a      	b.n	20008768 <dcd_rp2040_irq+0x58>
20008ab2:	f894 713a 	ldrb.w	r7, [r4, #314]	@ 0x13a
20008ab6:	2f00      	cmp	r7, #0
20008ab8:	f43f ae51 	beq.w	2000875e <dcd_rp2040_irq+0x4e>
20008abc:	f894 313c 	ldrb.w	r3, [r4, #316]	@ 0x13c
20008ac0:	2b00      	cmp	r3, #0
20008ac2:	d141      	bne.n	20008b48 <dcd_rp2040_irq+0x438>
20008ac4:	463e      	mov	r6, r7
20008ac6:	e64a      	b.n	2000875e <dcd_rp2040_irq+0x4e>
20008ac8:	f894 70fa 	ldrb.w	r7, [r4, #250]	@ 0xfa
20008acc:	2f00      	cmp	r7, #0
20008ace:	f43f ae41 	beq.w	20008754 <dcd_rp2040_irq+0x44>
20008ad2:	f894 30fc 	ldrb.w	r3, [r4, #252]	@ 0xfc
20008ad6:	bb7b      	cbnz	r3, 20008b38 <dcd_rp2040_irq+0x428>
20008ad8:	463e      	mov	r6, r7
20008ada:	e63b      	b.n	20008754 <dcd_rp2040_irq+0x44>
20008adc:	f894 70ba 	ldrb.w	r7, [r4, #186]	@ 0xba
20008ae0:	2f00      	cmp	r7, #0
20008ae2:	f43f ae32 	beq.w	2000874a <dcd_rp2040_irq+0x3a>
20008ae6:	f894 30bc 	ldrb.w	r3, [r4, #188]	@ 0xbc
20008aea:	b9eb      	cbnz	r3, 20008b28 <dcd_rp2040_irq+0x418>
20008aec:	463e      	mov	r6, r7
20008aee:	e62c      	b.n	2000874a <dcd_rp2040_irq+0x3a>
20008af0:	f894 707a 	ldrb.w	r7, [r4, #122]	@ 0x7a
20008af4:	2f00      	cmp	r7, #0
20008af6:	f43f ae23 	beq.w	20008740 <dcd_rp2040_irq+0x30>
20008afa:	f894 307c 	ldrb.w	r3, [r4, #124]	@ 0x7c
20008afe:	b95b      	cbnz	r3, 20008b18 <dcd_rp2040_irq+0x408>
20008b00:	463e      	mov	r6, r7
20008b02:	e61d      	b.n	20008740 <dcd_rp2040_irq+0x30>
20008b04:	f7fd f854 	bl	20005bb0 <rp2040_usb_device_enumeration_fix>
20008b08:	e6ef      	b.n	200088ea <dcd_rp2040_irq+0x1da>
20008b0a:	2300      	movs	r3, #0
20008b0c:	4838      	ldr	r0, [pc, #224]	@ (20008bf0 <dcd_rp2040_irq+0x4e0>)
20008b0e:	f884 33bc 	strb.w	r3, [r4, #956]	@ 0x3bc
20008b12:	f000 f9b5 	bl	20008e80 <hw_endpoint_start_next_buffer>
20008b16:	e74e      	b.n	200089b6 <dcd_rp2040_irq+0x2a6>
20008b18:	2300      	movs	r3, #0
20008b1a:	4836      	ldr	r0, [pc, #216]	@ (20008bf4 <dcd_rp2040_irq+0x4e4>)
20008b1c:	f884 307c 	strb.w	r3, [r4, #124]	@ 0x7c
20008b20:	463e      	mov	r6, r7
20008b22:	f000 f9ad 	bl	20008e80 <hw_endpoint_start_next_buffer>
20008b26:	e60b      	b.n	20008740 <dcd_rp2040_irq+0x30>
20008b28:	2300      	movs	r3, #0
20008b2a:	4833      	ldr	r0, [pc, #204]	@ (20008bf8 <dcd_rp2040_irq+0x4e8>)
20008b2c:	f884 30bc 	strb.w	r3, [r4, #188]	@ 0xbc
20008b30:	463e      	mov	r6, r7
20008b32:	f000 f9a5 	bl	20008e80 <hw_endpoint_start_next_buffer>
20008b36:	e608      	b.n	2000874a <dcd_rp2040_irq+0x3a>
20008b38:	2300      	movs	r3, #0
20008b3a:	4830      	ldr	r0, [pc, #192]	@ (20008bfc <dcd_rp2040_irq+0x4ec>)
20008b3c:	f884 30fc 	strb.w	r3, [r4, #252]	@ 0xfc
20008b40:	463e      	mov	r6, r7
20008b42:	f000 f99d 	bl	20008e80 <hw_endpoint_start_next_buffer>
20008b46:	e605      	b.n	20008754 <dcd_rp2040_irq+0x44>
20008b48:	2300      	movs	r3, #0
20008b4a:	482d      	ldr	r0, [pc, #180]	@ (20008c00 <dcd_rp2040_irq+0x4f0>)
20008b4c:	f884 313c 	strb.w	r3, [r4, #316]	@ 0x13c
20008b50:	463e      	mov	r6, r7
20008b52:	f000 f995 	bl	20008e80 <hw_endpoint_start_next_buffer>
20008b56:	e602      	b.n	2000875e <dcd_rp2040_irq+0x4e>
20008b58:	2300      	movs	r3, #0
20008b5a:	482a      	ldr	r0, [pc, #168]	@ (20008c04 <dcd_rp2040_irq+0x4f4>)
20008b5c:	f884 317c 	strb.w	r3, [r4, #380]	@ 0x17c
20008b60:	463e      	mov	r6, r7
20008b62:	f000 f98d 	bl	20008e80 <hw_endpoint_start_next_buffer>
20008b66:	e5ff      	b.n	20008768 <dcd_rp2040_irq+0x58>
20008b68:	2300      	movs	r3, #0
20008b6a:	4827      	ldr	r0, [pc, #156]	@ (20008c08 <dcd_rp2040_irq+0x4f8>)
20008b6c:	f884 31bc 	strb.w	r3, [r4, #444]	@ 0x1bc
20008b70:	463e      	mov	r6, r7
20008b72:	f000 f985 	bl	20008e80 <hw_endpoint_start_next_buffer>
20008b76:	e5fc      	b.n	20008772 <dcd_rp2040_irq+0x62>
20008b78:	2300      	movs	r3, #0
20008b7a:	4824      	ldr	r0, [pc, #144]	@ (20008c0c <dcd_rp2040_irq+0x4fc>)
20008b7c:	f884 31fc 	strb.w	r3, [r4, #508]	@ 0x1fc
20008b80:	463e      	mov	r6, r7
20008b82:	f000 f97d 	bl	20008e80 <hw_endpoint_start_next_buffer>
20008b86:	e5f9      	b.n	2000877c <dcd_rp2040_irq+0x6c>
20008b88:	2300      	movs	r3, #0
20008b8a:	4821      	ldr	r0, [pc, #132]	@ (20008c10 <dcd_rp2040_irq+0x500>)
20008b8c:	f884 323c 	strb.w	r3, [r4, #572]	@ 0x23c
20008b90:	463e      	mov	r6, r7
20008b92:	f000 f975 	bl	20008e80 <hw_endpoint_start_next_buffer>
20008b96:	e5f6      	b.n	20008786 <dcd_rp2040_irq+0x76>
20008b98:	2300      	movs	r3, #0
20008b9a:	481e      	ldr	r0, [pc, #120]	@ (20008c14 <dcd_rp2040_irq+0x504>)
20008b9c:	f884 327c 	strb.w	r3, [r4, #636]	@ 0x27c
20008ba0:	463e      	mov	r6, r7
20008ba2:	f000 f96d 	bl	20008e80 <hw_endpoint_start_next_buffer>
20008ba6:	e5f3      	b.n	20008790 <dcd_rp2040_irq+0x80>
20008ba8:	2300      	movs	r3, #0
20008baa:	481b      	ldr	r0, [pc, #108]	@ (20008c18 <dcd_rp2040_irq+0x508>)
20008bac:	f884 32bc 	strb.w	r3, [r4, #700]	@ 0x2bc
20008bb0:	463e      	mov	r6, r7
20008bb2:	f000 f965 	bl	20008e80 <hw_endpoint_start_next_buffer>
20008bb6:	e5f0      	b.n	2000879a <dcd_rp2040_irq+0x8a>
20008bb8:	2300      	movs	r3, #0
20008bba:	4818      	ldr	r0, [pc, #96]	@ (20008c1c <dcd_rp2040_irq+0x50c>)
20008bbc:	f884 32fc 	strb.w	r3, [r4, #764]	@ 0x2fc
20008bc0:	463e      	mov	r6, r7
20008bc2:	f000 f95d 	bl	20008e80 <hw_endpoint_start_next_buffer>
20008bc6:	e5ed      	b.n	200087a4 <dcd_rp2040_irq+0x94>
20008bc8:	2300      	movs	r3, #0
20008bca:	4815      	ldr	r0, [pc, #84]	@ (20008c20 <dcd_rp2040_irq+0x510>)
20008bcc:	f884 333c 	strb.w	r3, [r4, #828]	@ 0x33c
20008bd0:	463e      	mov	r6, r7
20008bd2:	f000 f955 	bl	20008e80 <hw_endpoint_start_next_buffer>
20008bd6:	e5ea      	b.n	200087ae <dcd_rp2040_irq+0x9e>
20008bd8:	2300      	movs	r3, #0
20008bda:	4812      	ldr	r0, [pc, #72]	@ (20008c24 <dcd_rp2040_irq+0x514>)
20008bdc:	f884 337c 	strb.w	r3, [r4, #892]	@ 0x37c
20008be0:	f000 f94e 	bl	20008e80 <hw_endpoint_start_next_buffer>
20008be4:	e6bf      	b.n	20008966 <dcd_rp2040_irq+0x256>
20008be6:	4810      	ldr	r0, [pc, #64]	@ (20008c28 <dcd_rp2040_irq+0x518>)
20008be8:	ea86 0105 	eor.w	r1, r6, r5
20008bec:	f7f9 fbc2 	bl	20002374 <panic>
20008bf0:	2000f5d8 	.word	0x2000f5d8
20008bf4:	2000f298 	.word	0x2000f298
20008bf8:	2000f2d8 	.word	0x2000f2d8
20008bfc:	2000f318 	.word	0x2000f318
20008c00:	2000f358 	.word	0x2000f358
20008c04:	2000f398 	.word	0x2000f398
20008c08:	2000f3d8 	.word	0x2000f3d8
20008c0c:	2000f418 	.word	0x2000f418
20008c10:	2000f458 	.word	0x2000f458
20008c14:	2000f498 	.word	0x2000f498
20008c18:	2000f4d8 	.word	0x2000f4d8
20008c1c:	2000f518 	.word	0x2000f518
20008c20:	2000f558 	.word	0x2000f558
20008c24:	2000f598 	.word	0x2000f598
20008c28:	20009368 	.word	0x20009368

20008c2c <prepare_ep_buffer>:
20008c2c:	e92d 43f0 	stmdb	sp!, {r4, r5, r6, r7, r8, r9, lr}
20008c30:	8a82      	ldrh	r2, [r0, #20]
20008c32:	8b04      	ldrh	r4, [r0, #24]
20008c34:	4603      	mov	r3, r0
20008c36:	4294      	cmp	r4, r2
20008c38:	78c0      	ldrb	r0, [r0, #3]
20008c3a:	bf28      	it	cs
20008c3c:	4614      	movcs	r4, r2
20008c3e:	1e05      	subs	r5, r0, #0
20008c40:	bf18      	it	ne
20008c42:	2501      	movne	r5, #1
20008c44:	f080 0001 	eor.w	r0, r0, #1
20008c48:	1b12      	subs	r2, r2, r4
20008c4a:	785e      	ldrb	r6, [r3, #1]
20008c4c:	70d8      	strb	r0, [r3, #3]
20008c4e:	b292      	uxth	r2, r2
20008c50:	f444 6080 	orr.w	r0, r4, #1024	@ 0x400
20008c54:	829a      	strh	r2, [r3, #20]
20008c56:	ea40 3045 	orr.w	r0, r0, r5, lsl #13
20008c5a:	bb06      	cbnz	r6, 20008c9e <prepare_ep_buffer+0x72>
20008c5c:	68dd      	ldr	r5, [r3, #12]
20008c5e:	f104 38ff 	add.w	r8, r4, #4294967295	@ 0xffffffff
20008c62:	eb05 1c81 	add.w	ip, r5, r1, lsl #6
20008c66:	691d      	ldr	r5, [r3, #16]
20008c68:	b1ac      	cbz	r4, 20008c96 <prepare_ep_buffer+0x6a>
20008c6a:	f1b8 0f05 	cmp.w	r8, #5
20008c6e:	f105 0201 	add.w	r2, r5, #1
20008c72:	d903      	bls.n	20008c7c <prepare_ep_buffer+0x50>
20008c74:	ebac 0702 	sub.w	r7, ip, r2
20008c78:	2f02      	cmp	r7, #2
20008c7a:	d817      	bhi.n	20008cac <prepare_ep_buffer+0x80>
20008c7c:	f10c 3cff 	add.w	ip, ip, #4294967295	@ 0xffffffff
20008c80:	4425      	add	r5, r4
20008c82:	e000      	b.n	20008c86 <prepare_ep_buffer+0x5a>
20008c84:	3201      	adds	r2, #1
20008c86:	f812 6c01 	ldrb.w	r6, [r2, #-1]
20008c8a:	42aa      	cmp	r2, r5
20008c8c:	f80c 6f01 	strb.w	r6, [ip, #1]!
20008c90:	d1f8      	bne.n	20008c84 <prepare_ep_buffer+0x58>
20008c92:	691d      	ldr	r5, [r3, #16]
20008c94:	8a9a      	ldrh	r2, [r3, #20]
20008c96:	4425      	add	r5, r4
20008c98:	611d      	str	r5, [r3, #16]
20008c9a:	f440 4000 	orr.w	r0, r0, #32768	@ 0x8000
20008c9e:	b90a      	cbnz	r2, 20008ca4 <prepare_ep_buffer+0x78>
20008ca0:	f440 4080 	orr.w	r0, r0, #16384	@ 0x4000
20008ca4:	b101      	cbz	r1, 20008ca8 <prepare_ep_buffer+0x7c>
20008ca6:	0400      	lsls	r0, r0, #16
20008ca8:	e8bd 83f0 	ldmia.w	sp!, {r4, r5, r6, r7, r8, r9, pc}
20008cac:	462f      	mov	r7, r5
20008cae:	46e6      	mov	lr, ip
20008cb0:	4632      	mov	r2, r6
20008cb2:	1f26      	subs	r6, r4, #4
20008cb4:	08b6      	lsrs	r6, r6, #2
20008cb6:	3601      	adds	r6, #1
20008cb8:	f857 9b04 	ldr.w	r9, [r7], #4
20008cbc:	3201      	adds	r2, #1
20008cbe:	4296      	cmp	r6, r2
20008cc0:	f84e 9b04 	str.w	r9, [lr], #4
20008cc4:	d8f8      	bhi.n	20008cb8 <prepare_ep_buffer+0x8c>
20008cc6:	ebb4 0f86 	cmp.w	r4, r6, lsl #2
20008cca:	eba8 0286 	sub.w	r2, r8, r6, lsl #2
20008cce:	eb05 0e86 	add.w	lr, r5, r6, lsl #2
20008cd2:	eb0c 0786 	add.w	r7, ip, r6, lsl #2
20008cd6:	d0dc      	beq.n	20008c92 <prepare_ep_buffer+0x66>
20008cd8:	f815 5026 	ldrb.w	r5, [r5, r6, lsl #2]
20008cdc:	f80c 5026 	strb.w	r5, [ip, r6, lsl #2]
20008ce0:	2a00      	cmp	r2, #0
20008ce2:	d0d6      	beq.n	20008c92 <prepare_ep_buffer+0x66>
20008ce4:	f89e 5001 	ldrb.w	r5, [lr, #1]
20008ce8:	2a01      	cmp	r2, #1
20008cea:	707d      	strb	r5, [r7, #1]
20008cec:	d0d1      	beq.n	20008c92 <prepare_ep_buffer+0x66>
20008cee:	f89e 2002 	ldrb.w	r2, [lr, #2]
20008cf2:	70ba      	strb	r2, [r7, #2]
20008cf4:	691d      	ldr	r5, [r3, #16]
20008cf6:	8a9a      	ldrh	r2, [r3, #20]
20008cf8:	e7cd      	b.n	20008c96 <prepare_ep_buffer+0x6a>
20008cfa:	bf00      	nop

20008cfc <sync_ep_buffer>:
20008cfc:	6883      	ldr	r3, [r0, #8]
20008cfe:	4602      	mov	r2, r0
20008d00:	6818      	ldr	r0, [r3, #0]
20008d02:	b101      	cbz	r1, 20008d06 <sync_ep_buffer+0xa>
20008d04:	0c00      	lsrs	r0, r0, #16
20008d06:	7853      	ldrb	r3, [r2, #1]
20008d08:	f3c0 0009 	ubfx	r0, r0, #0, #10
20008d0c:	b313      	cbz	r3, 20008d54 <sync_ep_buffer+0x58>
20008d0e:	b5f0      	push	{r4, r5, r6, r7, lr}
20008d10:	e9d2 5403 	ldrd	r5, r4, [r2, #12]
20008d14:	018f      	lsls	r7, r1, #6
20008d16:	eb05 1381 	add.w	r3, r5, r1, lsl #6
20008d1a:	1e46      	subs	r6, r0, #1
20008d1c:	b178      	cbz	r0, 20008d3e <sync_ep_buffer+0x42>
20008d1e:	2e05      	cmp	r6, #5
20008d20:	d904      	bls.n	20008d2c <sync_ep_buffer+0x30>
20008d22:	3701      	adds	r7, #1
20008d24:	443d      	add	r5, r7
20008d26:	1b65      	subs	r5, r4, r5
20008d28:	2d02      	cmp	r5, #2
20008d2a:	d81c      	bhi.n	20008d66 <sync_ep_buffer+0x6a>
20008d2c:	1e61      	subs	r1, r4, #1
20008d2e:	181d      	adds	r5, r3, r0
20008d30:	f813 4b01 	ldrb.w	r4, [r3], #1
20008d34:	429d      	cmp	r5, r3
20008d36:	f801 4f01 	strb.w	r4, [r1, #1]!
20008d3a:	d1f9      	bne.n	20008d30 <sync_ep_buffer+0x34>
20008d3c:	6914      	ldr	r4, [r2, #16]
20008d3e:	8ad3      	ldrh	r3, [r2, #22]
20008d40:	4404      	add	r4, r0
20008d42:	4403      	add	r3, r0
20008d44:	82d3      	strh	r3, [r2, #22]
20008d46:	8b13      	ldrh	r3, [r2, #24]
20008d48:	6114      	str	r4, [r2, #16]
20008d4a:	4283      	cmp	r3, r0
20008d4c:	bf84      	itt	hi
20008d4e:	2300      	movhi	r3, #0
20008d50:	8293      	strhhi	r3, [r2, #20]
20008d52:	bdf0      	pop	{r4, r5, r6, r7, pc}
20008d54:	8ad3      	ldrh	r3, [r2, #22]
20008d56:	4403      	add	r3, r0
20008d58:	82d3      	strh	r3, [r2, #22]
20008d5a:	8b13      	ldrh	r3, [r2, #24]
20008d5c:	4283      	cmp	r3, r0
20008d5e:	bf84      	itt	hi
20008d60:	2300      	movhi	r3, #0
20008d62:	8293      	strhhi	r3, [r2, #20]
20008d64:	4770      	bx	lr
20008d66:	469e      	mov	lr, r3
20008d68:	4625      	mov	r5, r4
20008d6a:	2100      	movs	r1, #0
20008d6c:	f1a0 0c04 	sub.w	ip, r0, #4
20008d70:	ea4f 0c9c 	mov.w	ip, ip, lsr #2
20008d74:	f10c 0c01 	add.w	ip, ip, #1
20008d78:	f85e 7b04 	ldr.w	r7, [lr], #4
20008d7c:	3101      	adds	r1, #1
20008d7e:	4561      	cmp	r1, ip
20008d80:	f845 7b04 	str.w	r7, [r5], #4
20008d84:	d3f8      	bcc.n	20008d78 <sync_ep_buffer+0x7c>
20008d86:	ebb0 0f8c 	cmp.w	r0, ip, lsl #2
20008d8a:	eba6 068c 	sub.w	r6, r6, ip, lsl #2
20008d8e:	eb03 058c 	add.w	r5, r3, ip, lsl #2
20008d92:	eb04 018c 	add.w	r1, r4, ip, lsl #2
20008d96:	d0d1      	beq.n	20008d3c <sync_ep_buffer+0x40>
20008d98:	f813 302c 	ldrb.w	r3, [r3, ip, lsl #2]
20008d9c:	f804 302c 	strb.w	r3, [r4, ip, lsl #2]
20008da0:	2e00      	cmp	r6, #0
20008da2:	d0cb      	beq.n	20008d3c <sync_ep_buffer+0x40>
20008da4:	786b      	ldrb	r3, [r5, #1]
20008da6:	2e01      	cmp	r6, #1
20008da8:	704b      	strb	r3, [r1, #1]
20008daa:	d0c7      	beq.n	20008d3c <sync_ep_buffer+0x40>
20008dac:	78ab      	ldrb	r3, [r5, #2]
20008dae:	708b      	strb	r3, [r1, #2]
20008db0:	6914      	ldr	r4, [r2, #16]
20008db2:	e7c4      	b.n	20008d3e <sync_ep_buffer+0x42>

20008db4 <_hw_endpoint_xfer_sync>:
20008db4:	b510      	push	{r4, lr}
20008db6:	4604      	mov	r4, r0
20008db8:	6883      	ldr	r3, [r0, #8]
20008dba:	2100      	movs	r1, #0
20008dbc:	681b      	ldr	r3, [r3, #0]
20008dbe:	f7ff ff9d 	bl	20008cfc <sync_ep_buffer>
20008dc2:	6863      	ldr	r3, [r4, #4]
20008dc4:	681b      	ldr	r3, [r3, #0]
20008dc6:	005b      	lsls	r3, r3, #1
20008dc8:	d502      	bpl.n	20008dd0 <_hw_endpoint_xfer_sync+0x1c>
20008dca:	8b23      	ldrh	r3, [r4, #24]
20008dcc:	4283      	cmp	r3, r0
20008dce:	d000      	beq.n	20008dd2 <_hw_endpoint_xfer_sync+0x1e>
20008dd0:	bd10      	pop	{r4, pc}
20008dd2:	4620      	mov	r0, r4
20008dd4:	e8bd 4010 	ldmia.w	sp!, {r4, lr}
20008dd8:	2101      	movs	r1, #1
20008dda:	f7ff bf8f 	b.w	20008cfc <sync_ep_buffer>
20008dde:	bf00      	nop

20008de0 <e15_is_bulkin_ep>:
20008de0:	4b08      	ldr	r3, [pc, #32]	@ (20008e04 <e15_is_bulkin_ep+0x24>)
20008de2:	6c1b      	ldr	r3, [r3, #64]	@ 0x40
20008de4:	f013 0302 	ands.w	r3, r3, #2
20008de8:	d102      	bne.n	20008df0 <e15_is_bulkin_ep+0x10>
20008dea:	7882      	ldrb	r2, [r0, #2]
20008dec:	09d2      	lsrs	r2, r2, #7
20008dee:	d101      	bne.n	20008df4 <e15_is_bulkin_ep+0x14>
20008df0:	2000      	movs	r0, #0
20008df2:	4770      	bx	lr
20008df4:	7ec0      	ldrb	r0, [r0, #27]
20008df6:	f1a0 0002 	sub.w	r0, r0, #2
20008dfa:	fab0 f080 	clz	r0, r0
20008dfe:	0940      	lsrs	r0, r0, #5
20008e00:	4770      	bx	lr
20008e02:	bf00      	nop
20008e04:	50110000 	.word	0x50110000

20008e08 <e15_is_critical_frame_period>:
20008e08:	b508      	push	{r3, lr}
20008e0a:	f7ff ffe9 	bl	20008de0 <e15_is_bulkin_ep>
20008e0e:	b150      	cbz	r0, 20008e26 <e15_is_critical_frame_period+0x1e>
20008e10:	4a05      	ldr	r2, [pc, #20]	@ (20008e28 <e15_is_critical_frame_period+0x20>)
20008e12:	4b06      	ldr	r3, [pc, #24]	@ (20008e2c <e15_is_critical_frame_period+0x24>)
20008e14:	6a90      	ldr	r0, [r2, #40]	@ 0x28
20008e16:	681b      	ldr	r3, [r3, #0]
20008e18:	f5a0 7048 	sub.w	r0, r0, #800	@ 0x320
20008e1c:	1ac0      	subs	r0, r0, r3
20008e1e:	28c6      	cmp	r0, #198	@ 0xc6
20008e20:	bf8c      	ite	hi
20008e22:	2000      	movhi	r0, #0
20008e24:	2001      	movls	r0, #1
20008e26:	bd08      	pop	{r3, pc}
20008e28:	400b0000 	.word	0x400b0000
20008e2c:	2000f230 	.word	0x2000f230

20008e30 <hw_endpoint_reset_transfer>:
20008e30:	2300      	movs	r3, #0
20008e32:	e9c0 3304 	strd	r3, r3, [r0, #16]
20008e36:	7683      	strb	r3, [r0, #26]
20008e38:	4770      	bx	lr
20008e3a:	bf00      	nop

20008e3c <_hw_endpoint_buffer_control_update32>:
20008e3c:	b510      	push	{r4, lr}
20008e3e:	6883      	ldr	r3, [r0, #8]
20008e40:	b109      	cbz	r1, 20008e46 <_hw_endpoint_buffer_control_update32+0xa>
20008e42:	681c      	ldr	r4, [r3, #0]
20008e44:	4021      	ands	r1, r4
20008e46:	b182      	cbz	r2, 20008e6a <_hw_endpoint_buffer_control_update32+0x2e>
20008e48:	4311      	orrs	r1, r2
20008e4a:	0552      	lsls	r2, r2, #21
20008e4c:	d50d      	bpl.n	20008e6a <_hw_endpoint_buffer_control_update32+0x2e>
20008e4e:	681a      	ldr	r2, [r3, #0]
20008e50:	0554      	lsls	r4, r2, #21
20008e52:	d40c      	bmi.n	20008e6e <_hw_endpoint_buffer_control_update32+0x32>
20008e54:	4a08      	ldr	r2, [pc, #32]	@ (20008e78 <_hw_endpoint_buffer_control_update32+0x3c>)
20008e56:	f421 6480 	bic.w	r4, r1, #1024	@ 0x400
20008e5a:	601c      	str	r4, [r3, #0]
20008e5c:	6c12      	ldr	r2, [r2, #64]	@ 0x40
20008e5e:	0792      	lsls	r2, r2, #30
20008e60:	d403      	bmi.n	20008e6a <_hw_endpoint_buffer_control_update32+0x2e>
20008e62:	230c      	movs	r3, #12
20008e64:	3b03      	subs	r3, #3
20008e66:	d2fd      	bcs.n	20008e64 <_hw_endpoint_buffer_control_update32+0x28>
20008e68:	6883      	ldr	r3, [r0, #8]
20008e6a:	6019      	str	r1, [r3, #0]
20008e6c:	bd10      	pop	{r4, pc}
20008e6e:	7881      	ldrb	r1, [r0, #2]
20008e70:	4802      	ldr	r0, [pc, #8]	@ (20008e7c <_hw_endpoint_buffer_control_update32+0x40>)
20008e72:	f7f9 fa7f 	bl	20002374 <panic>
20008e76:	bf00      	nop
20008e78:	50110000 	.word	0x50110000
20008e7c:	2000937c 	.word	0x2000937c

20008e80 <hw_endpoint_start_next_buffer>:
20008e80:	b530      	push	{r4, r5, lr}
20008e82:	6843      	ldr	r3, [r0, #4]
20008e84:	2100      	movs	r1, #0
20008e86:	b083      	sub	sp, #12
20008e88:	4604      	mov	r4, r0
20008e8a:	681d      	ldr	r5, [r3, #0]
20008e8c:	f7ff fece 	bl	20008c2c <prepare_ep_buffer>
20008e90:	4b13      	ldr	r3, [pc, #76]	@ (20008ee0 <hw_endpoint_start_next_buffer+0x60>)
20008e92:	f440 5280 	orr.w	r2, r0, #4096	@ 0x1000
20008e96:	6c1b      	ldr	r3, [r3, #64]	@ 0x40
20008e98:	f013 0f02 	tst.w	r3, #2
20008e9c:	78a3      	ldrb	r3, [r4, #2]
20008e9e:	d00e      	beq.n	20008ebe <hw_endpoint_start_next_buffer+0x3e>
20008ea0:	065b      	lsls	r3, r3, #25
20008ea2:	d00e      	beq.n	20008ec2 <hw_endpoint_start_next_buffer+0x42>
20008ea4:	f025 45a0 	bic.w	r5, r5, #1342177280	@ 0x50000000
20008ea8:	f045 5500 	orr.w	r5, r5, #536870912	@ 0x20000000
20008eac:	2100      	movs	r1, #0
20008eae:	4620      	mov	r0, r4
20008eb0:	6863      	ldr	r3, [r4, #4]
20008eb2:	601d      	str	r5, [r3, #0]
20008eb4:	b003      	add	sp, #12
20008eb6:	e8bd 4030 	ldmia.w	sp!, {r4, r5, lr}
20008eba:	f7ff bfbf 	b.w	20008e3c <_hw_endpoint_buffer_control_update32>
20008ebe:	09db      	lsrs	r3, r3, #7
20008ec0:	d0f0      	beq.n	20008ea4 <hw_endpoint_start_next_buffer+0x24>
20008ec2:	8aa3      	ldrh	r3, [r4, #20]
20008ec4:	2b00      	cmp	r3, #0
20008ec6:	d0ed      	beq.n	20008ea4 <hw_endpoint_start_next_buffer+0x24>
20008ec8:	2101      	movs	r1, #1
20008eca:	4620      	mov	r0, r4
20008ecc:	9201      	str	r2, [sp, #4]
20008ece:	f7ff fead 	bl	20008c2c <prepare_ep_buffer>
20008ed2:	9a01      	ldr	r2, [sp, #4]
20008ed4:	f025 5500 	bic.w	r5, r5, #536870912	@ 0x20000000
20008ed8:	4302      	orrs	r2, r0
20008eda:	f045 45a0 	orr.w	r5, r5, #1342177280	@ 0x50000000
20008ede:	e7e5      	b.n	20008eac <hw_endpoint_start_next_buffer+0x2c>
20008ee0:	50110000 	.word	0x50110000

20008ee4 <hw_endpoint_xfer_continue>:
20008ee4:	b538      	push	{r3, r4, r5, lr}
20008ee6:	7e85      	ldrb	r5, [r0, #26]
20008ee8:	4604      	mov	r4, r0
20008eea:	b195      	cbz	r5, 20008f12 <hw_endpoint_xfer_continue+0x2e>
20008eec:	f7ff ff62 	bl	20008db4 <_hw_endpoint_xfer_sync>
20008ef0:	8aa3      	ldrh	r3, [r4, #20]
20008ef2:	b90b      	cbnz	r3, 20008ef8 <hw_endpoint_xfer_continue+0x14>
20008ef4:	4628      	mov	r0, r5
20008ef6:	bd38      	pop	{r3, r4, r5, pc}
20008ef8:	4620      	mov	r0, r4
20008efa:	f7ff ff85 	bl	20008e08 <e15_is_critical_frame_period>
20008efe:	b120      	cbz	r0, 20008f0a <hw_endpoint_xfer_continue+0x26>
20008f00:	2301      	movs	r3, #1
20008f02:	7723      	strb	r3, [r4, #28]
20008f04:	2500      	movs	r5, #0
20008f06:	4628      	mov	r0, r5
20008f08:	bd38      	pop	{r3, r4, r5, pc}
20008f0a:	4620      	mov	r0, r4
20008f0c:	f7ff ffb8 	bl	20008e80 <hw_endpoint_start_next_buffer>
20008f10:	e7f8      	b.n	20008f04 <hw_endpoint_xfer_continue+0x20>
20008f12:	7881      	ldrb	r1, [r0, #2]
20008f14:	4801      	ldr	r0, [pc, #4]	@ (20008f1c <hw_endpoint_xfer_continue+0x38>)
20008f16:	f7f9 fa2d 	bl	20002374 <panic>
20008f1a:	bf00      	nop
20008f1c:	2000939c 	.word	0x2000939c

20008f20 <dcd_event_handler>:
20008f20:	e92d 43f0 	stmdb	sp!, {r4, r5, r6, r7, r8, r9, lr}
20008f24:	7843      	ldrb	r3, [r0, #1]
20008f26:	4681      	mov	r9, r0
20008f28:	3b02      	subs	r3, #2
20008f2a:	460d      	mov	r5, r1
20008f2c:	b085      	sub	sp, #20
20008f2e:	2b04      	cmp	r3, #4
20008f30:	d813      	bhi.n	20008f5a <dcd_event_handler+0x3a>
20008f32:	e8df f003 	tbb	[pc, r3]
20008f36:	4a03      	.short	0x4a03
20008f38:	736a      	.short	0x736a
20008f3a:	44          	.byte	0x44
20008f3b:	00          	.byte	0x00
20008f3c:	2100      	movs	r1, #0
20008f3e:	4b7b      	ldr	r3, [pc, #492]	@ (2000912c <dcd_event_handler+0x20c>)
20008f40:	781a      	ldrb	r2, [r3, #0]
20008f42:	f022 0201 	bic.w	r2, r2, #1
20008f46:	701a      	strb	r2, [r3, #0]
20008f48:	781a      	ldrb	r2, [r3, #0]
20008f4a:	f022 0202 	bic.w	r2, r2, #2
20008f4e:	701a      	strb	r2, [r3, #0]
20008f50:	7059      	strb	r1, [r3, #1]
20008f52:	781a      	ldrb	r2, [r3, #0]
20008f54:	f361 0282 	bfi	r2, r1, #2, #1
20008f58:	701a      	strb	r2, [r3, #0]
20008f5a:	4b75      	ldr	r3, [pc, #468]	@ (20009130 <dcd_event_handler+0x210>)
20008f5c:	681c      	ldr	r4, [r3, #0]
20008f5e:	6963      	ldr	r3, [r4, #20]
20008f60:	f3ef 8210 	mrs	r2, PRIMASK
20008f64:	b672      	cpsid	i
20008f66:	e8d3 0fcf 	ldaexb	r0, [r3]
20008f6a:	2101      	movs	r1, #1
20008f6c:	2800      	cmp	r0, #0
20008f6e:	d1fa      	bne.n	20008f66 <dcd_event_handler+0x46>
20008f70:	e8c3 1f40 	strexb	r0, r1, [r3]
20008f74:	2800      	cmp	r0, #0
20008f76:	d1f6      	bne.n	20008f66 <dcd_event_handler+0x46>
20008f78:	f3bf 8f5f 	dmb	sy
20008f7c:	61a2      	str	r2, [r4, #24]
20008f7e:	4649      	mov	r1, r9
20008f80:	4620      	mov	r0, r4
20008f82:	f7fc fcdf 	bl	20005944 <tu_fifo_write>
20008f86:	2300      	movs	r3, #0
20008f88:	6962      	ldr	r2, [r4, #20]
20008f8a:	e8c2 3f8f 	stlb	r3, [r2]
20008f8e:	69a3      	ldr	r3, [r4, #24]
20008f90:	f383 8810 	msr	PRIMASK, r3
20008f94:	b948      	cbnz	r0, 20008faa <dcd_event_handler+0x8a>
20008f96:	f04f 23e0 	mov.w	r3, #3758153728	@ 0xe000e000
20008f9a:	f8d3 3df0 	ldr.w	r3, [r3, #3568]	@ 0xdf0
20008f9e:	07db      	lsls	r3, r3, #31
20008fa0:	d50a      	bpl.n	20008fb8 <dcd_event_handler+0x98>
20008fa2:	be00      	bkpt	0x0000
20008fa4:	b005      	add	sp, #20
20008fa6:	e8bd 83f0 	ldmia.w	sp!, {r4, r5, r6, r7, r8, r9, pc}
20008faa:	462a      	mov	r2, r5
20008fac:	f899 1001 	ldrb.w	r1, [r9, #1]
20008fb0:	f899 0000 	ldrb.w	r0, [r9]
20008fb4:	f7fa fd7a 	bl	20003aac <tud_event_hook_cb>
20008fb8:	b005      	add	sp, #20
20008fba:	e8bd 83f0 	ldmia.w	sp!, {r4, r5, r6, r7, r8, r9, pc}
20008fbe:	4a5d      	ldr	r2, [pc, #372]	@ (20009134 <dcd_event_handler+0x214>)
20008fc0:	7813      	ldrb	r3, [r2, #0]
20008fc2:	3301      	adds	r3, #1
20008fc4:	b2db      	uxtb	r3, r3
20008fc6:	7013      	strb	r3, [r2, #0]
20008fc8:	e7c7      	b.n	20008f5a <dcd_event_handler+0x3a>
20008fca:	2400      	movs	r4, #0
20008fcc:	4e5a      	ldr	r6, [pc, #360]	@ (20009138 <dcd_event_handler+0x218>)
20008fce:	4623      	mov	r3, r4
20008fd0:	7831      	ldrb	r1, [r6, #0]
20008fd2:	f8df 816c 	ldr.w	r8, [pc, #364]	@ 20009140 <dcd_event_handler+0x220>
20008fd6:	4f59      	ldr	r7, [pc, #356]	@ (2000913c <dcd_event_handler+0x21c>)
20008fd8:	e011      	b.n	20008ffe <dcd_event_handler+0xde>
20008fda:	683b      	ldr	r3, [r7, #0]
20008fdc:	eb13 1344 	adds.w	r3, r3, r4, lsl #5
20008fe0:	d007      	beq.n	20008ff2 <dcd_event_handler+0xd2>
20008fe2:	69db      	ldr	r3, [r3, #28]
20008fe4:	b12b      	cbz	r3, 20008ff2 <dcd_event_handler+0xd2>
20008fe6:	f8d9 1004 	ldr.w	r1, [r9, #4]
20008fea:	f899 0000 	ldrb.w	r0, [r9]
20008fee:	4798      	blx	r3
20008ff0:	7831      	ldrb	r1, [r6, #0]
20008ff2:	3401      	adds	r4, #1
20008ff4:	b2e4      	uxtb	r4, r4
20008ff6:	1c8a      	adds	r2, r1, #2
20008ff8:	42a2      	cmp	r2, r4
20008ffa:	4623      	mov	r3, r4
20008ffc:	db17      	blt.n	2000902e <dcd_event_handler+0x10e>
20008ffe:	42a1      	cmp	r1, r4
20009000:	d8eb      	bhi.n	20008fda <dcd_event_handler+0xba>
20009002:	1a5b      	subs	r3, r3, r1
20009004:	eb08 1343 	add.w	r3, r8, r3, lsl #5
20009008:	e7eb      	b.n	20008fe2 <dcd_event_handler+0xc2>
2000900a:	4b48      	ldr	r3, [pc, #288]	@ (2000912c <dcd_event_handler+0x20c>)
2000900c:	781a      	ldrb	r2, [r3, #0]
2000900e:	07d6      	lsls	r6, r2, #31
20009010:	d5d2      	bpl.n	20008fb8 <dcd_event_handler+0x98>
20009012:	781a      	ldrb	r2, [r3, #0]
20009014:	f042 0204 	orr.w	r2, r2, #4
20009018:	701a      	strb	r2, [r3, #0]
2000901a:	e79e      	b.n	20008f5a <dcd_event_handler+0x3a>
2000901c:	4b43      	ldr	r3, [pc, #268]	@ (2000912c <dcd_event_handler+0x20c>)
2000901e:	781a      	ldrb	r2, [r3, #0]
20009020:	07d4      	lsls	r4, r2, #31
20009022:	d5c9      	bpl.n	20008fb8 <dcd_event_handler+0x98>
20009024:	781a      	ldrb	r2, [r3, #0]
20009026:	f022 0204 	bic.w	r2, r2, #4
2000902a:	701a      	strb	r2, [r3, #0]
2000902c:	e795      	b.n	20008f5a <dcd_event_handler+0x3a>
2000902e:	4c3f      	ldr	r4, [pc, #252]	@ (2000912c <dcd_event_handler+0x20c>)
20009030:	7823      	ldrb	r3, [r4, #0]
20009032:	0758      	lsls	r0, r3, #29
20009034:	d43a      	bmi.n	200090ac <dcd_event_handler+0x18c>
20009036:	78e3      	ldrb	r3, [r4, #3]
20009038:	07da      	lsls	r2, r3, #31
2000903a:	d5bd      	bpl.n	20008fb8 <dcd_event_handler+0x98>
2000903c:	2303      	movs	r3, #3
2000903e:	2600      	movs	r6, #0
20009040:	4a3b      	ldr	r2, [pc, #236]	@ (20009130 <dcd_event_handler+0x210>)
20009042:	f899 1000 	ldrb.w	r1, [r9]
20009046:	6814      	ldr	r4, [r2, #0]
20009048:	f8d9 2004 	ldr.w	r2, [r9, #4]
2000904c:	f88d 1004 	strb.w	r1, [sp, #4]
20009050:	f88d 3005 	strb.w	r3, [sp, #5]
20009054:	6963      	ldr	r3, [r4, #20]
20009056:	f8cd 6006 	str.w	r6, [sp, #6]
2000905a:	f8cd 600a 	str.w	r6, [sp, #10]
2000905e:	f8ad 600e 	strh.w	r6, [sp, #14]
20009062:	9202      	str	r2, [sp, #8]
20009064:	f3ef 8210 	mrs	r2, PRIMASK
20009068:	b672      	cpsid	i
2000906a:	e8d3 0fcf 	ldaexb	r0, [r3]
2000906e:	2101      	movs	r1, #1
20009070:	2800      	cmp	r0, #0
20009072:	d1fa      	bne.n	2000906a <dcd_event_handler+0x14a>
20009074:	e8c3 1f40 	strexb	r0, r1, [r3]
20009078:	2800      	cmp	r0, #0
2000907a:	d1f6      	bne.n	2000906a <dcd_event_handler+0x14a>
2000907c:	f3bf 8f5f 	dmb	sy
20009080:	4620      	mov	r0, r4
20009082:	61a2      	str	r2, [r4, #24]
20009084:	a901      	add	r1, sp, #4
20009086:	f7fc fc5d 	bl	20005944 <tu_fifo_write>
2000908a:	6963      	ldr	r3, [r4, #20]
2000908c:	e8c3 6f8f 	stlb	r6, [r3]
20009090:	69a3      	ldr	r3, [r4, #24]
20009092:	f383 8810 	msr	PRIMASK, r3
20009096:	2800      	cmp	r0, #0
20009098:	f43f af7d 	beq.w	20008f96 <dcd_event_handler+0x76>
2000909c:	462a      	mov	r2, r5
2000909e:	f89d 1005 	ldrb.w	r1, [sp, #5]
200090a2:	f89d 0004 	ldrb.w	r0, [sp, #4]
200090a6:	f7fa fd01 	bl	20003aac <tud_event_hook_cb>
200090aa:	e785      	b.n	20008fb8 <dcd_event_handler+0x98>
200090ac:	7823      	ldrb	r3, [r4, #0]
200090ae:	2700      	movs	r7, #0
200090b0:	f023 0304 	bic.w	r3, r3, #4
200090b4:	7023      	strb	r3, [r4, #0]
200090b6:	2305      	movs	r3, #5
200090b8:	4a1d      	ldr	r2, [pc, #116]	@ (20009130 <dcd_event_handler+0x210>)
200090ba:	f88d 3005 	strb.w	r3, [sp, #5]
200090be:	6816      	ldr	r6, [r2, #0]
200090c0:	f899 2000 	ldrb.w	r2, [r9]
200090c4:	f8ad 700e 	strh.w	r7, [sp, #14]
200090c8:	f88d 2004 	strb.w	r2, [sp, #4]
200090cc:	6973      	ldr	r3, [r6, #20]
200090ce:	f8cd 7006 	str.w	r7, [sp, #6]
200090d2:	f8cd 700a 	str.w	r7, [sp, #10]
200090d6:	f3ef 8210 	mrs	r2, PRIMASK
200090da:	b672      	cpsid	i
200090dc:	e8d3 0fcf 	ldaexb	r0, [r3]
200090e0:	2101      	movs	r1, #1
200090e2:	2800      	cmp	r0, #0
200090e4:	d1fa      	bne.n	200090dc <dcd_event_handler+0x1bc>
200090e6:	e8c3 1f40 	strexb	r0, r1, [r3]
200090ea:	2800      	cmp	r0, #0
200090ec:	d1f6      	bne.n	200090dc <dcd_event_handler+0x1bc>
200090ee:	f3bf 8f5f 	dmb	sy
200090f2:	4630      	mov	r0, r6
200090f4:	61b2      	str	r2, [r6, #24]
200090f6:	a901      	add	r1, sp, #4
200090f8:	f7fc fc24 	bl	20005944 <tu_fifo_write>
200090fc:	6973      	ldr	r3, [r6, #20]
200090fe:	e8c3 7f8f 	stlb	r7, [r3]
20009102:	69b3      	ldr	r3, [r6, #24]
20009104:	f383 8810 	msr	PRIMASK, r3
20009108:	b938      	cbnz	r0, 2000911a <dcd_event_handler+0x1fa>
2000910a:	f04f 23e0 	mov.w	r3, #3758153728	@ 0xe000e000
2000910e:	f8d3 3df0 	ldr.w	r3, [r3, #3568]	@ 0xdf0
20009112:	07d9      	lsls	r1, r3, #31
20009114:	d58f      	bpl.n	20009036 <dcd_event_handler+0x116>
20009116:	be00      	bkpt	0x0000
20009118:	e78d      	b.n	20009036 <dcd_event_handler+0x116>
2000911a:	462a      	mov	r2, r5
2000911c:	f89d 1005 	ldrb.w	r1, [sp, #5]
20009120:	f89d 0004 	ldrb.w	r0, [sp, #4]
20009124:	f7fa fcc2 	bl	20003aac <tud_event_hook_cb>
20009128:	e785      	b.n	20009036 <dcd_event_handler+0x116>
2000912a:	bf00      	nop
2000912c:	2000afec 	.word	0x2000afec
20009130:	2000b044 	.word	0x2000b044
20009134:	2001fa69 	.word	0x2001fa69
20009138:	2001fa65 	.word	0x2001fa65
2000913c:	2000add4 	.word	0x2000add4
20009140:	200095e8 	.word	0x200095e8
20009144:	424f5250 	.word	0x424f5250
20009148:	57532045 	.word	0x57532045
2000914c:	004b4c43 	.word	0x004b4c43
20009150:	424f5250 	.word	0x424f5250
20009154:	57532045 	.word	0x57532045
20009158:	004f4944 	.word	0x004f4944
2000915c:	424f5250 	.word	0x424f5250
20009160:	41552045 	.word	0x41552045
20009164:	49205452 	.word	0x49205452
20009168:	5245544e 	.word	0x5245544e
2000916c:	45434146 	.word	0x45434146
20009170:	72617520 	.word	0x72617520
20009174:	00003174 	.word	0x00003174
20009178:	00000000 	.word	0x00000000
2000917c:	424f5250 	.word	0x424f5250
20009180:	41552045 	.word	0x41552045
20009184:	42205452 	.word	0x42205452
20009188:	52445541 	.word	0x52445541
2000918c:	20455441 	.word	0x20455441
20009190:	32353131 	.word	0x32353131
20009194:	00003030 	.word	0x00003030
20009198:	424f5250 	.word	0x424f5250
2000919c:	41552045 	.word	0x41552045
200091a0:	54205452 	.word	0x54205452
200091a4:	00000058 	.word	0x00000058
200091a8:	424f5250 	.word	0x424f5250
200091ac:	41552045 	.word	0x41552045
200091b0:	52205452 	.word	0x52205452
200091b4:	00000058 	.word	0x00000058
200091b8:	00445554 	.word	0x00445554
200091bc:	54524155 	.word	0x54524155
200091c0:	00000000 	.word	0x00000000
200091c4:	00504144 	.word	0x00504144
200091c8:	63617473 	.word	0x63617473
200091cc:	766f206b 	.word	0x766f206b
200091d0:	6c667265 	.word	0x6c667265
200091d4:	2820776f 	.word	0x2820776f
200091d8:	20746f6e 	.word	0x20746f6e
200091dc:	20656874 	.word	0x20656874
200091e0:	706c6568 	.word	0x706c6568
200091e4:	206c7566 	.word	0x206c7566
200091e8:	646e696b 	.word	0x646e696b
200091ec:	6f662029 	.word	0x6f662029
200091f0:	73252072 	.word	0x73252072
200091f4:	0000000a 	.word	0x0000000a
200091f8:	6c6c614d 	.word	0x6c6c614d
200091fc:	4620636f 	.word	0x4620636f
20009200:	656c6961 	.word	0x656c6961
20009204:	00000a64 	.word	0x00000a64
20009208:	70736152 	.word	0x70736152
2000920c:	72726562 	.word	0x72726562
20009210:	69502079 	.word	0x69502079
20009214:	00000000 	.word	0x00000000
20009218:	75626544 	.word	0x75626544
2000921c:	6f727067 	.word	0x6f727067
20009220:	6f206562 	.word	0x6f206562
20009224:	6950206e 	.word	0x6950206e
20009228:	28206f63 	.word	0x28206f63
2000922c:	49534d43 	.word	0x49534d43
20009230:	41442d53 	.word	0x41442d53
20009234:	00002950 	.word	0x00002950
20009238:	49534d43 	.word	0x49534d43
2000923c:	41442d53 	.word	0x41442d53
20009240:	31762050 	.word	0x31762050
20009244:	746e4920 	.word	0x746e4920
20009248:	61667265 	.word	0x61667265
2000924c:	00006563 	.word	0x00006563
20009250:	49534d43 	.word	0x49534d43
20009254:	41442d53 	.word	0x41442d53
20009258:	32762050 	.word	0x32762050
2000925c:	746e4920 	.word	0x746e4920
20009260:	61667265 	.word	0x61667265
20009264:	00006563 	.word	0x00006563
20009268:	2d434443 	.word	0x2d434443
2000926c:	204d4341 	.word	0x204d4341
20009270:	54524155 	.word	0x54524155
20009274:	746e4920 	.word	0x746e4920
20009278:	61667265 	.word	0x61667265
2000927c:	00006563 	.word	0x00006563
20009280:	2e302e32 	.word	0x2e302e32
20009284:	00000030 	.word	0x00000030
20009288:	66206f4e 	.word	0x66206f4e
2000928c:	20656572 	.word	0x20656572
20009290:	726f6f64 	.word	0x726f6f64
20009294:	6c6c6562 	.word	0x6c6c6562
20009298:	00000073 	.word	0x00000073
2000929c:	64726148 	.word	0x64726148
200092a0:	65726177 	.word	0x65726177
200092a4:	616c6120 	.word	0x616c6120
200092a8:	25206d72 	.word	0x25206d72
200092ac:	6c612064 	.word	0x6c612064
200092b0:	64616572 	.word	0x64616572
200092b4:	6c632079 	.word	0x6c632079
200092b8:	656d6961 	.word	0x656d6961
200092bc:	00000064 	.word	0x00000064
200092c0:	2a2a2a0a 	.word	0x2a2a2a0a
200092c4:	4e415020 	.word	0x4e415020
200092c8:	2a204349 	.word	0x2a204349
200092cc:	000a2a2a 	.word	0x000a2a2a
200092d0:	0000000a 	.word	0x0000000a
200092d4:	73206f4e 	.word	0x73206f4e
200092d8:	6c6e6970 	.word	0x6c6e6970
200092dc:	736b636f 	.word	0x736b636f
200092e0:	65726120 	.word	0x65726120
200092e4:	61766120 	.word	0x61766120
200092e8:	62616c69 	.word	0x62616c69
200092ec:	0000656c 	.word	0x0000656c
200092f0:	64726148 	.word	0x64726148
200092f4:	73736120 	.word	0x73736120
200092f8:	00747265 	.word	0x00747265
200092fc:	656c6552 	.word	0x656c6552
20009300:	00657361 	.word	0x00657361
20009304:	746f6f62 	.word	0x746f6f62
20009308:	32775f32 	.word	0x32775f32
2000930c:	38307135 	.word	0x38307135
20009310:	00000030 	.word	0x00000030
20009314:	2e322e32 	.word	0x2e322e32
20009318:	00000030 	.word	0x00000030
2000931c:	6f636970 	.word	0x6f636970
20009320:	00000032 	.word	0x00000032
20009324:	75626564 	.word	0x75626564
20009328:	6f727067 	.word	0x6f727067
2000932c:	00006562 	.word	0x00006562
20009330:	20766f4e 	.word	0x20766f4e
20009334:	32203120 	.word	0x32203120
20009338:	00353230 	.word	0x00353230
2000933c:	54524155 	.word	0x54524155
20009340:	64747320 	.word	0x64747320
20009344:	00006e69 	.word	0x00006e69
20009348:	54524155 	.word	0x54524155
2000934c:	64747320 	.word	0x64747320
20009350:	0074756f 	.word	0x0074756f
20009354:	54524155 	.word	0x54524155
20009358:	64747320 	.word	0x64747320
2000935c:	2f206e69 	.word	0x2f206e69
20009360:	64747320 	.word	0x64747320
20009364:	0074756f 	.word	0x0074756f
20009368:	61686e55 	.word	0x61686e55
2000936c:	656c646e 	.word	0x656c646e
20009370:	52492064 	.word	0x52492064
20009374:	78302051 	.word	0x78302051
20009378:	000a7825 	.word	0x000a7825
2000937c:	25207065 	.word	0x25207065
20009380:	20583230 	.word	0x20583230
20009384:	20736177 	.word	0x20736177
20009388:	65726c61 	.word	0x65726c61
2000938c:	20796461 	.word	0x20796461
20009390:	69617661 	.word	0x69617661
20009394:	6c62616c 	.word	0x6c62616c
20009398:	00000065 	.word	0x00000065
2000939c:	276e6143 	.word	0x276e6143
200093a0:	6f632074 	.word	0x6f632074
200093a4:	6e69746e 	.word	0x6e69746e
200093a8:	78206575 	.word	0x78206575
200093ac:	20726566 	.word	0x20726566
200093b0:	69206e6f 	.word	0x69206e6f
200093b4:	7463616e 	.word	0x7463616e
200093b8:	20657669 	.word	0x20657669
200093bc:	25207065 	.word	0x25207065
200093c0:	00583230 	.word	0x00583230
200093c4:	0044454c 	.word	0x0044454c
200093c8:	51726d54 	.word	0x51726d54
200093cc:	00000000 	.word	0x00000000
200093d0:	20726d54 	.word	0x20726d54
200093d4:	00637653 	.word	0x00637653

200093d8 <__bi_16.0>:
200093d8:	50520009 00000004 20009144              ..RP....D.. 

200093e4 <__bi_20.1>:
200093e4:	50520009 00000008 20009150              ..RP....P.. 

200093f0 <__bi_32.2>:
200093f0:	50520006 a1f4b453 2000915c              ..RPS...\.. 

200093fc <__bi_33.3>:
200093fc:	50520006 a1f4b453 2000917c              ..RPS...|.. 

20009408 <__bi_34.4>:
20009408:	50520009 00000010 20009198              ..RP....... 

20009414 <__bi_35.5>:
20009414:	50520009 00000020 200091a8              ..RP ...... 

20009420 <desc_ms_os_20>:
20009420:	0000000a 06030000 000800b2 00000001     ................
20009430:	000800a8 00000002 001400a0 49570003     ..............WI
20009440:	4253554e 00000000 00000000 00840000     NUSB............
20009450:	00070004 0044002a 00760065 00630069     ....*.D.e.v.i.c.
20009460:	00490065 0074006e 00720065 00610066     e.I.n.t.e.r.f.a.
20009470:	00650063 00550047 00440049 00000073     c.e.G.U.I.D.s...
20009480:	007b0050 00440043 00330042 00350042     P.{.C.D.B.3.B.5.
20009490:	00440041 0032002d 00330039 002d0042     A.D.-.2.9.3.B.-.
200094a0:	00360034 00330036 0041002d 00330041     4.6.6.3.-.A.A.3.
200094b0:	002d0036 00410031 00450041 00360034     6.-.1.A.A.E.4.6.
200094c0:	00360034 00370033 00360037 0000007d     4.6.3.7.7.6.}...
200094d0:	00000000                                ....

200094d4 <desc_bos>:
200094d4:	00210f05 05101c01 dd60df00 c74589d8     ..!.......`...E.
200094e4:	65d29c4c 8a649e9d 0300009f 0100b206     L..e..d.........
200094f4:	00000000                                ....

200094f8 <__compound_literal.0>:
200094f8:	00000409                                ....

200094fc <desc_hid_report>:
200094fc:	09ff0006 0901a101 26001502 087500ff     ...........&..u.
2000950c:	02814095 00150309 7500ff26 91409508     .@......&..u..@.
2000951c:	0000c002                                ....

20009520 <desc_device>:
20009520:	02100112 40000000 000c2e8a 02010223     .......@....#...
20009530:	00000103                                ....

20009534 <probe_program>:
20009534:	2000953c 0001ff0b                       <.. ....

2000953c <probe_program_instructions>:
2000953c:	710180a0 90a01941 60816028 a04260a5     ...qA...(`.`.`B.
2000954c:	10475901 00008020                       .YG. ...

20009554 <_dap_edpt_driver>:
20009554:	00000000 20000d39 20000d45 20000d3d     ....9.. E.. =.. 
20009564:	20000d89 20000d41 20000e29 00000000     ... A.. ).. ....

20009574 <__bi_84>:
20009574:	50520006 4275f0d3 200092fc              ..RP..uB... 

20009580 <__bi_78>:
20009580:	50520006 7f8882e1 20009304              ..RP....... 

2000958c <__bi_54>:
2000958c:	50520006 5360b3ab 20009314              ..RP..`S... 

20009598 <__bi_48>:
20009598:	50520006 b63cffbb 2000931c              ..RP..<.... 

200095a4 <__bi_42>:
200095a4:	50520006 02031c86 20009324              ..RP....$.. 

200095b0 <__bi_34>:
200095b0:	50520006 9da22254 20009330              ..RPT"..0.. 

200095bc <__bi_26>:
200095bc:	50520005 68f465de 10009928              ..RP.e.h(...

200095c8 <crlf_str.0>:
200095c8:	00000a0d                                ....

200095cc <__bi_45.4>:
200095cc:	50520006 a1f4b453 20009354              ..RPS...T.. 

200095d8 <__bi_49.5>:
200095d8:	50520008 00000012                       ..RP....

200095e0 <__bi_50.6>:
200095e0:	50520008 00001092                       ..RP....

200095e8 <_usbd_driver>:
200095e8:	00000000 20004a11 20004a89 20004ab5     .....J. .J. .J. 
200095f8:	20004b01 20004bbd 20004c7d 00000000     .K. .K. }L. ....
20009608:	00000000 20004df1 20004e01 20004e05     .....M. .N. .N. 
20009618:	20004e15 20004ec9 20005085 00000000     .N. .N. .P. ....
20009628:	00000000 20005119 20005179 20005195     .....Q. yQ. .Q. 
20009638:	200051c1 200002a5 200052e9 00000000     .Q. ... .R. ....

20009648 <__bi_153.0>:
20009648:	50520009 02000000 200093c4              ..RP....... 

20009654 <__bi_163.1>:
20009654:	50520008 00021012                       ..RP....

2000965c <uxTopUsedPriority>:
2000965c:	0000001f                                ....

20009660 <string_desc_arr>:
20009660:	200094f8 20009208 20009218 2001f974     ... ... ... t.. 
20009670:	20009238 20009250 20009268              8.. P.. h.. 

2000967c <desc_configuration>:
2000967c:	00620209 80000103 00040932 00ff0200     ..b.....2.......
2000968c:	05070500 00400204 85050700 00004002     ......@......@..
2000969c:	02010b08 00000202 00010409 00020201     ................
200096ac:	00240506 24050120 04020001 05060224     ..$. ..$....$...
200096bc:	02010624 03810507 09100040 02000204     $.......@.......
200096cc:	0000000a 02020507 07000040 40028305     ........@......@
200096dc:	00000000                                ....

200096e0 <interval>:
200096e0:	00000064                                d...

200096e4 <default_alarm_pool>:
	...
200096f8:	2000a870                                p.. 

200096fc <striped_spin_lock_num>:
200096fc:	00000010                                ....

20009700 <irq_handler_chain_slots>:
20009700:	00000000 	.word	0x00000000
20009704:	00010000 	.word	0x00010000
	...
20009710:	00020000 	.word	0x00020000
	...
2000971c:	00030000 	.word	0x00030000
	...
20009728:	00ff0000 	.word	0x00ff0000
2000972c:	00000000 	.word	0x00000000

20009730 <irq_handler_chain_first_slot>:
20009730:	b501      	push	{r0, lr}
20009732:	6848      	ldr	r0, [r1, #4]
20009734:	3101      	adds	r1, #1
20009736:	468e      	mov	lr, r1
20009738:	4700      	bx	r0

2000973a <irq_handler_chain_remove_tail>:
2000973a:	4670      	mov	r0, lr
2000973c:	3809      	subs	r0, #9
2000973e:	4901      	ldr	r1, [pc, #4]	@ (20009744 <irq_handler_chain_remove_tail+0xa>)
20009740:	4788      	blx	r1
20009742:	bd01      	pop	{r0, pc}
20009744:	20002a09 	.word	0x20002a09

20009748 <stdio_uart>:
20009748:	200034b5 200035bd 20003505 200035cd     .4. .5. .5. .5. 
20009758:	00000000 00000100                       ........

20009760 <_usbd_qdef>:
20009760:	2000b048 000c0010 00000000 00000000     H.. ............
	...

2000977c <_usbd_rhport>:
2000977c:	                                         .

2000977d <cDoorbellNum>:
2000977d:	                                         .

2000977e <ucPrimaryCoreNum>:
2000977e:	                                         ..

20009780 <ulCriticalNesting>:
20009780:	aaaaaaaa                                ....

20009784 <malloc_mutex>:
	...

2000978c <print_mutex>:
	...

20009794 <__pre_init_runtime_init_bootrom_reset>:
20009794:	20003049                                I0. 

20009798 <__pre_init_runtime_init_early_resets>:
20009798:	20002fbd                                ./. 

2000979c <__pre_init_runtime_init_usb_power_down>:
2000979c:	20002ff1                                ./. 

200097a0 <__pre_init_runtime_init_clocks>:
200097a0:	200030dd                                .0. 

200097a4 <__pre_init_runtime_init_post_clock_resets>:
200097a4:	20003029                                )0. 

200097a8 <__pre_init_runtime_init_boot_locks_reset>:
200097a8:	20002f41                                A/. 

200097ac <__pre_init_runtime_init_spin_locks_reset>:
200097ac:	20003071                                q0. 

200097b0 <__pre_init_runtime_init_bootrom_locking_enable>:
200097b0:	20002f2d                                -/. 

200097b4 <__pre_init_runtime_init_mutex>:
200097b4:	20001c15                                ... 

200097b8 <__pre_init_runtime_init_install_ram_vector_table>:
200097b8:	20003075                                u0. 

200097bc <__pre_init_runtime_init_default_alarm_pool>:
200097bc:	20001fc5                                ... 

200097c0 <__pre_init_first_per_core_initializer>:
200097c0:	20002f8d                                ./. 

200097c4 <__pre_init_runtime_init_per_core_bootrom_reset>:
200097c4:	2000305d                                ]0. 

200097c8 <__pre_init_runtime_init_per_core_enable_coprocessors>:
200097c8:	2000300d                                .0. 

200097cc <__pre_init_spinlock_set_extexclall>:
200097cc:	20002509                                .%. 

200097d0 <__pre_init_runtime_init_per_core_irq_priorities>:
200097d0:	20002531                                1%. 

200097d4 <__init_array_start>:
200097d4:	200084a9 	.word	0x200084a9
200097d8:	200036f5 	.word	0x200036f5

200097dc <__frame_dummy_init_array_entry>:
200097dc:	20000181 200063d1                       ... .c. 
